   1              	 .cpu cortex-m0
   2              	 .fpu softvfp
   3              	 .eabi_attribute 20,1
   4              	 .eabi_attribute 21,1
   5              	 .eabi_attribute 23,3
   6              	 .eabi_attribute 24,1
   7              	 .eabi_attribute 25,1
   8              	 .eabi_attribute 26,1
   9              	 .eabi_attribute 30,6
  10              	 .eabi_attribute 34,0
  11              	 .eabi_attribute 18,4
  12              	 .code 16
  13              	 .file "systimer.c"
  14              	 .text
  15              	.Ltext0:
  16              	 .cfi_sections .debug_frame
  17              	 .section .text.__NVIC_SetPriority,"ax",%progbits
  18              	 .align 2
  19              	 .code 16
  20              	 .thumb_func
  22              	__NVIC_SetPriority:
  23              	.LFB33:
  24              	 .file 1 "D:/DAVE IDE/4.5.0.202105191637/eclipse/workspace/bldcmotor/Libraries/CMSIS/Include/core_cm0.h"
   1:D:/DAVE IDE/4.5.0.202105191637/eclipse/workspace/bldcmotor/Libraries/CMSIS/Include\core_cm0.h **** /**************************************************************************//**
   2:D:/DAVE IDE/4.5.0.202105191637/eclipse/workspace/bldcmotor/Libraries/CMSIS/Include\core_cm0.h ****  * @file     core_cm0.h
   3:D:/DAVE IDE/4.5.0.202105191637/eclipse/workspace/bldcmotor/Libraries/CMSIS/Include\core_cm0.h ****  * @brief    CMSIS Cortex-M0 Core Peripheral Access Layer Header File
   4:D:/DAVE IDE/4.5.0.202105191637/eclipse/workspace/bldcmotor/Libraries/CMSIS/Include\core_cm0.h ****  * @version  V5.0.8
   5:D:/DAVE IDE/4.5.0.202105191637/eclipse/workspace/bldcmotor/Libraries/CMSIS/Include\core_cm0.h ****  * @date     21. August 2019
   6:D:/DAVE IDE/4.5.0.202105191637/eclipse/workspace/bldcmotor/Libraries/CMSIS/Include\core_cm0.h ****  ******************************************************************************/
   7:D:/DAVE IDE/4.5.0.202105191637/eclipse/workspace/bldcmotor/Libraries/CMSIS/Include\core_cm0.h **** /*
   8:D:/DAVE IDE/4.5.0.202105191637/eclipse/workspace/bldcmotor/Libraries/CMSIS/Include\core_cm0.h ****  * Copyright (c) 2009-2019 Arm Limited. All rights reserved.
   9:D:/DAVE IDE/4.5.0.202105191637/eclipse/workspace/bldcmotor/Libraries/CMSIS/Include\core_cm0.h ****  *
  10:D:/DAVE IDE/4.5.0.202105191637/eclipse/workspace/bldcmotor/Libraries/CMSIS/Include\core_cm0.h ****  * SPDX-License-Identifier: Apache-2.0
  11:D:/DAVE IDE/4.5.0.202105191637/eclipse/workspace/bldcmotor/Libraries/CMSIS/Include\core_cm0.h ****  *
  12:D:/DAVE IDE/4.5.0.202105191637/eclipse/workspace/bldcmotor/Libraries/CMSIS/Include\core_cm0.h ****  * Licensed under the Apache License, Version 2.0 (the License); you may
  13:D:/DAVE IDE/4.5.0.202105191637/eclipse/workspace/bldcmotor/Libraries/CMSIS/Include\core_cm0.h ****  * not use this file except in compliance with the License.
  14:D:/DAVE IDE/4.5.0.202105191637/eclipse/workspace/bldcmotor/Libraries/CMSIS/Include\core_cm0.h ****  * You may obtain a copy of the License at
  15:D:/DAVE IDE/4.5.0.202105191637/eclipse/workspace/bldcmotor/Libraries/CMSIS/Include\core_cm0.h ****  *
  16:D:/DAVE IDE/4.5.0.202105191637/eclipse/workspace/bldcmotor/Libraries/CMSIS/Include\core_cm0.h ****  * www.apache.org/licenses/LICENSE-2.0
  17:D:/DAVE IDE/4.5.0.202105191637/eclipse/workspace/bldcmotor/Libraries/CMSIS/Include\core_cm0.h ****  *
  18:D:/DAVE IDE/4.5.0.202105191637/eclipse/workspace/bldcmotor/Libraries/CMSIS/Include\core_cm0.h ****  * Unless required by applicable law or agreed to in writing, software
  19:D:/DAVE IDE/4.5.0.202105191637/eclipse/workspace/bldcmotor/Libraries/CMSIS/Include\core_cm0.h ****  * distributed under the License is distributed on an AS IS BASIS, WITHOUT
  20:D:/DAVE IDE/4.5.0.202105191637/eclipse/workspace/bldcmotor/Libraries/CMSIS/Include\core_cm0.h ****  * WARRANTIES OR CONDITIONS OF ANY KIND, either express or implied.
  21:D:/DAVE IDE/4.5.0.202105191637/eclipse/workspace/bldcmotor/Libraries/CMSIS/Include\core_cm0.h ****  * See the License for the specific language governing permissions and
  22:D:/DAVE IDE/4.5.0.202105191637/eclipse/workspace/bldcmotor/Libraries/CMSIS/Include\core_cm0.h ****  * limitations under the License.
  23:D:/DAVE IDE/4.5.0.202105191637/eclipse/workspace/bldcmotor/Libraries/CMSIS/Include\core_cm0.h ****  */
  24:D:/DAVE IDE/4.5.0.202105191637/eclipse/workspace/bldcmotor/Libraries/CMSIS/Include\core_cm0.h **** 
  25:D:/DAVE IDE/4.5.0.202105191637/eclipse/workspace/bldcmotor/Libraries/CMSIS/Include\core_cm0.h **** #if   defined ( __ICCARM__ )
  26:D:/DAVE IDE/4.5.0.202105191637/eclipse/workspace/bldcmotor/Libraries/CMSIS/Include\core_cm0.h ****   #pragma system_include         /* treat file as system include file for MISRA check */
  27:D:/DAVE IDE/4.5.0.202105191637/eclipse/workspace/bldcmotor/Libraries/CMSIS/Include\core_cm0.h **** #elif defined (__clang__)
  28:D:/DAVE IDE/4.5.0.202105191637/eclipse/workspace/bldcmotor/Libraries/CMSIS/Include\core_cm0.h ****   #pragma clang system_header   /* treat file as system include file */
  29:D:/DAVE IDE/4.5.0.202105191637/eclipse/workspace/bldcmotor/Libraries/CMSIS/Include\core_cm0.h **** #endif
  30:D:/DAVE IDE/4.5.0.202105191637/eclipse/workspace/bldcmotor/Libraries/CMSIS/Include\core_cm0.h **** 
  31:D:/DAVE IDE/4.5.0.202105191637/eclipse/workspace/bldcmotor/Libraries/CMSIS/Include\core_cm0.h **** #ifndef __CORE_CM0_H_GENERIC
  32:D:/DAVE IDE/4.5.0.202105191637/eclipse/workspace/bldcmotor/Libraries/CMSIS/Include\core_cm0.h **** #define __CORE_CM0_H_GENERIC
  33:D:/DAVE IDE/4.5.0.202105191637/eclipse/workspace/bldcmotor/Libraries/CMSIS/Include\core_cm0.h **** 
  34:D:/DAVE IDE/4.5.0.202105191637/eclipse/workspace/bldcmotor/Libraries/CMSIS/Include\core_cm0.h **** #include <stdint.h>
  35:D:/DAVE IDE/4.5.0.202105191637/eclipse/workspace/bldcmotor/Libraries/CMSIS/Include\core_cm0.h **** 
  36:D:/DAVE IDE/4.5.0.202105191637/eclipse/workspace/bldcmotor/Libraries/CMSIS/Include\core_cm0.h **** #ifdef __cplusplus
  37:D:/DAVE IDE/4.5.0.202105191637/eclipse/workspace/bldcmotor/Libraries/CMSIS/Include\core_cm0.h ****  extern "C" {
  38:D:/DAVE IDE/4.5.0.202105191637/eclipse/workspace/bldcmotor/Libraries/CMSIS/Include\core_cm0.h **** #endif
  39:D:/DAVE IDE/4.5.0.202105191637/eclipse/workspace/bldcmotor/Libraries/CMSIS/Include\core_cm0.h **** 
  40:D:/DAVE IDE/4.5.0.202105191637/eclipse/workspace/bldcmotor/Libraries/CMSIS/Include\core_cm0.h **** /**
  41:D:/DAVE IDE/4.5.0.202105191637/eclipse/workspace/bldcmotor/Libraries/CMSIS/Include\core_cm0.h ****   \page CMSIS_MISRA_Exceptions  MISRA-C:2004 Compliance Exceptions
  42:D:/DAVE IDE/4.5.0.202105191637/eclipse/workspace/bldcmotor/Libraries/CMSIS/Include\core_cm0.h ****   CMSIS violates the following MISRA-C:2004 rules:
  43:D:/DAVE IDE/4.5.0.202105191637/eclipse/workspace/bldcmotor/Libraries/CMSIS/Include\core_cm0.h **** 
  44:D:/DAVE IDE/4.5.0.202105191637/eclipse/workspace/bldcmotor/Libraries/CMSIS/Include\core_cm0.h ****    \li Required Rule 8.5, object/function definition in header file.<br>
  45:D:/DAVE IDE/4.5.0.202105191637/eclipse/workspace/bldcmotor/Libraries/CMSIS/Include\core_cm0.h ****      Function definitions in header files are used to allow 'inlining'.
  46:D:/DAVE IDE/4.5.0.202105191637/eclipse/workspace/bldcmotor/Libraries/CMSIS/Include\core_cm0.h **** 
  47:D:/DAVE IDE/4.5.0.202105191637/eclipse/workspace/bldcmotor/Libraries/CMSIS/Include\core_cm0.h ****    \li Required Rule 18.4, declaration of union type or object of union type: '{...}'.<br>
  48:D:/DAVE IDE/4.5.0.202105191637/eclipse/workspace/bldcmotor/Libraries/CMSIS/Include\core_cm0.h ****      Unions are used for effective representation of core registers.
  49:D:/DAVE IDE/4.5.0.202105191637/eclipse/workspace/bldcmotor/Libraries/CMSIS/Include\core_cm0.h **** 
  50:D:/DAVE IDE/4.5.0.202105191637/eclipse/workspace/bldcmotor/Libraries/CMSIS/Include\core_cm0.h ****    \li Advisory Rule 19.7, Function-like macro defined.<br>
  51:D:/DAVE IDE/4.5.0.202105191637/eclipse/workspace/bldcmotor/Libraries/CMSIS/Include\core_cm0.h ****      Function-like macros are used to allow more efficient code.
  52:D:/DAVE IDE/4.5.0.202105191637/eclipse/workspace/bldcmotor/Libraries/CMSIS/Include\core_cm0.h ****  */
  53:D:/DAVE IDE/4.5.0.202105191637/eclipse/workspace/bldcmotor/Libraries/CMSIS/Include\core_cm0.h **** 
  54:D:/DAVE IDE/4.5.0.202105191637/eclipse/workspace/bldcmotor/Libraries/CMSIS/Include\core_cm0.h **** 
  55:D:/DAVE IDE/4.5.0.202105191637/eclipse/workspace/bldcmotor/Libraries/CMSIS/Include\core_cm0.h **** /*******************************************************************************
  56:D:/DAVE IDE/4.5.0.202105191637/eclipse/workspace/bldcmotor/Libraries/CMSIS/Include\core_cm0.h ****  *                 CMSIS definitions
  57:D:/DAVE IDE/4.5.0.202105191637/eclipse/workspace/bldcmotor/Libraries/CMSIS/Include\core_cm0.h ****  ******************************************************************************/
  58:D:/DAVE IDE/4.5.0.202105191637/eclipse/workspace/bldcmotor/Libraries/CMSIS/Include\core_cm0.h **** /**
  59:D:/DAVE IDE/4.5.0.202105191637/eclipse/workspace/bldcmotor/Libraries/CMSIS/Include\core_cm0.h ****   \ingroup Cortex_M0
  60:D:/DAVE IDE/4.5.0.202105191637/eclipse/workspace/bldcmotor/Libraries/CMSIS/Include\core_cm0.h ****   @{
  61:D:/DAVE IDE/4.5.0.202105191637/eclipse/workspace/bldcmotor/Libraries/CMSIS/Include\core_cm0.h ****  */
  62:D:/DAVE IDE/4.5.0.202105191637/eclipse/workspace/bldcmotor/Libraries/CMSIS/Include\core_cm0.h **** 
  63:D:/DAVE IDE/4.5.0.202105191637/eclipse/workspace/bldcmotor/Libraries/CMSIS/Include\core_cm0.h **** #include "cmsis_version.h"
  64:D:/DAVE IDE/4.5.0.202105191637/eclipse/workspace/bldcmotor/Libraries/CMSIS/Include\core_cm0.h ****  
  65:D:/DAVE IDE/4.5.0.202105191637/eclipse/workspace/bldcmotor/Libraries/CMSIS/Include\core_cm0.h **** /*  CMSIS CM0 definitions */
  66:D:/DAVE IDE/4.5.0.202105191637/eclipse/workspace/bldcmotor/Libraries/CMSIS/Include\core_cm0.h **** #define __CM0_CMSIS_VERSION_MAIN  (__CM_CMSIS_VERSION_MAIN)              /*!< \deprecated [31:16] C
  67:D:/DAVE IDE/4.5.0.202105191637/eclipse/workspace/bldcmotor/Libraries/CMSIS/Include\core_cm0.h **** #define __CM0_CMSIS_VERSION_SUB   (__CM_CMSIS_VERSION_SUB)               /*!< \deprecated [15:0]  C
  68:D:/DAVE IDE/4.5.0.202105191637/eclipse/workspace/bldcmotor/Libraries/CMSIS/Include\core_cm0.h **** #define __CM0_CMSIS_VERSION       ((__CM0_CMSIS_VERSION_MAIN << 16U) | \
  69:D:/DAVE IDE/4.5.0.202105191637/eclipse/workspace/bldcmotor/Libraries/CMSIS/Include\core_cm0.h ****                                     __CM0_CMSIS_VERSION_SUB           )  /*!< \deprecated CMSIS HAL
  70:D:/DAVE IDE/4.5.0.202105191637/eclipse/workspace/bldcmotor/Libraries/CMSIS/Include\core_cm0.h **** 
  71:D:/DAVE IDE/4.5.0.202105191637/eclipse/workspace/bldcmotor/Libraries/CMSIS/Include\core_cm0.h **** #define __CORTEX_M                (0U)                                   /*!< Cortex-M Core */
  72:D:/DAVE IDE/4.5.0.202105191637/eclipse/workspace/bldcmotor/Libraries/CMSIS/Include\core_cm0.h **** 
  73:D:/DAVE IDE/4.5.0.202105191637/eclipse/workspace/bldcmotor/Libraries/CMSIS/Include\core_cm0.h **** /** __FPU_USED indicates whether an FPU is used or not.
  74:D:/DAVE IDE/4.5.0.202105191637/eclipse/workspace/bldcmotor/Libraries/CMSIS/Include\core_cm0.h ****     This core does not support an FPU at all
  75:D:/DAVE IDE/4.5.0.202105191637/eclipse/workspace/bldcmotor/Libraries/CMSIS/Include\core_cm0.h **** */
  76:D:/DAVE IDE/4.5.0.202105191637/eclipse/workspace/bldcmotor/Libraries/CMSIS/Include\core_cm0.h **** #define __FPU_USED       0U
  77:D:/DAVE IDE/4.5.0.202105191637/eclipse/workspace/bldcmotor/Libraries/CMSIS/Include\core_cm0.h **** 
  78:D:/DAVE IDE/4.5.0.202105191637/eclipse/workspace/bldcmotor/Libraries/CMSIS/Include\core_cm0.h **** #if defined ( __CC_ARM )
  79:D:/DAVE IDE/4.5.0.202105191637/eclipse/workspace/bldcmotor/Libraries/CMSIS/Include\core_cm0.h ****   #if defined __TARGET_FPU_VFP
  80:D:/DAVE IDE/4.5.0.202105191637/eclipse/workspace/bldcmotor/Libraries/CMSIS/Include\core_cm0.h ****     #error "Compiler generates FPU instructions for a device without an FPU (check __FPU_PRESENT)"
  81:D:/DAVE IDE/4.5.0.202105191637/eclipse/workspace/bldcmotor/Libraries/CMSIS/Include\core_cm0.h ****   #endif
  82:D:/DAVE IDE/4.5.0.202105191637/eclipse/workspace/bldcmotor/Libraries/CMSIS/Include\core_cm0.h **** 
  83:D:/DAVE IDE/4.5.0.202105191637/eclipse/workspace/bldcmotor/Libraries/CMSIS/Include\core_cm0.h **** #elif defined (__ARMCC_VERSION) && (__ARMCC_VERSION >= 6010050)
  84:D:/DAVE IDE/4.5.0.202105191637/eclipse/workspace/bldcmotor/Libraries/CMSIS/Include\core_cm0.h ****   #if defined __ARM_FP
  85:D:/DAVE IDE/4.5.0.202105191637/eclipse/workspace/bldcmotor/Libraries/CMSIS/Include\core_cm0.h ****     #error "Compiler generates FPU instructions for a device without an FPU (check __FPU_PRESENT)"
  86:D:/DAVE IDE/4.5.0.202105191637/eclipse/workspace/bldcmotor/Libraries/CMSIS/Include\core_cm0.h ****   #endif
  87:D:/DAVE IDE/4.5.0.202105191637/eclipse/workspace/bldcmotor/Libraries/CMSIS/Include\core_cm0.h **** 
  88:D:/DAVE IDE/4.5.0.202105191637/eclipse/workspace/bldcmotor/Libraries/CMSIS/Include\core_cm0.h **** #elif defined ( __GNUC__ )
  89:D:/DAVE IDE/4.5.0.202105191637/eclipse/workspace/bldcmotor/Libraries/CMSIS/Include\core_cm0.h ****   #if defined (__VFP_FP__) && !defined(__SOFTFP__)
  90:D:/DAVE IDE/4.5.0.202105191637/eclipse/workspace/bldcmotor/Libraries/CMSIS/Include\core_cm0.h ****     #error "Compiler generates FPU instructions for a device without an FPU (check __FPU_PRESENT)"
  91:D:/DAVE IDE/4.5.0.202105191637/eclipse/workspace/bldcmotor/Libraries/CMSIS/Include\core_cm0.h ****   #endif
  92:D:/DAVE IDE/4.5.0.202105191637/eclipse/workspace/bldcmotor/Libraries/CMSIS/Include\core_cm0.h **** 
  93:D:/DAVE IDE/4.5.0.202105191637/eclipse/workspace/bldcmotor/Libraries/CMSIS/Include\core_cm0.h **** #elif defined ( __ICCARM__ )
  94:D:/DAVE IDE/4.5.0.202105191637/eclipse/workspace/bldcmotor/Libraries/CMSIS/Include\core_cm0.h ****   #if defined __ARMVFP__
  95:D:/DAVE IDE/4.5.0.202105191637/eclipse/workspace/bldcmotor/Libraries/CMSIS/Include\core_cm0.h ****     #error "Compiler generates FPU instructions for a device without an FPU (check __FPU_PRESENT)"
  96:D:/DAVE IDE/4.5.0.202105191637/eclipse/workspace/bldcmotor/Libraries/CMSIS/Include\core_cm0.h ****   #endif
  97:D:/DAVE IDE/4.5.0.202105191637/eclipse/workspace/bldcmotor/Libraries/CMSIS/Include\core_cm0.h **** 
  98:D:/DAVE IDE/4.5.0.202105191637/eclipse/workspace/bldcmotor/Libraries/CMSIS/Include\core_cm0.h **** #elif defined ( __TI_ARM__ )
  99:D:/DAVE IDE/4.5.0.202105191637/eclipse/workspace/bldcmotor/Libraries/CMSIS/Include\core_cm0.h ****   #if defined __TI_VFP_SUPPORT__
 100:D:/DAVE IDE/4.5.0.202105191637/eclipse/workspace/bldcmotor/Libraries/CMSIS/Include\core_cm0.h ****     #error "Compiler generates FPU instructions for a device without an FPU (check __FPU_PRESENT)"
 101:D:/DAVE IDE/4.5.0.202105191637/eclipse/workspace/bldcmotor/Libraries/CMSIS/Include\core_cm0.h ****   #endif
 102:D:/DAVE IDE/4.5.0.202105191637/eclipse/workspace/bldcmotor/Libraries/CMSIS/Include\core_cm0.h **** 
 103:D:/DAVE IDE/4.5.0.202105191637/eclipse/workspace/bldcmotor/Libraries/CMSIS/Include\core_cm0.h **** #elif defined ( __TASKING__ )
 104:D:/DAVE IDE/4.5.0.202105191637/eclipse/workspace/bldcmotor/Libraries/CMSIS/Include\core_cm0.h ****   #if defined __FPU_VFP__
 105:D:/DAVE IDE/4.5.0.202105191637/eclipse/workspace/bldcmotor/Libraries/CMSIS/Include\core_cm0.h ****     #error "Compiler generates FPU instructions for a device without an FPU (check __FPU_PRESENT)"
 106:D:/DAVE IDE/4.5.0.202105191637/eclipse/workspace/bldcmotor/Libraries/CMSIS/Include\core_cm0.h ****   #endif
 107:D:/DAVE IDE/4.5.0.202105191637/eclipse/workspace/bldcmotor/Libraries/CMSIS/Include\core_cm0.h **** 
 108:D:/DAVE IDE/4.5.0.202105191637/eclipse/workspace/bldcmotor/Libraries/CMSIS/Include\core_cm0.h **** #elif defined ( __CSMC__ )
 109:D:/DAVE IDE/4.5.0.202105191637/eclipse/workspace/bldcmotor/Libraries/CMSIS/Include\core_cm0.h ****   #if ( __CSMC__ & 0x400U)
 110:D:/DAVE IDE/4.5.0.202105191637/eclipse/workspace/bldcmotor/Libraries/CMSIS/Include\core_cm0.h ****     #error "Compiler generates FPU instructions for a device without an FPU (check __FPU_PRESENT)"
 111:D:/DAVE IDE/4.5.0.202105191637/eclipse/workspace/bldcmotor/Libraries/CMSIS/Include\core_cm0.h ****   #endif
 112:D:/DAVE IDE/4.5.0.202105191637/eclipse/workspace/bldcmotor/Libraries/CMSIS/Include\core_cm0.h **** 
 113:D:/DAVE IDE/4.5.0.202105191637/eclipse/workspace/bldcmotor/Libraries/CMSIS/Include\core_cm0.h **** #endif
 114:D:/DAVE IDE/4.5.0.202105191637/eclipse/workspace/bldcmotor/Libraries/CMSIS/Include\core_cm0.h **** 
 115:D:/DAVE IDE/4.5.0.202105191637/eclipse/workspace/bldcmotor/Libraries/CMSIS/Include\core_cm0.h **** #include "cmsis_compiler.h"               /* CMSIS compiler specific defines */
 116:D:/DAVE IDE/4.5.0.202105191637/eclipse/workspace/bldcmotor/Libraries/CMSIS/Include\core_cm0.h **** 
 117:D:/DAVE IDE/4.5.0.202105191637/eclipse/workspace/bldcmotor/Libraries/CMSIS/Include\core_cm0.h **** 
 118:D:/DAVE IDE/4.5.0.202105191637/eclipse/workspace/bldcmotor/Libraries/CMSIS/Include\core_cm0.h **** #ifdef __cplusplus
 119:D:/DAVE IDE/4.5.0.202105191637/eclipse/workspace/bldcmotor/Libraries/CMSIS/Include\core_cm0.h **** }
 120:D:/DAVE IDE/4.5.0.202105191637/eclipse/workspace/bldcmotor/Libraries/CMSIS/Include\core_cm0.h **** #endif
 121:D:/DAVE IDE/4.5.0.202105191637/eclipse/workspace/bldcmotor/Libraries/CMSIS/Include\core_cm0.h **** 
 122:D:/DAVE IDE/4.5.0.202105191637/eclipse/workspace/bldcmotor/Libraries/CMSIS/Include\core_cm0.h **** #endif /* __CORE_CM0_H_GENERIC */
 123:D:/DAVE IDE/4.5.0.202105191637/eclipse/workspace/bldcmotor/Libraries/CMSIS/Include\core_cm0.h **** 
 124:D:/DAVE IDE/4.5.0.202105191637/eclipse/workspace/bldcmotor/Libraries/CMSIS/Include\core_cm0.h **** #ifndef __CMSIS_GENERIC
 125:D:/DAVE IDE/4.5.0.202105191637/eclipse/workspace/bldcmotor/Libraries/CMSIS/Include\core_cm0.h **** 
 126:D:/DAVE IDE/4.5.0.202105191637/eclipse/workspace/bldcmotor/Libraries/CMSIS/Include\core_cm0.h **** #ifndef __CORE_CM0_H_DEPENDANT
 127:D:/DAVE IDE/4.5.0.202105191637/eclipse/workspace/bldcmotor/Libraries/CMSIS/Include\core_cm0.h **** #define __CORE_CM0_H_DEPENDANT
 128:D:/DAVE IDE/4.5.0.202105191637/eclipse/workspace/bldcmotor/Libraries/CMSIS/Include\core_cm0.h **** 
 129:D:/DAVE IDE/4.5.0.202105191637/eclipse/workspace/bldcmotor/Libraries/CMSIS/Include\core_cm0.h **** #ifdef __cplusplus
 130:D:/DAVE IDE/4.5.0.202105191637/eclipse/workspace/bldcmotor/Libraries/CMSIS/Include\core_cm0.h ****  extern "C" {
 131:D:/DAVE IDE/4.5.0.202105191637/eclipse/workspace/bldcmotor/Libraries/CMSIS/Include\core_cm0.h **** #endif
 132:D:/DAVE IDE/4.5.0.202105191637/eclipse/workspace/bldcmotor/Libraries/CMSIS/Include\core_cm0.h **** 
 133:D:/DAVE IDE/4.5.0.202105191637/eclipse/workspace/bldcmotor/Libraries/CMSIS/Include\core_cm0.h **** /* check device defines and use defaults */
 134:D:/DAVE IDE/4.5.0.202105191637/eclipse/workspace/bldcmotor/Libraries/CMSIS/Include\core_cm0.h **** #if defined __CHECK_DEVICE_DEFINES
 135:D:/DAVE IDE/4.5.0.202105191637/eclipse/workspace/bldcmotor/Libraries/CMSIS/Include\core_cm0.h ****   #ifndef __CM0_REV
 136:D:/DAVE IDE/4.5.0.202105191637/eclipse/workspace/bldcmotor/Libraries/CMSIS/Include\core_cm0.h ****     #define __CM0_REV               0x0000U
 137:D:/DAVE IDE/4.5.0.202105191637/eclipse/workspace/bldcmotor/Libraries/CMSIS/Include\core_cm0.h ****     #warning "__CM0_REV not defined in device header file; using default!"
 138:D:/DAVE IDE/4.5.0.202105191637/eclipse/workspace/bldcmotor/Libraries/CMSIS/Include\core_cm0.h ****   #endif
 139:D:/DAVE IDE/4.5.0.202105191637/eclipse/workspace/bldcmotor/Libraries/CMSIS/Include\core_cm0.h **** 
 140:D:/DAVE IDE/4.5.0.202105191637/eclipse/workspace/bldcmotor/Libraries/CMSIS/Include\core_cm0.h ****   #ifndef __NVIC_PRIO_BITS
 141:D:/DAVE IDE/4.5.0.202105191637/eclipse/workspace/bldcmotor/Libraries/CMSIS/Include\core_cm0.h ****     #define __NVIC_PRIO_BITS          2U
 142:D:/DAVE IDE/4.5.0.202105191637/eclipse/workspace/bldcmotor/Libraries/CMSIS/Include\core_cm0.h ****     #warning "__NVIC_PRIO_BITS not defined in device header file; using default!"
 143:D:/DAVE IDE/4.5.0.202105191637/eclipse/workspace/bldcmotor/Libraries/CMSIS/Include\core_cm0.h ****   #endif
 144:D:/DAVE IDE/4.5.0.202105191637/eclipse/workspace/bldcmotor/Libraries/CMSIS/Include\core_cm0.h **** 
 145:D:/DAVE IDE/4.5.0.202105191637/eclipse/workspace/bldcmotor/Libraries/CMSIS/Include\core_cm0.h ****   #ifndef __Vendor_SysTickConfig
 146:D:/DAVE IDE/4.5.0.202105191637/eclipse/workspace/bldcmotor/Libraries/CMSIS/Include\core_cm0.h ****     #define __Vendor_SysTickConfig    0U
 147:D:/DAVE IDE/4.5.0.202105191637/eclipse/workspace/bldcmotor/Libraries/CMSIS/Include\core_cm0.h ****     #warning "__Vendor_SysTickConfig not defined in device header file; using default!"
 148:D:/DAVE IDE/4.5.0.202105191637/eclipse/workspace/bldcmotor/Libraries/CMSIS/Include\core_cm0.h ****   #endif
 149:D:/DAVE IDE/4.5.0.202105191637/eclipse/workspace/bldcmotor/Libraries/CMSIS/Include\core_cm0.h **** #endif
 150:D:/DAVE IDE/4.5.0.202105191637/eclipse/workspace/bldcmotor/Libraries/CMSIS/Include\core_cm0.h **** 
 151:D:/DAVE IDE/4.5.0.202105191637/eclipse/workspace/bldcmotor/Libraries/CMSIS/Include\core_cm0.h **** /* IO definitions (access restrictions to peripheral registers) */
 152:D:/DAVE IDE/4.5.0.202105191637/eclipse/workspace/bldcmotor/Libraries/CMSIS/Include\core_cm0.h **** /**
 153:D:/DAVE IDE/4.5.0.202105191637/eclipse/workspace/bldcmotor/Libraries/CMSIS/Include\core_cm0.h ****     \defgroup CMSIS_glob_defs CMSIS Global Defines
 154:D:/DAVE IDE/4.5.0.202105191637/eclipse/workspace/bldcmotor/Libraries/CMSIS/Include\core_cm0.h **** 
 155:D:/DAVE IDE/4.5.0.202105191637/eclipse/workspace/bldcmotor/Libraries/CMSIS/Include\core_cm0.h ****     <strong>IO Type Qualifiers</strong> are used
 156:D:/DAVE IDE/4.5.0.202105191637/eclipse/workspace/bldcmotor/Libraries/CMSIS/Include\core_cm0.h ****     \li to specify the access to peripheral variables.
 157:D:/DAVE IDE/4.5.0.202105191637/eclipse/workspace/bldcmotor/Libraries/CMSIS/Include\core_cm0.h ****     \li for automatic generation of peripheral register debug information.
 158:D:/DAVE IDE/4.5.0.202105191637/eclipse/workspace/bldcmotor/Libraries/CMSIS/Include\core_cm0.h **** */
 159:D:/DAVE IDE/4.5.0.202105191637/eclipse/workspace/bldcmotor/Libraries/CMSIS/Include\core_cm0.h **** #ifdef __cplusplus
 160:D:/DAVE IDE/4.5.0.202105191637/eclipse/workspace/bldcmotor/Libraries/CMSIS/Include\core_cm0.h ****   #define   __I     volatile             /*!< Defines 'read only' permissions */
 161:D:/DAVE IDE/4.5.0.202105191637/eclipse/workspace/bldcmotor/Libraries/CMSIS/Include\core_cm0.h **** #else
 162:D:/DAVE IDE/4.5.0.202105191637/eclipse/workspace/bldcmotor/Libraries/CMSIS/Include\core_cm0.h ****   #define   __I     volatile const       /*!< Defines 'read only' permissions */
 163:D:/DAVE IDE/4.5.0.202105191637/eclipse/workspace/bldcmotor/Libraries/CMSIS/Include\core_cm0.h **** #endif
 164:D:/DAVE IDE/4.5.0.202105191637/eclipse/workspace/bldcmotor/Libraries/CMSIS/Include\core_cm0.h **** #define     __O     volatile             /*!< Defines 'write only' permissions */
 165:D:/DAVE IDE/4.5.0.202105191637/eclipse/workspace/bldcmotor/Libraries/CMSIS/Include\core_cm0.h **** #define     __IO    volatile             /*!< Defines 'read / write' permissions */
 166:D:/DAVE IDE/4.5.0.202105191637/eclipse/workspace/bldcmotor/Libraries/CMSIS/Include\core_cm0.h **** 
 167:D:/DAVE IDE/4.5.0.202105191637/eclipse/workspace/bldcmotor/Libraries/CMSIS/Include\core_cm0.h **** /* following defines should be used for structure members */
 168:D:/DAVE IDE/4.5.0.202105191637/eclipse/workspace/bldcmotor/Libraries/CMSIS/Include\core_cm0.h **** #define     __IM     volatile const      /*! Defines 'read only' structure member permissions */
 169:D:/DAVE IDE/4.5.0.202105191637/eclipse/workspace/bldcmotor/Libraries/CMSIS/Include\core_cm0.h **** #define     __OM     volatile            /*! Defines 'write only' structure member permissions */
 170:D:/DAVE IDE/4.5.0.202105191637/eclipse/workspace/bldcmotor/Libraries/CMSIS/Include\core_cm0.h **** #define     __IOM    volatile            /*! Defines 'read / write' structure member permissions */
 171:D:/DAVE IDE/4.5.0.202105191637/eclipse/workspace/bldcmotor/Libraries/CMSIS/Include\core_cm0.h **** 
 172:D:/DAVE IDE/4.5.0.202105191637/eclipse/workspace/bldcmotor/Libraries/CMSIS/Include\core_cm0.h **** /*@} end of group Cortex_M0 */
 173:D:/DAVE IDE/4.5.0.202105191637/eclipse/workspace/bldcmotor/Libraries/CMSIS/Include\core_cm0.h **** 
 174:D:/DAVE IDE/4.5.0.202105191637/eclipse/workspace/bldcmotor/Libraries/CMSIS/Include\core_cm0.h **** 
 175:D:/DAVE IDE/4.5.0.202105191637/eclipse/workspace/bldcmotor/Libraries/CMSIS/Include\core_cm0.h **** 
 176:D:/DAVE IDE/4.5.0.202105191637/eclipse/workspace/bldcmotor/Libraries/CMSIS/Include\core_cm0.h **** /*******************************************************************************
 177:D:/DAVE IDE/4.5.0.202105191637/eclipse/workspace/bldcmotor/Libraries/CMSIS/Include\core_cm0.h ****  *                 Register Abstraction
 178:D:/DAVE IDE/4.5.0.202105191637/eclipse/workspace/bldcmotor/Libraries/CMSIS/Include\core_cm0.h ****   Core Register contain:
 179:D:/DAVE IDE/4.5.0.202105191637/eclipse/workspace/bldcmotor/Libraries/CMSIS/Include\core_cm0.h ****   - Core Register
 180:D:/DAVE IDE/4.5.0.202105191637/eclipse/workspace/bldcmotor/Libraries/CMSIS/Include\core_cm0.h ****   - Core NVIC Register
 181:D:/DAVE IDE/4.5.0.202105191637/eclipse/workspace/bldcmotor/Libraries/CMSIS/Include\core_cm0.h ****   - Core SCB Register
 182:D:/DAVE IDE/4.5.0.202105191637/eclipse/workspace/bldcmotor/Libraries/CMSIS/Include\core_cm0.h ****   - Core SysTick Register
 183:D:/DAVE IDE/4.5.0.202105191637/eclipse/workspace/bldcmotor/Libraries/CMSIS/Include\core_cm0.h ****  ******************************************************************************/
 184:D:/DAVE IDE/4.5.0.202105191637/eclipse/workspace/bldcmotor/Libraries/CMSIS/Include\core_cm0.h **** /**
 185:D:/DAVE IDE/4.5.0.202105191637/eclipse/workspace/bldcmotor/Libraries/CMSIS/Include\core_cm0.h ****   \defgroup CMSIS_core_register Defines and Type Definitions
 186:D:/DAVE IDE/4.5.0.202105191637/eclipse/workspace/bldcmotor/Libraries/CMSIS/Include\core_cm0.h ****   \brief Type definitions and defines for Cortex-M processor based devices.
 187:D:/DAVE IDE/4.5.0.202105191637/eclipse/workspace/bldcmotor/Libraries/CMSIS/Include\core_cm0.h **** */
 188:D:/DAVE IDE/4.5.0.202105191637/eclipse/workspace/bldcmotor/Libraries/CMSIS/Include\core_cm0.h **** 
 189:D:/DAVE IDE/4.5.0.202105191637/eclipse/workspace/bldcmotor/Libraries/CMSIS/Include\core_cm0.h **** /**
 190:D:/DAVE IDE/4.5.0.202105191637/eclipse/workspace/bldcmotor/Libraries/CMSIS/Include\core_cm0.h ****   \ingroup    CMSIS_core_register
 191:D:/DAVE IDE/4.5.0.202105191637/eclipse/workspace/bldcmotor/Libraries/CMSIS/Include\core_cm0.h ****   \defgroup   CMSIS_CORE  Status and Control Registers
 192:D:/DAVE IDE/4.5.0.202105191637/eclipse/workspace/bldcmotor/Libraries/CMSIS/Include\core_cm0.h ****   \brief      Core Register type definitions.
 193:D:/DAVE IDE/4.5.0.202105191637/eclipse/workspace/bldcmotor/Libraries/CMSIS/Include\core_cm0.h ****   @{
 194:D:/DAVE IDE/4.5.0.202105191637/eclipse/workspace/bldcmotor/Libraries/CMSIS/Include\core_cm0.h ****  */
 195:D:/DAVE IDE/4.5.0.202105191637/eclipse/workspace/bldcmotor/Libraries/CMSIS/Include\core_cm0.h **** 
 196:D:/DAVE IDE/4.5.0.202105191637/eclipse/workspace/bldcmotor/Libraries/CMSIS/Include\core_cm0.h **** /**
 197:D:/DAVE IDE/4.5.0.202105191637/eclipse/workspace/bldcmotor/Libraries/CMSIS/Include\core_cm0.h ****   \brief  Union type to access the Application Program Status Register (APSR).
 198:D:/DAVE IDE/4.5.0.202105191637/eclipse/workspace/bldcmotor/Libraries/CMSIS/Include\core_cm0.h ****  */
 199:D:/DAVE IDE/4.5.0.202105191637/eclipse/workspace/bldcmotor/Libraries/CMSIS/Include\core_cm0.h **** typedef union
 200:D:/DAVE IDE/4.5.0.202105191637/eclipse/workspace/bldcmotor/Libraries/CMSIS/Include\core_cm0.h **** {
 201:D:/DAVE IDE/4.5.0.202105191637/eclipse/workspace/bldcmotor/Libraries/CMSIS/Include\core_cm0.h ****   struct
 202:D:/DAVE IDE/4.5.0.202105191637/eclipse/workspace/bldcmotor/Libraries/CMSIS/Include\core_cm0.h ****   {
 203:D:/DAVE IDE/4.5.0.202105191637/eclipse/workspace/bldcmotor/Libraries/CMSIS/Include\core_cm0.h ****     uint32_t _reserved0:28;              /*!< bit:  0..27  Reserved */
 204:D:/DAVE IDE/4.5.0.202105191637/eclipse/workspace/bldcmotor/Libraries/CMSIS/Include\core_cm0.h ****     uint32_t V:1;                        /*!< bit:     28  Overflow condition code flag */
 205:D:/DAVE IDE/4.5.0.202105191637/eclipse/workspace/bldcmotor/Libraries/CMSIS/Include\core_cm0.h ****     uint32_t C:1;                        /*!< bit:     29  Carry condition code flag */
 206:D:/DAVE IDE/4.5.0.202105191637/eclipse/workspace/bldcmotor/Libraries/CMSIS/Include\core_cm0.h ****     uint32_t Z:1;                        /*!< bit:     30  Zero condition code flag */
 207:D:/DAVE IDE/4.5.0.202105191637/eclipse/workspace/bldcmotor/Libraries/CMSIS/Include\core_cm0.h ****     uint32_t N:1;                        /*!< bit:     31  Negative condition code flag */
 208:D:/DAVE IDE/4.5.0.202105191637/eclipse/workspace/bldcmotor/Libraries/CMSIS/Include\core_cm0.h ****   } b;                                   /*!< Structure used for bit  access */
 209:D:/DAVE IDE/4.5.0.202105191637/eclipse/workspace/bldcmotor/Libraries/CMSIS/Include\core_cm0.h ****   uint32_t w;                            /*!< Type      used for word access */
 210:D:/DAVE IDE/4.5.0.202105191637/eclipse/workspace/bldcmotor/Libraries/CMSIS/Include\core_cm0.h **** } APSR_Type;
 211:D:/DAVE IDE/4.5.0.202105191637/eclipse/workspace/bldcmotor/Libraries/CMSIS/Include\core_cm0.h **** 
 212:D:/DAVE IDE/4.5.0.202105191637/eclipse/workspace/bldcmotor/Libraries/CMSIS/Include\core_cm0.h **** /* APSR Register Definitions */
 213:D:/DAVE IDE/4.5.0.202105191637/eclipse/workspace/bldcmotor/Libraries/CMSIS/Include\core_cm0.h **** #define APSR_N_Pos                         31U                                            /*!< APSR
 214:D:/DAVE IDE/4.5.0.202105191637/eclipse/workspace/bldcmotor/Libraries/CMSIS/Include\core_cm0.h **** #define APSR_N_Msk                         (1UL << APSR_N_Pos)                            /*!< APSR
 215:D:/DAVE IDE/4.5.0.202105191637/eclipse/workspace/bldcmotor/Libraries/CMSIS/Include\core_cm0.h **** 
 216:D:/DAVE IDE/4.5.0.202105191637/eclipse/workspace/bldcmotor/Libraries/CMSIS/Include\core_cm0.h **** #define APSR_Z_Pos                         30U                                            /*!< APSR
 217:D:/DAVE IDE/4.5.0.202105191637/eclipse/workspace/bldcmotor/Libraries/CMSIS/Include\core_cm0.h **** #define APSR_Z_Msk                         (1UL << APSR_Z_Pos)                            /*!< APSR
 218:D:/DAVE IDE/4.5.0.202105191637/eclipse/workspace/bldcmotor/Libraries/CMSIS/Include\core_cm0.h **** 
 219:D:/DAVE IDE/4.5.0.202105191637/eclipse/workspace/bldcmotor/Libraries/CMSIS/Include\core_cm0.h **** #define APSR_C_Pos                         29U                                            /*!< APSR
 220:D:/DAVE IDE/4.5.0.202105191637/eclipse/workspace/bldcmotor/Libraries/CMSIS/Include\core_cm0.h **** #define APSR_C_Msk                         (1UL << APSR_C_Pos)                            /*!< APSR
 221:D:/DAVE IDE/4.5.0.202105191637/eclipse/workspace/bldcmotor/Libraries/CMSIS/Include\core_cm0.h **** 
 222:D:/DAVE IDE/4.5.0.202105191637/eclipse/workspace/bldcmotor/Libraries/CMSIS/Include\core_cm0.h **** #define APSR_V_Pos                         28U                                            /*!< APSR
 223:D:/DAVE IDE/4.5.0.202105191637/eclipse/workspace/bldcmotor/Libraries/CMSIS/Include\core_cm0.h **** #define APSR_V_Msk                         (1UL << APSR_V_Pos)                            /*!< APSR
 224:D:/DAVE IDE/4.5.0.202105191637/eclipse/workspace/bldcmotor/Libraries/CMSIS/Include\core_cm0.h **** 
 225:D:/DAVE IDE/4.5.0.202105191637/eclipse/workspace/bldcmotor/Libraries/CMSIS/Include\core_cm0.h **** 
 226:D:/DAVE IDE/4.5.0.202105191637/eclipse/workspace/bldcmotor/Libraries/CMSIS/Include\core_cm0.h **** /**
 227:D:/DAVE IDE/4.5.0.202105191637/eclipse/workspace/bldcmotor/Libraries/CMSIS/Include\core_cm0.h ****   \brief  Union type to access the Interrupt Program Status Register (IPSR).
 228:D:/DAVE IDE/4.5.0.202105191637/eclipse/workspace/bldcmotor/Libraries/CMSIS/Include\core_cm0.h ****  */
 229:D:/DAVE IDE/4.5.0.202105191637/eclipse/workspace/bldcmotor/Libraries/CMSIS/Include\core_cm0.h **** typedef union
 230:D:/DAVE IDE/4.5.0.202105191637/eclipse/workspace/bldcmotor/Libraries/CMSIS/Include\core_cm0.h **** {
 231:D:/DAVE IDE/4.5.0.202105191637/eclipse/workspace/bldcmotor/Libraries/CMSIS/Include\core_cm0.h ****   struct
 232:D:/DAVE IDE/4.5.0.202105191637/eclipse/workspace/bldcmotor/Libraries/CMSIS/Include\core_cm0.h ****   {
 233:D:/DAVE IDE/4.5.0.202105191637/eclipse/workspace/bldcmotor/Libraries/CMSIS/Include\core_cm0.h ****     uint32_t ISR:9;                      /*!< bit:  0.. 8  Exception number */
 234:D:/DAVE IDE/4.5.0.202105191637/eclipse/workspace/bldcmotor/Libraries/CMSIS/Include\core_cm0.h ****     uint32_t _reserved0:23;              /*!< bit:  9..31  Reserved */
 235:D:/DAVE IDE/4.5.0.202105191637/eclipse/workspace/bldcmotor/Libraries/CMSIS/Include\core_cm0.h ****   } b;                                   /*!< Structure used for bit  access */
 236:D:/DAVE IDE/4.5.0.202105191637/eclipse/workspace/bldcmotor/Libraries/CMSIS/Include\core_cm0.h ****   uint32_t w;                            /*!< Type      used for word access */
 237:D:/DAVE IDE/4.5.0.202105191637/eclipse/workspace/bldcmotor/Libraries/CMSIS/Include\core_cm0.h **** } IPSR_Type;
 238:D:/DAVE IDE/4.5.0.202105191637/eclipse/workspace/bldcmotor/Libraries/CMSIS/Include\core_cm0.h **** 
 239:D:/DAVE IDE/4.5.0.202105191637/eclipse/workspace/bldcmotor/Libraries/CMSIS/Include\core_cm0.h **** /* IPSR Register Definitions */
 240:D:/DAVE IDE/4.5.0.202105191637/eclipse/workspace/bldcmotor/Libraries/CMSIS/Include\core_cm0.h **** #define IPSR_ISR_Pos                        0U                                            /*!< IPSR
 241:D:/DAVE IDE/4.5.0.202105191637/eclipse/workspace/bldcmotor/Libraries/CMSIS/Include\core_cm0.h **** #define IPSR_ISR_Msk                       (0x1FFUL /*<< IPSR_ISR_Pos*/)                  /*!< IPSR
 242:D:/DAVE IDE/4.5.0.202105191637/eclipse/workspace/bldcmotor/Libraries/CMSIS/Include\core_cm0.h **** 
 243:D:/DAVE IDE/4.5.0.202105191637/eclipse/workspace/bldcmotor/Libraries/CMSIS/Include\core_cm0.h **** 
 244:D:/DAVE IDE/4.5.0.202105191637/eclipse/workspace/bldcmotor/Libraries/CMSIS/Include\core_cm0.h **** /**
 245:D:/DAVE IDE/4.5.0.202105191637/eclipse/workspace/bldcmotor/Libraries/CMSIS/Include\core_cm0.h ****   \brief  Union type to access the Special-Purpose Program Status Registers (xPSR).
 246:D:/DAVE IDE/4.5.0.202105191637/eclipse/workspace/bldcmotor/Libraries/CMSIS/Include\core_cm0.h ****  */
 247:D:/DAVE IDE/4.5.0.202105191637/eclipse/workspace/bldcmotor/Libraries/CMSIS/Include\core_cm0.h **** typedef union
 248:D:/DAVE IDE/4.5.0.202105191637/eclipse/workspace/bldcmotor/Libraries/CMSIS/Include\core_cm0.h **** {
 249:D:/DAVE IDE/4.5.0.202105191637/eclipse/workspace/bldcmotor/Libraries/CMSIS/Include\core_cm0.h ****   struct
 250:D:/DAVE IDE/4.5.0.202105191637/eclipse/workspace/bldcmotor/Libraries/CMSIS/Include\core_cm0.h ****   {
 251:D:/DAVE IDE/4.5.0.202105191637/eclipse/workspace/bldcmotor/Libraries/CMSIS/Include\core_cm0.h ****     uint32_t ISR:9;                      /*!< bit:  0.. 8  Exception number */
 252:D:/DAVE IDE/4.5.0.202105191637/eclipse/workspace/bldcmotor/Libraries/CMSIS/Include\core_cm0.h ****     uint32_t _reserved0:15;              /*!< bit:  9..23  Reserved */
 253:D:/DAVE IDE/4.5.0.202105191637/eclipse/workspace/bldcmotor/Libraries/CMSIS/Include\core_cm0.h ****     uint32_t T:1;                        /*!< bit:     24  Thumb bit        (read 0) */
 254:D:/DAVE IDE/4.5.0.202105191637/eclipse/workspace/bldcmotor/Libraries/CMSIS/Include\core_cm0.h ****     uint32_t _reserved1:3;               /*!< bit: 25..27  Reserved */
 255:D:/DAVE IDE/4.5.0.202105191637/eclipse/workspace/bldcmotor/Libraries/CMSIS/Include\core_cm0.h ****     uint32_t V:1;                        /*!< bit:     28  Overflow condition code flag */
 256:D:/DAVE IDE/4.5.0.202105191637/eclipse/workspace/bldcmotor/Libraries/CMSIS/Include\core_cm0.h ****     uint32_t C:1;                        /*!< bit:     29  Carry condition code flag */
 257:D:/DAVE IDE/4.5.0.202105191637/eclipse/workspace/bldcmotor/Libraries/CMSIS/Include\core_cm0.h ****     uint32_t Z:1;                        /*!< bit:     30  Zero condition code flag */
 258:D:/DAVE IDE/4.5.0.202105191637/eclipse/workspace/bldcmotor/Libraries/CMSIS/Include\core_cm0.h ****     uint32_t N:1;                        /*!< bit:     31  Negative condition code flag */
 259:D:/DAVE IDE/4.5.0.202105191637/eclipse/workspace/bldcmotor/Libraries/CMSIS/Include\core_cm0.h ****   } b;                                   /*!< Structure used for bit  access */
 260:D:/DAVE IDE/4.5.0.202105191637/eclipse/workspace/bldcmotor/Libraries/CMSIS/Include\core_cm0.h ****   uint32_t w;                            /*!< Type      used for word access */
 261:D:/DAVE IDE/4.5.0.202105191637/eclipse/workspace/bldcmotor/Libraries/CMSIS/Include\core_cm0.h **** } xPSR_Type;
 262:D:/DAVE IDE/4.5.0.202105191637/eclipse/workspace/bldcmotor/Libraries/CMSIS/Include\core_cm0.h **** 
 263:D:/DAVE IDE/4.5.0.202105191637/eclipse/workspace/bldcmotor/Libraries/CMSIS/Include\core_cm0.h **** /* xPSR Register Definitions */
 264:D:/DAVE IDE/4.5.0.202105191637/eclipse/workspace/bldcmotor/Libraries/CMSIS/Include\core_cm0.h **** #define xPSR_N_Pos                         31U                                            /*!< xPSR
 265:D:/DAVE IDE/4.5.0.202105191637/eclipse/workspace/bldcmotor/Libraries/CMSIS/Include\core_cm0.h **** #define xPSR_N_Msk                         (1UL << xPSR_N_Pos)                            /*!< xPSR
 266:D:/DAVE IDE/4.5.0.202105191637/eclipse/workspace/bldcmotor/Libraries/CMSIS/Include\core_cm0.h **** 
 267:D:/DAVE IDE/4.5.0.202105191637/eclipse/workspace/bldcmotor/Libraries/CMSIS/Include\core_cm0.h **** #define xPSR_Z_Pos                         30U                                            /*!< xPSR
 268:D:/DAVE IDE/4.5.0.202105191637/eclipse/workspace/bldcmotor/Libraries/CMSIS/Include\core_cm0.h **** #define xPSR_Z_Msk                         (1UL << xPSR_Z_Pos)                            /*!< xPSR
 269:D:/DAVE IDE/4.5.0.202105191637/eclipse/workspace/bldcmotor/Libraries/CMSIS/Include\core_cm0.h **** 
 270:D:/DAVE IDE/4.5.0.202105191637/eclipse/workspace/bldcmotor/Libraries/CMSIS/Include\core_cm0.h **** #define xPSR_C_Pos                         29U                                            /*!< xPSR
 271:D:/DAVE IDE/4.5.0.202105191637/eclipse/workspace/bldcmotor/Libraries/CMSIS/Include\core_cm0.h **** #define xPSR_C_Msk                         (1UL << xPSR_C_Pos)                            /*!< xPSR
 272:D:/DAVE IDE/4.5.0.202105191637/eclipse/workspace/bldcmotor/Libraries/CMSIS/Include\core_cm0.h **** 
 273:D:/DAVE IDE/4.5.0.202105191637/eclipse/workspace/bldcmotor/Libraries/CMSIS/Include\core_cm0.h **** #define xPSR_V_Pos                         28U                                            /*!< xPSR
 274:D:/DAVE IDE/4.5.0.202105191637/eclipse/workspace/bldcmotor/Libraries/CMSIS/Include\core_cm0.h **** #define xPSR_V_Msk                         (1UL << xPSR_V_Pos)                            /*!< xPSR
 275:D:/DAVE IDE/4.5.0.202105191637/eclipse/workspace/bldcmotor/Libraries/CMSIS/Include\core_cm0.h **** 
 276:D:/DAVE IDE/4.5.0.202105191637/eclipse/workspace/bldcmotor/Libraries/CMSIS/Include\core_cm0.h **** #define xPSR_T_Pos                         24U                                            /*!< xPSR
 277:D:/DAVE IDE/4.5.0.202105191637/eclipse/workspace/bldcmotor/Libraries/CMSIS/Include\core_cm0.h **** #define xPSR_T_Msk                         (1UL << xPSR_T_Pos)                            /*!< xPSR
 278:D:/DAVE IDE/4.5.0.202105191637/eclipse/workspace/bldcmotor/Libraries/CMSIS/Include\core_cm0.h **** 
 279:D:/DAVE IDE/4.5.0.202105191637/eclipse/workspace/bldcmotor/Libraries/CMSIS/Include\core_cm0.h **** #define xPSR_ISR_Pos                        0U                                            /*!< xPSR
 280:D:/DAVE IDE/4.5.0.202105191637/eclipse/workspace/bldcmotor/Libraries/CMSIS/Include\core_cm0.h **** #define xPSR_ISR_Msk                       (0x1FFUL /*<< xPSR_ISR_Pos*/)                  /*!< xPSR
 281:D:/DAVE IDE/4.5.0.202105191637/eclipse/workspace/bldcmotor/Libraries/CMSIS/Include\core_cm0.h **** 
 282:D:/DAVE IDE/4.5.0.202105191637/eclipse/workspace/bldcmotor/Libraries/CMSIS/Include\core_cm0.h **** 
 283:D:/DAVE IDE/4.5.0.202105191637/eclipse/workspace/bldcmotor/Libraries/CMSIS/Include\core_cm0.h **** /**
 284:D:/DAVE IDE/4.5.0.202105191637/eclipse/workspace/bldcmotor/Libraries/CMSIS/Include\core_cm0.h ****   \brief  Union type to access the Control Registers (CONTROL).
 285:D:/DAVE IDE/4.5.0.202105191637/eclipse/workspace/bldcmotor/Libraries/CMSIS/Include\core_cm0.h ****  */
 286:D:/DAVE IDE/4.5.0.202105191637/eclipse/workspace/bldcmotor/Libraries/CMSIS/Include\core_cm0.h **** typedef union
 287:D:/DAVE IDE/4.5.0.202105191637/eclipse/workspace/bldcmotor/Libraries/CMSIS/Include\core_cm0.h **** {
 288:D:/DAVE IDE/4.5.0.202105191637/eclipse/workspace/bldcmotor/Libraries/CMSIS/Include\core_cm0.h ****   struct
 289:D:/DAVE IDE/4.5.0.202105191637/eclipse/workspace/bldcmotor/Libraries/CMSIS/Include\core_cm0.h ****   {
 290:D:/DAVE IDE/4.5.0.202105191637/eclipse/workspace/bldcmotor/Libraries/CMSIS/Include\core_cm0.h ****     uint32_t _reserved0:1;               /*!< bit:      0  Reserved */
 291:D:/DAVE IDE/4.5.0.202105191637/eclipse/workspace/bldcmotor/Libraries/CMSIS/Include\core_cm0.h ****     uint32_t SPSEL:1;                    /*!< bit:      1  Stack to be used */
 292:D:/DAVE IDE/4.5.0.202105191637/eclipse/workspace/bldcmotor/Libraries/CMSIS/Include\core_cm0.h ****     uint32_t _reserved1:30;              /*!< bit:  2..31  Reserved */
 293:D:/DAVE IDE/4.5.0.202105191637/eclipse/workspace/bldcmotor/Libraries/CMSIS/Include\core_cm0.h ****   } b;                                   /*!< Structure used for bit  access */
 294:D:/DAVE IDE/4.5.0.202105191637/eclipse/workspace/bldcmotor/Libraries/CMSIS/Include\core_cm0.h ****   uint32_t w;                            /*!< Type      used for word access */
 295:D:/DAVE IDE/4.5.0.202105191637/eclipse/workspace/bldcmotor/Libraries/CMSIS/Include\core_cm0.h **** } CONTROL_Type;
 296:D:/DAVE IDE/4.5.0.202105191637/eclipse/workspace/bldcmotor/Libraries/CMSIS/Include\core_cm0.h **** 
 297:D:/DAVE IDE/4.5.0.202105191637/eclipse/workspace/bldcmotor/Libraries/CMSIS/Include\core_cm0.h **** /* CONTROL Register Definitions */
 298:D:/DAVE IDE/4.5.0.202105191637/eclipse/workspace/bldcmotor/Libraries/CMSIS/Include\core_cm0.h **** #define CONTROL_SPSEL_Pos                   1U                                            /*!< CONT
 299:D:/DAVE IDE/4.5.0.202105191637/eclipse/workspace/bldcmotor/Libraries/CMSIS/Include\core_cm0.h **** #define CONTROL_SPSEL_Msk                  (1UL << CONTROL_SPSEL_Pos)                     /*!< CONT
 300:D:/DAVE IDE/4.5.0.202105191637/eclipse/workspace/bldcmotor/Libraries/CMSIS/Include\core_cm0.h **** 
 301:D:/DAVE IDE/4.5.0.202105191637/eclipse/workspace/bldcmotor/Libraries/CMSIS/Include\core_cm0.h **** /*@} end of group CMSIS_CORE */
 302:D:/DAVE IDE/4.5.0.202105191637/eclipse/workspace/bldcmotor/Libraries/CMSIS/Include\core_cm0.h **** 
 303:D:/DAVE IDE/4.5.0.202105191637/eclipse/workspace/bldcmotor/Libraries/CMSIS/Include\core_cm0.h **** 
 304:D:/DAVE IDE/4.5.0.202105191637/eclipse/workspace/bldcmotor/Libraries/CMSIS/Include\core_cm0.h **** /**
 305:D:/DAVE IDE/4.5.0.202105191637/eclipse/workspace/bldcmotor/Libraries/CMSIS/Include\core_cm0.h ****   \ingroup    CMSIS_core_register
 306:D:/DAVE IDE/4.5.0.202105191637/eclipse/workspace/bldcmotor/Libraries/CMSIS/Include\core_cm0.h ****   \defgroup   CMSIS_NVIC  Nested Vectored Interrupt Controller (NVIC)
 307:D:/DAVE IDE/4.5.0.202105191637/eclipse/workspace/bldcmotor/Libraries/CMSIS/Include\core_cm0.h ****   \brief      Type definitions for the NVIC Registers
 308:D:/DAVE IDE/4.5.0.202105191637/eclipse/workspace/bldcmotor/Libraries/CMSIS/Include\core_cm0.h ****   @{
 309:D:/DAVE IDE/4.5.0.202105191637/eclipse/workspace/bldcmotor/Libraries/CMSIS/Include\core_cm0.h ****  */
 310:D:/DAVE IDE/4.5.0.202105191637/eclipse/workspace/bldcmotor/Libraries/CMSIS/Include\core_cm0.h **** 
 311:D:/DAVE IDE/4.5.0.202105191637/eclipse/workspace/bldcmotor/Libraries/CMSIS/Include\core_cm0.h **** /**
 312:D:/DAVE IDE/4.5.0.202105191637/eclipse/workspace/bldcmotor/Libraries/CMSIS/Include\core_cm0.h ****   \brief  Structure type to access the Nested Vectored Interrupt Controller (NVIC).
 313:D:/DAVE IDE/4.5.0.202105191637/eclipse/workspace/bldcmotor/Libraries/CMSIS/Include\core_cm0.h ****  */
 314:D:/DAVE IDE/4.5.0.202105191637/eclipse/workspace/bldcmotor/Libraries/CMSIS/Include\core_cm0.h **** typedef struct
 315:D:/DAVE IDE/4.5.0.202105191637/eclipse/workspace/bldcmotor/Libraries/CMSIS/Include\core_cm0.h **** {
 316:D:/DAVE IDE/4.5.0.202105191637/eclipse/workspace/bldcmotor/Libraries/CMSIS/Include\core_cm0.h ****   __IOM uint32_t ISER[1U];               /*!< Offset: 0x000 (R/W)  Interrupt Set Enable Register */
 317:D:/DAVE IDE/4.5.0.202105191637/eclipse/workspace/bldcmotor/Libraries/CMSIS/Include\core_cm0.h ****         uint32_t RESERVED0[31U];
 318:D:/DAVE IDE/4.5.0.202105191637/eclipse/workspace/bldcmotor/Libraries/CMSIS/Include\core_cm0.h ****   __IOM uint32_t ICER[1U];               /*!< Offset: 0x080 (R/W)  Interrupt Clear Enable Register 
 319:D:/DAVE IDE/4.5.0.202105191637/eclipse/workspace/bldcmotor/Libraries/CMSIS/Include\core_cm0.h ****         uint32_t RESERVED1[31U];
 320:D:/DAVE IDE/4.5.0.202105191637/eclipse/workspace/bldcmotor/Libraries/CMSIS/Include\core_cm0.h ****   __IOM uint32_t ISPR[1U];               /*!< Offset: 0x100 (R/W)  Interrupt Set Pending Register *
 321:D:/DAVE IDE/4.5.0.202105191637/eclipse/workspace/bldcmotor/Libraries/CMSIS/Include\core_cm0.h ****         uint32_t RESERVED2[31U];
 322:D:/DAVE IDE/4.5.0.202105191637/eclipse/workspace/bldcmotor/Libraries/CMSIS/Include\core_cm0.h ****   __IOM uint32_t ICPR[1U];               /*!< Offset: 0x180 (R/W)  Interrupt Clear Pending Register
 323:D:/DAVE IDE/4.5.0.202105191637/eclipse/workspace/bldcmotor/Libraries/CMSIS/Include\core_cm0.h ****         uint32_t RESERVED3[31U];
 324:D:/DAVE IDE/4.5.0.202105191637/eclipse/workspace/bldcmotor/Libraries/CMSIS/Include\core_cm0.h ****         uint32_t RESERVED4[64U];
 325:D:/DAVE IDE/4.5.0.202105191637/eclipse/workspace/bldcmotor/Libraries/CMSIS/Include\core_cm0.h ****   __IOM uint32_t IP[8U];                 /*!< Offset: 0x300 (R/W)  Interrupt Priority Register */
 326:D:/DAVE IDE/4.5.0.202105191637/eclipse/workspace/bldcmotor/Libraries/CMSIS/Include\core_cm0.h **** }  NVIC_Type;
 327:D:/DAVE IDE/4.5.0.202105191637/eclipse/workspace/bldcmotor/Libraries/CMSIS/Include\core_cm0.h **** 
 328:D:/DAVE IDE/4.5.0.202105191637/eclipse/workspace/bldcmotor/Libraries/CMSIS/Include\core_cm0.h **** /*@} end of group CMSIS_NVIC */
 329:D:/DAVE IDE/4.5.0.202105191637/eclipse/workspace/bldcmotor/Libraries/CMSIS/Include\core_cm0.h **** 
 330:D:/DAVE IDE/4.5.0.202105191637/eclipse/workspace/bldcmotor/Libraries/CMSIS/Include\core_cm0.h **** 
 331:D:/DAVE IDE/4.5.0.202105191637/eclipse/workspace/bldcmotor/Libraries/CMSIS/Include\core_cm0.h **** /**
 332:D:/DAVE IDE/4.5.0.202105191637/eclipse/workspace/bldcmotor/Libraries/CMSIS/Include\core_cm0.h ****   \ingroup  CMSIS_core_register
 333:D:/DAVE IDE/4.5.0.202105191637/eclipse/workspace/bldcmotor/Libraries/CMSIS/Include\core_cm0.h ****   \defgroup CMSIS_SCB     System Control Block (SCB)
 334:D:/DAVE IDE/4.5.0.202105191637/eclipse/workspace/bldcmotor/Libraries/CMSIS/Include\core_cm0.h ****   \brief    Type definitions for the System Control Block Registers
 335:D:/DAVE IDE/4.5.0.202105191637/eclipse/workspace/bldcmotor/Libraries/CMSIS/Include\core_cm0.h ****   @{
 336:D:/DAVE IDE/4.5.0.202105191637/eclipse/workspace/bldcmotor/Libraries/CMSIS/Include\core_cm0.h ****  */
 337:D:/DAVE IDE/4.5.0.202105191637/eclipse/workspace/bldcmotor/Libraries/CMSIS/Include\core_cm0.h **** 
 338:D:/DAVE IDE/4.5.0.202105191637/eclipse/workspace/bldcmotor/Libraries/CMSIS/Include\core_cm0.h **** /**
 339:D:/DAVE IDE/4.5.0.202105191637/eclipse/workspace/bldcmotor/Libraries/CMSIS/Include\core_cm0.h ****   \brief  Structure type to access the System Control Block (SCB).
 340:D:/DAVE IDE/4.5.0.202105191637/eclipse/workspace/bldcmotor/Libraries/CMSIS/Include\core_cm0.h ****  */
 341:D:/DAVE IDE/4.5.0.202105191637/eclipse/workspace/bldcmotor/Libraries/CMSIS/Include\core_cm0.h **** typedef struct
 342:D:/DAVE IDE/4.5.0.202105191637/eclipse/workspace/bldcmotor/Libraries/CMSIS/Include\core_cm0.h **** {
 343:D:/DAVE IDE/4.5.0.202105191637/eclipse/workspace/bldcmotor/Libraries/CMSIS/Include\core_cm0.h ****   __IM  uint32_t CPUID;                  /*!< Offset: 0x000 (R/ )  CPUID Base Register */
 344:D:/DAVE IDE/4.5.0.202105191637/eclipse/workspace/bldcmotor/Libraries/CMSIS/Include\core_cm0.h ****   __IOM uint32_t ICSR;                   /*!< Offset: 0x004 (R/W)  Interrupt Control and State Regi
 345:D:/DAVE IDE/4.5.0.202105191637/eclipse/workspace/bldcmotor/Libraries/CMSIS/Include\core_cm0.h ****         uint32_t RESERVED0;
 346:D:/DAVE IDE/4.5.0.202105191637/eclipse/workspace/bldcmotor/Libraries/CMSIS/Include\core_cm0.h ****   __IOM uint32_t AIRCR;                  /*!< Offset: 0x00C (R/W)  Application Interrupt and Reset 
 347:D:/DAVE IDE/4.5.0.202105191637/eclipse/workspace/bldcmotor/Libraries/CMSIS/Include\core_cm0.h ****   __IOM uint32_t SCR;                    /*!< Offset: 0x010 (R/W)  System Control Register */
 348:D:/DAVE IDE/4.5.0.202105191637/eclipse/workspace/bldcmotor/Libraries/CMSIS/Include\core_cm0.h ****   __IOM uint32_t CCR;                    /*!< Offset: 0x014 (R/W)  Configuration Control Register *
 349:D:/DAVE IDE/4.5.0.202105191637/eclipse/workspace/bldcmotor/Libraries/CMSIS/Include\core_cm0.h ****         uint32_t RESERVED1;
 350:D:/DAVE IDE/4.5.0.202105191637/eclipse/workspace/bldcmotor/Libraries/CMSIS/Include\core_cm0.h ****   __IOM uint32_t SHP[2U];                /*!< Offset: 0x01C (R/W)  System Handlers Priority Registe
 351:D:/DAVE IDE/4.5.0.202105191637/eclipse/workspace/bldcmotor/Libraries/CMSIS/Include\core_cm0.h ****   __IOM uint32_t SHCSR;                  /*!< Offset: 0x024 (R/W)  System Handler Control and State
 352:D:/DAVE IDE/4.5.0.202105191637/eclipse/workspace/bldcmotor/Libraries/CMSIS/Include\core_cm0.h **** } SCB_Type;
 353:D:/DAVE IDE/4.5.0.202105191637/eclipse/workspace/bldcmotor/Libraries/CMSIS/Include\core_cm0.h **** 
 354:D:/DAVE IDE/4.5.0.202105191637/eclipse/workspace/bldcmotor/Libraries/CMSIS/Include\core_cm0.h **** /* SCB CPUID Register Definitions */
 355:D:/DAVE IDE/4.5.0.202105191637/eclipse/workspace/bldcmotor/Libraries/CMSIS/Include\core_cm0.h **** #define SCB_CPUID_IMPLEMENTER_Pos          24U                                            /*!< SCB 
 356:D:/DAVE IDE/4.5.0.202105191637/eclipse/workspace/bldcmotor/Libraries/CMSIS/Include\core_cm0.h **** #define SCB_CPUID_IMPLEMENTER_Msk          (0xFFUL << SCB_CPUID_IMPLEMENTER_Pos)          /*!< SCB 
 357:D:/DAVE IDE/4.5.0.202105191637/eclipse/workspace/bldcmotor/Libraries/CMSIS/Include\core_cm0.h **** 
 358:D:/DAVE IDE/4.5.0.202105191637/eclipse/workspace/bldcmotor/Libraries/CMSIS/Include\core_cm0.h **** #define SCB_CPUID_VARIANT_Pos              20U                                            /*!< SCB 
 359:D:/DAVE IDE/4.5.0.202105191637/eclipse/workspace/bldcmotor/Libraries/CMSIS/Include\core_cm0.h **** #define SCB_CPUID_VARIANT_Msk              (0xFUL << SCB_CPUID_VARIANT_Pos)               /*!< SCB 
 360:D:/DAVE IDE/4.5.0.202105191637/eclipse/workspace/bldcmotor/Libraries/CMSIS/Include\core_cm0.h **** 
 361:D:/DAVE IDE/4.5.0.202105191637/eclipse/workspace/bldcmotor/Libraries/CMSIS/Include\core_cm0.h **** #define SCB_CPUID_ARCHITECTURE_Pos         16U                                            /*!< SCB 
 362:D:/DAVE IDE/4.5.0.202105191637/eclipse/workspace/bldcmotor/Libraries/CMSIS/Include\core_cm0.h **** #define SCB_CPUID_ARCHITECTURE_Msk         (0xFUL << SCB_CPUID_ARCHITECTURE_Pos)          /*!< SCB 
 363:D:/DAVE IDE/4.5.0.202105191637/eclipse/workspace/bldcmotor/Libraries/CMSIS/Include\core_cm0.h **** 
 364:D:/DAVE IDE/4.5.0.202105191637/eclipse/workspace/bldcmotor/Libraries/CMSIS/Include\core_cm0.h **** #define SCB_CPUID_PARTNO_Pos                4U                                            /*!< SCB 
 365:D:/DAVE IDE/4.5.0.202105191637/eclipse/workspace/bldcmotor/Libraries/CMSIS/Include\core_cm0.h **** #define SCB_CPUID_PARTNO_Msk               (0xFFFUL << SCB_CPUID_PARTNO_Pos)              /*!< SCB 
 366:D:/DAVE IDE/4.5.0.202105191637/eclipse/workspace/bldcmotor/Libraries/CMSIS/Include\core_cm0.h **** 
 367:D:/DAVE IDE/4.5.0.202105191637/eclipse/workspace/bldcmotor/Libraries/CMSIS/Include\core_cm0.h **** #define SCB_CPUID_REVISION_Pos              0U                                            /*!< SCB 
 368:D:/DAVE IDE/4.5.0.202105191637/eclipse/workspace/bldcmotor/Libraries/CMSIS/Include\core_cm0.h **** #define SCB_CPUID_REVISION_Msk             (0xFUL /*<< SCB_CPUID_REVISION_Pos*/)          /*!< SCB 
 369:D:/DAVE IDE/4.5.0.202105191637/eclipse/workspace/bldcmotor/Libraries/CMSIS/Include\core_cm0.h **** 
 370:D:/DAVE IDE/4.5.0.202105191637/eclipse/workspace/bldcmotor/Libraries/CMSIS/Include\core_cm0.h **** /* SCB Interrupt Control State Register Definitions */
 371:D:/DAVE IDE/4.5.0.202105191637/eclipse/workspace/bldcmotor/Libraries/CMSIS/Include\core_cm0.h **** #define SCB_ICSR_NMIPENDSET_Pos            31U                                            /*!< SCB 
 372:D:/DAVE IDE/4.5.0.202105191637/eclipse/workspace/bldcmotor/Libraries/CMSIS/Include\core_cm0.h **** #define SCB_ICSR_NMIPENDSET_Msk            (1UL << SCB_ICSR_NMIPENDSET_Pos)               /*!< SCB 
 373:D:/DAVE IDE/4.5.0.202105191637/eclipse/workspace/bldcmotor/Libraries/CMSIS/Include\core_cm0.h **** 
 374:D:/DAVE IDE/4.5.0.202105191637/eclipse/workspace/bldcmotor/Libraries/CMSIS/Include\core_cm0.h **** #define SCB_ICSR_PENDSVSET_Pos             28U                                            /*!< SCB 
 375:D:/DAVE IDE/4.5.0.202105191637/eclipse/workspace/bldcmotor/Libraries/CMSIS/Include\core_cm0.h **** #define SCB_ICSR_PENDSVSET_Msk             (1UL << SCB_ICSR_PENDSVSET_Pos)                /*!< SCB 
 376:D:/DAVE IDE/4.5.0.202105191637/eclipse/workspace/bldcmotor/Libraries/CMSIS/Include\core_cm0.h **** 
 377:D:/DAVE IDE/4.5.0.202105191637/eclipse/workspace/bldcmotor/Libraries/CMSIS/Include\core_cm0.h **** #define SCB_ICSR_PENDSVCLR_Pos             27U                                            /*!< SCB 
 378:D:/DAVE IDE/4.5.0.202105191637/eclipse/workspace/bldcmotor/Libraries/CMSIS/Include\core_cm0.h **** #define SCB_ICSR_PENDSVCLR_Msk             (1UL << SCB_ICSR_PENDSVCLR_Pos)                /*!< SCB 
 379:D:/DAVE IDE/4.5.0.202105191637/eclipse/workspace/bldcmotor/Libraries/CMSIS/Include\core_cm0.h **** 
 380:D:/DAVE IDE/4.5.0.202105191637/eclipse/workspace/bldcmotor/Libraries/CMSIS/Include\core_cm0.h **** #define SCB_ICSR_PENDSTSET_Pos             26U                                            /*!< SCB 
 381:D:/DAVE IDE/4.5.0.202105191637/eclipse/workspace/bldcmotor/Libraries/CMSIS/Include\core_cm0.h **** #define SCB_ICSR_PENDSTSET_Msk             (1UL << SCB_ICSR_PENDSTSET_Pos)                /*!< SCB 
 382:D:/DAVE IDE/4.5.0.202105191637/eclipse/workspace/bldcmotor/Libraries/CMSIS/Include\core_cm0.h **** 
 383:D:/DAVE IDE/4.5.0.202105191637/eclipse/workspace/bldcmotor/Libraries/CMSIS/Include\core_cm0.h **** #define SCB_ICSR_PENDSTCLR_Pos             25U                                            /*!< SCB 
 384:D:/DAVE IDE/4.5.0.202105191637/eclipse/workspace/bldcmotor/Libraries/CMSIS/Include\core_cm0.h **** #define SCB_ICSR_PENDSTCLR_Msk             (1UL << SCB_ICSR_PENDSTCLR_Pos)                /*!< SCB 
 385:D:/DAVE IDE/4.5.0.202105191637/eclipse/workspace/bldcmotor/Libraries/CMSIS/Include\core_cm0.h **** 
 386:D:/DAVE IDE/4.5.0.202105191637/eclipse/workspace/bldcmotor/Libraries/CMSIS/Include\core_cm0.h **** #define SCB_ICSR_ISRPREEMPT_Pos            23U                                            /*!< SCB 
 387:D:/DAVE IDE/4.5.0.202105191637/eclipse/workspace/bldcmotor/Libraries/CMSIS/Include\core_cm0.h **** #define SCB_ICSR_ISRPREEMPT_Msk            (1UL << SCB_ICSR_ISRPREEMPT_Pos)               /*!< SCB 
 388:D:/DAVE IDE/4.5.0.202105191637/eclipse/workspace/bldcmotor/Libraries/CMSIS/Include\core_cm0.h **** 
 389:D:/DAVE IDE/4.5.0.202105191637/eclipse/workspace/bldcmotor/Libraries/CMSIS/Include\core_cm0.h **** #define SCB_ICSR_ISRPENDING_Pos            22U                                            /*!< SCB 
 390:D:/DAVE IDE/4.5.0.202105191637/eclipse/workspace/bldcmotor/Libraries/CMSIS/Include\core_cm0.h **** #define SCB_ICSR_ISRPENDING_Msk            (1UL << SCB_ICSR_ISRPENDING_Pos)               /*!< SCB 
 391:D:/DAVE IDE/4.5.0.202105191637/eclipse/workspace/bldcmotor/Libraries/CMSIS/Include\core_cm0.h **** 
 392:D:/DAVE IDE/4.5.0.202105191637/eclipse/workspace/bldcmotor/Libraries/CMSIS/Include\core_cm0.h **** #define SCB_ICSR_VECTPENDING_Pos           12U                                            /*!< SCB 
 393:D:/DAVE IDE/4.5.0.202105191637/eclipse/workspace/bldcmotor/Libraries/CMSIS/Include\core_cm0.h **** #define SCB_ICSR_VECTPENDING_Msk           (0x1FFUL << SCB_ICSR_VECTPENDING_Pos)          /*!< SCB 
 394:D:/DAVE IDE/4.5.0.202105191637/eclipse/workspace/bldcmotor/Libraries/CMSIS/Include\core_cm0.h **** 
 395:D:/DAVE IDE/4.5.0.202105191637/eclipse/workspace/bldcmotor/Libraries/CMSIS/Include\core_cm0.h **** #define SCB_ICSR_VECTACTIVE_Pos             0U                                            /*!< SCB 
 396:D:/DAVE IDE/4.5.0.202105191637/eclipse/workspace/bldcmotor/Libraries/CMSIS/Include\core_cm0.h **** #define SCB_ICSR_VECTACTIVE_Msk            (0x1FFUL /*<< SCB_ICSR_VECTACTIVE_Pos*/)       /*!< SCB 
 397:D:/DAVE IDE/4.5.0.202105191637/eclipse/workspace/bldcmotor/Libraries/CMSIS/Include\core_cm0.h **** 
 398:D:/DAVE IDE/4.5.0.202105191637/eclipse/workspace/bldcmotor/Libraries/CMSIS/Include\core_cm0.h **** /* SCB Application Interrupt and Reset Control Register Definitions */
 399:D:/DAVE IDE/4.5.0.202105191637/eclipse/workspace/bldcmotor/Libraries/CMSIS/Include\core_cm0.h **** #define SCB_AIRCR_VECTKEY_Pos              16U                                            /*!< SCB 
 400:D:/DAVE IDE/4.5.0.202105191637/eclipse/workspace/bldcmotor/Libraries/CMSIS/Include\core_cm0.h **** #define SCB_AIRCR_VECTKEY_Msk              (0xFFFFUL << SCB_AIRCR_VECTKEY_Pos)            /*!< SCB 
 401:D:/DAVE IDE/4.5.0.202105191637/eclipse/workspace/bldcmotor/Libraries/CMSIS/Include\core_cm0.h **** 
 402:D:/DAVE IDE/4.5.0.202105191637/eclipse/workspace/bldcmotor/Libraries/CMSIS/Include\core_cm0.h **** #define SCB_AIRCR_VECTKEYSTAT_Pos          16U                                            /*!< SCB 
 403:D:/DAVE IDE/4.5.0.202105191637/eclipse/workspace/bldcmotor/Libraries/CMSIS/Include\core_cm0.h **** #define SCB_AIRCR_VECTKEYSTAT_Msk          (0xFFFFUL << SCB_AIRCR_VECTKEYSTAT_Pos)        /*!< SCB 
 404:D:/DAVE IDE/4.5.0.202105191637/eclipse/workspace/bldcmotor/Libraries/CMSIS/Include\core_cm0.h **** 
 405:D:/DAVE IDE/4.5.0.202105191637/eclipse/workspace/bldcmotor/Libraries/CMSIS/Include\core_cm0.h **** #define SCB_AIRCR_ENDIANESS_Pos            15U                                            /*!< SCB 
 406:D:/DAVE IDE/4.5.0.202105191637/eclipse/workspace/bldcmotor/Libraries/CMSIS/Include\core_cm0.h **** #define SCB_AIRCR_ENDIANESS_Msk            (1UL << SCB_AIRCR_ENDIANESS_Pos)               /*!< SCB 
 407:D:/DAVE IDE/4.5.0.202105191637/eclipse/workspace/bldcmotor/Libraries/CMSIS/Include\core_cm0.h **** 
 408:D:/DAVE IDE/4.5.0.202105191637/eclipse/workspace/bldcmotor/Libraries/CMSIS/Include\core_cm0.h **** #define SCB_AIRCR_SYSRESETREQ_Pos           2U                                            /*!< SCB 
 409:D:/DAVE IDE/4.5.0.202105191637/eclipse/workspace/bldcmotor/Libraries/CMSIS/Include\core_cm0.h **** #define SCB_AIRCR_SYSRESETREQ_Msk          (1UL << SCB_AIRCR_SYSRESETREQ_Pos)             /*!< SCB 
 410:D:/DAVE IDE/4.5.0.202105191637/eclipse/workspace/bldcmotor/Libraries/CMSIS/Include\core_cm0.h **** 
 411:D:/DAVE IDE/4.5.0.202105191637/eclipse/workspace/bldcmotor/Libraries/CMSIS/Include\core_cm0.h **** #define SCB_AIRCR_VECTCLRACTIVE_Pos         1U                                            /*!< SCB 
 412:D:/DAVE IDE/4.5.0.202105191637/eclipse/workspace/bldcmotor/Libraries/CMSIS/Include\core_cm0.h **** #define SCB_AIRCR_VECTCLRACTIVE_Msk        (1UL << SCB_AIRCR_VECTCLRACTIVE_Pos)           /*!< SCB 
 413:D:/DAVE IDE/4.5.0.202105191637/eclipse/workspace/bldcmotor/Libraries/CMSIS/Include\core_cm0.h **** 
 414:D:/DAVE IDE/4.5.0.202105191637/eclipse/workspace/bldcmotor/Libraries/CMSIS/Include\core_cm0.h **** /* SCB System Control Register Definitions */
 415:D:/DAVE IDE/4.5.0.202105191637/eclipse/workspace/bldcmotor/Libraries/CMSIS/Include\core_cm0.h **** #define SCB_SCR_SEVONPEND_Pos               4U                                            /*!< SCB 
 416:D:/DAVE IDE/4.5.0.202105191637/eclipse/workspace/bldcmotor/Libraries/CMSIS/Include\core_cm0.h **** #define SCB_SCR_SEVONPEND_Msk              (1UL << SCB_SCR_SEVONPEND_Pos)                 /*!< SCB 
 417:D:/DAVE IDE/4.5.0.202105191637/eclipse/workspace/bldcmotor/Libraries/CMSIS/Include\core_cm0.h **** 
 418:D:/DAVE IDE/4.5.0.202105191637/eclipse/workspace/bldcmotor/Libraries/CMSIS/Include\core_cm0.h **** #define SCB_SCR_SLEEPDEEP_Pos               2U                                            /*!< SCB 
 419:D:/DAVE IDE/4.5.0.202105191637/eclipse/workspace/bldcmotor/Libraries/CMSIS/Include\core_cm0.h **** #define SCB_SCR_SLEEPDEEP_Msk              (1UL << SCB_SCR_SLEEPDEEP_Pos)                 /*!< SCB 
 420:D:/DAVE IDE/4.5.0.202105191637/eclipse/workspace/bldcmotor/Libraries/CMSIS/Include\core_cm0.h **** 
 421:D:/DAVE IDE/4.5.0.202105191637/eclipse/workspace/bldcmotor/Libraries/CMSIS/Include\core_cm0.h **** #define SCB_SCR_SLEEPONEXIT_Pos             1U                                            /*!< SCB 
 422:D:/DAVE IDE/4.5.0.202105191637/eclipse/workspace/bldcmotor/Libraries/CMSIS/Include\core_cm0.h **** #define SCB_SCR_SLEEPONEXIT_Msk            (1UL << SCB_SCR_SLEEPONEXIT_Pos)               /*!< SCB 
 423:D:/DAVE IDE/4.5.0.202105191637/eclipse/workspace/bldcmotor/Libraries/CMSIS/Include\core_cm0.h **** 
 424:D:/DAVE IDE/4.5.0.202105191637/eclipse/workspace/bldcmotor/Libraries/CMSIS/Include\core_cm0.h **** /* SCB Configuration Control Register Definitions */
 425:D:/DAVE IDE/4.5.0.202105191637/eclipse/workspace/bldcmotor/Libraries/CMSIS/Include\core_cm0.h **** #define SCB_CCR_STKALIGN_Pos                9U                                            /*!< SCB 
 426:D:/DAVE IDE/4.5.0.202105191637/eclipse/workspace/bldcmotor/Libraries/CMSIS/Include\core_cm0.h **** #define SCB_CCR_STKALIGN_Msk               (1UL << SCB_CCR_STKALIGN_Pos)                  /*!< SCB 
 427:D:/DAVE IDE/4.5.0.202105191637/eclipse/workspace/bldcmotor/Libraries/CMSIS/Include\core_cm0.h **** 
 428:D:/DAVE IDE/4.5.0.202105191637/eclipse/workspace/bldcmotor/Libraries/CMSIS/Include\core_cm0.h **** #define SCB_CCR_UNALIGN_TRP_Pos             3U                                            /*!< SCB 
 429:D:/DAVE IDE/4.5.0.202105191637/eclipse/workspace/bldcmotor/Libraries/CMSIS/Include\core_cm0.h **** #define SCB_CCR_UNALIGN_TRP_Msk            (1UL << SCB_CCR_UNALIGN_TRP_Pos)               /*!< SCB 
 430:D:/DAVE IDE/4.5.0.202105191637/eclipse/workspace/bldcmotor/Libraries/CMSIS/Include\core_cm0.h **** 
 431:D:/DAVE IDE/4.5.0.202105191637/eclipse/workspace/bldcmotor/Libraries/CMSIS/Include\core_cm0.h **** /* SCB System Handler Control and State Register Definitions */
 432:D:/DAVE IDE/4.5.0.202105191637/eclipse/workspace/bldcmotor/Libraries/CMSIS/Include\core_cm0.h **** #define SCB_SHCSR_SVCALLPENDED_Pos         15U                                            /*!< SCB 
 433:D:/DAVE IDE/4.5.0.202105191637/eclipse/workspace/bldcmotor/Libraries/CMSIS/Include\core_cm0.h **** #define SCB_SHCSR_SVCALLPENDED_Msk         (1UL << SCB_SHCSR_SVCALLPENDED_Pos)            /*!< SCB 
 434:D:/DAVE IDE/4.5.0.202105191637/eclipse/workspace/bldcmotor/Libraries/CMSIS/Include\core_cm0.h **** 
 435:D:/DAVE IDE/4.5.0.202105191637/eclipse/workspace/bldcmotor/Libraries/CMSIS/Include\core_cm0.h **** /*@} end of group CMSIS_SCB */
 436:D:/DAVE IDE/4.5.0.202105191637/eclipse/workspace/bldcmotor/Libraries/CMSIS/Include\core_cm0.h **** 
 437:D:/DAVE IDE/4.5.0.202105191637/eclipse/workspace/bldcmotor/Libraries/CMSIS/Include\core_cm0.h **** 
 438:D:/DAVE IDE/4.5.0.202105191637/eclipse/workspace/bldcmotor/Libraries/CMSIS/Include\core_cm0.h **** /**
 439:D:/DAVE IDE/4.5.0.202105191637/eclipse/workspace/bldcmotor/Libraries/CMSIS/Include\core_cm0.h ****   \ingroup  CMSIS_core_register
 440:D:/DAVE IDE/4.5.0.202105191637/eclipse/workspace/bldcmotor/Libraries/CMSIS/Include\core_cm0.h ****   \defgroup CMSIS_SysTick     System Tick Timer (SysTick)
 441:D:/DAVE IDE/4.5.0.202105191637/eclipse/workspace/bldcmotor/Libraries/CMSIS/Include\core_cm0.h ****   \brief    Type definitions for the System Timer Registers.
 442:D:/DAVE IDE/4.5.0.202105191637/eclipse/workspace/bldcmotor/Libraries/CMSIS/Include\core_cm0.h ****   @{
 443:D:/DAVE IDE/4.5.0.202105191637/eclipse/workspace/bldcmotor/Libraries/CMSIS/Include\core_cm0.h ****  */
 444:D:/DAVE IDE/4.5.0.202105191637/eclipse/workspace/bldcmotor/Libraries/CMSIS/Include\core_cm0.h **** 
 445:D:/DAVE IDE/4.5.0.202105191637/eclipse/workspace/bldcmotor/Libraries/CMSIS/Include\core_cm0.h **** /**
 446:D:/DAVE IDE/4.5.0.202105191637/eclipse/workspace/bldcmotor/Libraries/CMSIS/Include\core_cm0.h ****   \brief  Structure type to access the System Timer (SysTick).
 447:D:/DAVE IDE/4.5.0.202105191637/eclipse/workspace/bldcmotor/Libraries/CMSIS/Include\core_cm0.h ****  */
 448:D:/DAVE IDE/4.5.0.202105191637/eclipse/workspace/bldcmotor/Libraries/CMSIS/Include\core_cm0.h **** typedef struct
 449:D:/DAVE IDE/4.5.0.202105191637/eclipse/workspace/bldcmotor/Libraries/CMSIS/Include\core_cm0.h **** {
 450:D:/DAVE IDE/4.5.0.202105191637/eclipse/workspace/bldcmotor/Libraries/CMSIS/Include\core_cm0.h ****   __IOM uint32_t CTRL;                   /*!< Offset: 0x000 (R/W)  SysTick Control and Status Regis
 451:D:/DAVE IDE/4.5.0.202105191637/eclipse/workspace/bldcmotor/Libraries/CMSIS/Include\core_cm0.h ****   __IOM uint32_t LOAD;                   /*!< Offset: 0x004 (R/W)  SysTick Reload Value Register */
 452:D:/DAVE IDE/4.5.0.202105191637/eclipse/workspace/bldcmotor/Libraries/CMSIS/Include\core_cm0.h ****   __IOM uint32_t VAL;                    /*!< Offset: 0x008 (R/W)  SysTick Current Value Register *
 453:D:/DAVE IDE/4.5.0.202105191637/eclipse/workspace/bldcmotor/Libraries/CMSIS/Include\core_cm0.h ****   __IM  uint32_t CALIB;                  /*!< Offset: 0x00C (R/ )  SysTick Calibration Register */
 454:D:/DAVE IDE/4.5.0.202105191637/eclipse/workspace/bldcmotor/Libraries/CMSIS/Include\core_cm0.h **** } SysTick_Type;
 455:D:/DAVE IDE/4.5.0.202105191637/eclipse/workspace/bldcmotor/Libraries/CMSIS/Include\core_cm0.h **** 
 456:D:/DAVE IDE/4.5.0.202105191637/eclipse/workspace/bldcmotor/Libraries/CMSIS/Include\core_cm0.h **** /* SysTick Control / Status Register Definitions */
 457:D:/DAVE IDE/4.5.0.202105191637/eclipse/workspace/bldcmotor/Libraries/CMSIS/Include\core_cm0.h **** #define SysTick_CTRL_COUNTFLAG_Pos         16U                                            /*!< SysT
 458:D:/DAVE IDE/4.5.0.202105191637/eclipse/workspace/bldcmotor/Libraries/CMSIS/Include\core_cm0.h **** #define SysTick_CTRL_COUNTFLAG_Msk         (1UL << SysTick_CTRL_COUNTFLAG_Pos)            /*!< SysT
 459:D:/DAVE IDE/4.5.0.202105191637/eclipse/workspace/bldcmotor/Libraries/CMSIS/Include\core_cm0.h **** 
 460:D:/DAVE IDE/4.5.0.202105191637/eclipse/workspace/bldcmotor/Libraries/CMSIS/Include\core_cm0.h **** #define SysTick_CTRL_CLKSOURCE_Pos          2U                                            /*!< SysT
 461:D:/DAVE IDE/4.5.0.202105191637/eclipse/workspace/bldcmotor/Libraries/CMSIS/Include\core_cm0.h **** #define SysTick_CTRL_CLKSOURCE_Msk         (1UL << SysTick_CTRL_CLKSOURCE_Pos)            /*!< SysT
 462:D:/DAVE IDE/4.5.0.202105191637/eclipse/workspace/bldcmotor/Libraries/CMSIS/Include\core_cm0.h **** 
 463:D:/DAVE IDE/4.5.0.202105191637/eclipse/workspace/bldcmotor/Libraries/CMSIS/Include\core_cm0.h **** #define SysTick_CTRL_TICKINT_Pos            1U                                            /*!< SysT
 464:D:/DAVE IDE/4.5.0.202105191637/eclipse/workspace/bldcmotor/Libraries/CMSIS/Include\core_cm0.h **** #define SysTick_CTRL_TICKINT_Msk           (1UL << SysTick_CTRL_TICKINT_Pos)              /*!< SysT
 465:D:/DAVE IDE/4.5.0.202105191637/eclipse/workspace/bldcmotor/Libraries/CMSIS/Include\core_cm0.h **** 
 466:D:/DAVE IDE/4.5.0.202105191637/eclipse/workspace/bldcmotor/Libraries/CMSIS/Include\core_cm0.h **** #define SysTick_CTRL_ENABLE_Pos             0U                                            /*!< SysT
 467:D:/DAVE IDE/4.5.0.202105191637/eclipse/workspace/bldcmotor/Libraries/CMSIS/Include\core_cm0.h **** #define SysTick_CTRL_ENABLE_Msk            (1UL /*<< SysTick_CTRL_ENABLE_Pos*/)           /*!< SysT
 468:D:/DAVE IDE/4.5.0.202105191637/eclipse/workspace/bldcmotor/Libraries/CMSIS/Include\core_cm0.h **** 
 469:D:/DAVE IDE/4.5.0.202105191637/eclipse/workspace/bldcmotor/Libraries/CMSIS/Include\core_cm0.h **** /* SysTick Reload Register Definitions */
 470:D:/DAVE IDE/4.5.0.202105191637/eclipse/workspace/bldcmotor/Libraries/CMSIS/Include\core_cm0.h **** #define SysTick_LOAD_RELOAD_Pos             0U                                            /*!< SysT
 471:D:/DAVE IDE/4.5.0.202105191637/eclipse/workspace/bldcmotor/Libraries/CMSIS/Include\core_cm0.h **** #define SysTick_LOAD_RELOAD_Msk            (0xFFFFFFUL /*<< SysTick_LOAD_RELOAD_Pos*/)    /*!< SysT
 472:D:/DAVE IDE/4.5.0.202105191637/eclipse/workspace/bldcmotor/Libraries/CMSIS/Include\core_cm0.h **** 
 473:D:/DAVE IDE/4.5.0.202105191637/eclipse/workspace/bldcmotor/Libraries/CMSIS/Include\core_cm0.h **** /* SysTick Current Register Definitions */
 474:D:/DAVE IDE/4.5.0.202105191637/eclipse/workspace/bldcmotor/Libraries/CMSIS/Include\core_cm0.h **** #define SysTick_VAL_CURRENT_Pos             0U                                            /*!< SysT
 475:D:/DAVE IDE/4.5.0.202105191637/eclipse/workspace/bldcmotor/Libraries/CMSIS/Include\core_cm0.h **** #define SysTick_VAL_CURRENT_Msk            (0xFFFFFFUL /*<< SysTick_VAL_CURRENT_Pos*/)    /*!< SysT
 476:D:/DAVE IDE/4.5.0.202105191637/eclipse/workspace/bldcmotor/Libraries/CMSIS/Include\core_cm0.h **** 
 477:D:/DAVE IDE/4.5.0.202105191637/eclipse/workspace/bldcmotor/Libraries/CMSIS/Include\core_cm0.h **** /* SysTick Calibration Register Definitions */
 478:D:/DAVE IDE/4.5.0.202105191637/eclipse/workspace/bldcmotor/Libraries/CMSIS/Include\core_cm0.h **** #define SysTick_CALIB_NOREF_Pos            31U                                            /*!< SysT
 479:D:/DAVE IDE/4.5.0.202105191637/eclipse/workspace/bldcmotor/Libraries/CMSIS/Include\core_cm0.h **** #define SysTick_CALIB_NOREF_Msk            (1UL << SysTick_CALIB_NOREF_Pos)               /*!< SysT
 480:D:/DAVE IDE/4.5.0.202105191637/eclipse/workspace/bldcmotor/Libraries/CMSIS/Include\core_cm0.h **** 
 481:D:/DAVE IDE/4.5.0.202105191637/eclipse/workspace/bldcmotor/Libraries/CMSIS/Include\core_cm0.h **** #define SysTick_CALIB_SKEW_Pos             30U                                            /*!< SysT
 482:D:/DAVE IDE/4.5.0.202105191637/eclipse/workspace/bldcmotor/Libraries/CMSIS/Include\core_cm0.h **** #define SysTick_CALIB_SKEW_Msk             (1UL << SysTick_CALIB_SKEW_Pos)                /*!< SysT
 483:D:/DAVE IDE/4.5.0.202105191637/eclipse/workspace/bldcmotor/Libraries/CMSIS/Include\core_cm0.h **** 
 484:D:/DAVE IDE/4.5.0.202105191637/eclipse/workspace/bldcmotor/Libraries/CMSIS/Include\core_cm0.h **** #define SysTick_CALIB_TENMS_Pos             0U                                            /*!< SysT
 485:D:/DAVE IDE/4.5.0.202105191637/eclipse/workspace/bldcmotor/Libraries/CMSIS/Include\core_cm0.h **** #define SysTick_CALIB_TENMS_Msk            (0xFFFFFFUL /*<< SysTick_CALIB_TENMS_Pos*/)    /*!< SysT
 486:D:/DAVE IDE/4.5.0.202105191637/eclipse/workspace/bldcmotor/Libraries/CMSIS/Include\core_cm0.h **** 
 487:D:/DAVE IDE/4.5.0.202105191637/eclipse/workspace/bldcmotor/Libraries/CMSIS/Include\core_cm0.h **** /*@} end of group CMSIS_SysTick */
 488:D:/DAVE IDE/4.5.0.202105191637/eclipse/workspace/bldcmotor/Libraries/CMSIS/Include\core_cm0.h **** 
 489:D:/DAVE IDE/4.5.0.202105191637/eclipse/workspace/bldcmotor/Libraries/CMSIS/Include\core_cm0.h **** 
 490:D:/DAVE IDE/4.5.0.202105191637/eclipse/workspace/bldcmotor/Libraries/CMSIS/Include\core_cm0.h **** /**
 491:D:/DAVE IDE/4.5.0.202105191637/eclipse/workspace/bldcmotor/Libraries/CMSIS/Include\core_cm0.h ****   \ingroup  CMSIS_core_register
 492:D:/DAVE IDE/4.5.0.202105191637/eclipse/workspace/bldcmotor/Libraries/CMSIS/Include\core_cm0.h ****   \defgroup CMSIS_CoreDebug       Core Debug Registers (CoreDebug)
 493:D:/DAVE IDE/4.5.0.202105191637/eclipse/workspace/bldcmotor/Libraries/CMSIS/Include\core_cm0.h ****   \brief    Cortex-M0 Core Debug Registers (DCB registers, SHCSR, and DFSR) are only accessible ove
 494:D:/DAVE IDE/4.5.0.202105191637/eclipse/workspace/bldcmotor/Libraries/CMSIS/Include\core_cm0.h ****             Therefore they are not covered by the Cortex-M0 header file.
 495:D:/DAVE IDE/4.5.0.202105191637/eclipse/workspace/bldcmotor/Libraries/CMSIS/Include\core_cm0.h ****   @{
 496:D:/DAVE IDE/4.5.0.202105191637/eclipse/workspace/bldcmotor/Libraries/CMSIS/Include\core_cm0.h ****  */
 497:D:/DAVE IDE/4.5.0.202105191637/eclipse/workspace/bldcmotor/Libraries/CMSIS/Include\core_cm0.h **** /*@} end of group CMSIS_CoreDebug */
 498:D:/DAVE IDE/4.5.0.202105191637/eclipse/workspace/bldcmotor/Libraries/CMSIS/Include\core_cm0.h **** 
 499:D:/DAVE IDE/4.5.0.202105191637/eclipse/workspace/bldcmotor/Libraries/CMSIS/Include\core_cm0.h **** 
 500:D:/DAVE IDE/4.5.0.202105191637/eclipse/workspace/bldcmotor/Libraries/CMSIS/Include\core_cm0.h **** /**
 501:D:/DAVE IDE/4.5.0.202105191637/eclipse/workspace/bldcmotor/Libraries/CMSIS/Include\core_cm0.h ****   \ingroup    CMSIS_core_register
 502:D:/DAVE IDE/4.5.0.202105191637/eclipse/workspace/bldcmotor/Libraries/CMSIS/Include\core_cm0.h ****   \defgroup   CMSIS_core_bitfield     Core register bit field macros
 503:D:/DAVE IDE/4.5.0.202105191637/eclipse/workspace/bldcmotor/Libraries/CMSIS/Include\core_cm0.h ****   \brief      Macros for use with bit field definitions (xxx_Pos, xxx_Msk).
 504:D:/DAVE IDE/4.5.0.202105191637/eclipse/workspace/bldcmotor/Libraries/CMSIS/Include\core_cm0.h ****   @{
 505:D:/DAVE IDE/4.5.0.202105191637/eclipse/workspace/bldcmotor/Libraries/CMSIS/Include\core_cm0.h ****  */
 506:D:/DAVE IDE/4.5.0.202105191637/eclipse/workspace/bldcmotor/Libraries/CMSIS/Include\core_cm0.h **** 
 507:D:/DAVE IDE/4.5.0.202105191637/eclipse/workspace/bldcmotor/Libraries/CMSIS/Include\core_cm0.h **** /**
 508:D:/DAVE IDE/4.5.0.202105191637/eclipse/workspace/bldcmotor/Libraries/CMSIS/Include\core_cm0.h ****   \brief   Mask and shift a bit field value for use in a register bit range.
 509:D:/DAVE IDE/4.5.0.202105191637/eclipse/workspace/bldcmotor/Libraries/CMSIS/Include\core_cm0.h ****   \param[in] field  Name of the register bit field.
 510:D:/DAVE IDE/4.5.0.202105191637/eclipse/workspace/bldcmotor/Libraries/CMSIS/Include\core_cm0.h ****   \param[in] value  Value of the bit field. This parameter is interpreted as an uint32_t type.
 511:D:/DAVE IDE/4.5.0.202105191637/eclipse/workspace/bldcmotor/Libraries/CMSIS/Include\core_cm0.h ****   \return           Masked and shifted value.
 512:D:/DAVE IDE/4.5.0.202105191637/eclipse/workspace/bldcmotor/Libraries/CMSIS/Include\core_cm0.h **** */
 513:D:/DAVE IDE/4.5.0.202105191637/eclipse/workspace/bldcmotor/Libraries/CMSIS/Include\core_cm0.h **** #define _VAL2FLD(field, value)    (((uint32_t)(value) << field ## _Pos) & field ## _Msk)
 514:D:/DAVE IDE/4.5.0.202105191637/eclipse/workspace/bldcmotor/Libraries/CMSIS/Include\core_cm0.h **** 
 515:D:/DAVE IDE/4.5.0.202105191637/eclipse/workspace/bldcmotor/Libraries/CMSIS/Include\core_cm0.h **** /**
 516:D:/DAVE IDE/4.5.0.202105191637/eclipse/workspace/bldcmotor/Libraries/CMSIS/Include\core_cm0.h ****   \brief     Mask and shift a register value to extract a bit filed value.
 517:D:/DAVE IDE/4.5.0.202105191637/eclipse/workspace/bldcmotor/Libraries/CMSIS/Include\core_cm0.h ****   \param[in] field  Name of the register bit field.
 518:D:/DAVE IDE/4.5.0.202105191637/eclipse/workspace/bldcmotor/Libraries/CMSIS/Include\core_cm0.h ****   \param[in] value  Value of register. This parameter is interpreted as an uint32_t type.
 519:D:/DAVE IDE/4.5.0.202105191637/eclipse/workspace/bldcmotor/Libraries/CMSIS/Include\core_cm0.h ****   \return           Masked and shifted bit field value.
 520:D:/DAVE IDE/4.5.0.202105191637/eclipse/workspace/bldcmotor/Libraries/CMSIS/Include\core_cm0.h **** */
 521:D:/DAVE IDE/4.5.0.202105191637/eclipse/workspace/bldcmotor/Libraries/CMSIS/Include\core_cm0.h **** #define _FLD2VAL(field, value)    (((uint32_t)(value) & field ## _Msk) >> field ## _Pos)
 522:D:/DAVE IDE/4.5.0.202105191637/eclipse/workspace/bldcmotor/Libraries/CMSIS/Include\core_cm0.h **** 
 523:D:/DAVE IDE/4.5.0.202105191637/eclipse/workspace/bldcmotor/Libraries/CMSIS/Include\core_cm0.h **** /*@} end of group CMSIS_core_bitfield */
 524:D:/DAVE IDE/4.5.0.202105191637/eclipse/workspace/bldcmotor/Libraries/CMSIS/Include\core_cm0.h **** 
 525:D:/DAVE IDE/4.5.0.202105191637/eclipse/workspace/bldcmotor/Libraries/CMSIS/Include\core_cm0.h **** 
 526:D:/DAVE IDE/4.5.0.202105191637/eclipse/workspace/bldcmotor/Libraries/CMSIS/Include\core_cm0.h **** /**
 527:D:/DAVE IDE/4.5.0.202105191637/eclipse/workspace/bldcmotor/Libraries/CMSIS/Include\core_cm0.h ****   \ingroup    CMSIS_core_register
 528:D:/DAVE IDE/4.5.0.202105191637/eclipse/workspace/bldcmotor/Libraries/CMSIS/Include\core_cm0.h ****   \defgroup   CMSIS_core_base     Core Definitions
 529:D:/DAVE IDE/4.5.0.202105191637/eclipse/workspace/bldcmotor/Libraries/CMSIS/Include\core_cm0.h ****   \brief      Definitions for base addresses, unions, and structures.
 530:D:/DAVE IDE/4.5.0.202105191637/eclipse/workspace/bldcmotor/Libraries/CMSIS/Include\core_cm0.h ****   @{
 531:D:/DAVE IDE/4.5.0.202105191637/eclipse/workspace/bldcmotor/Libraries/CMSIS/Include\core_cm0.h ****  */
 532:D:/DAVE IDE/4.5.0.202105191637/eclipse/workspace/bldcmotor/Libraries/CMSIS/Include\core_cm0.h **** 
 533:D:/DAVE IDE/4.5.0.202105191637/eclipse/workspace/bldcmotor/Libraries/CMSIS/Include\core_cm0.h **** /* Memory mapping of Core Hardware */
 534:D:/DAVE IDE/4.5.0.202105191637/eclipse/workspace/bldcmotor/Libraries/CMSIS/Include\core_cm0.h **** #define SCS_BASE            (0xE000E000UL)                            /*!< System Control Space Bas
 535:D:/DAVE IDE/4.5.0.202105191637/eclipse/workspace/bldcmotor/Libraries/CMSIS/Include\core_cm0.h **** #define SysTick_BASE        (SCS_BASE +  0x0010UL)                    /*!< SysTick Base Address */
 536:D:/DAVE IDE/4.5.0.202105191637/eclipse/workspace/bldcmotor/Libraries/CMSIS/Include\core_cm0.h **** #define NVIC_BASE           (SCS_BASE +  0x0100UL)                    /*!< NVIC Base Address */
 537:D:/DAVE IDE/4.5.0.202105191637/eclipse/workspace/bldcmotor/Libraries/CMSIS/Include\core_cm0.h **** #define SCB_BASE            (SCS_BASE +  0x0D00UL)                    /*!< System Control Block Bas
 538:D:/DAVE IDE/4.5.0.202105191637/eclipse/workspace/bldcmotor/Libraries/CMSIS/Include\core_cm0.h **** 
 539:D:/DAVE IDE/4.5.0.202105191637/eclipse/workspace/bldcmotor/Libraries/CMSIS/Include\core_cm0.h **** #define SCB                 ((SCB_Type       *)     SCB_BASE      )   /*!< SCB configuration struct
 540:D:/DAVE IDE/4.5.0.202105191637/eclipse/workspace/bldcmotor/Libraries/CMSIS/Include\core_cm0.h **** #define SysTick             ((SysTick_Type   *)     SysTick_BASE  )   /*!< SysTick configuration st
 541:D:/DAVE IDE/4.5.0.202105191637/eclipse/workspace/bldcmotor/Libraries/CMSIS/Include\core_cm0.h **** #define NVIC                ((NVIC_Type      *)     NVIC_BASE     )   /*!< NVIC configuration struc
 542:D:/DAVE IDE/4.5.0.202105191637/eclipse/workspace/bldcmotor/Libraries/CMSIS/Include\core_cm0.h **** 
 543:D:/DAVE IDE/4.5.0.202105191637/eclipse/workspace/bldcmotor/Libraries/CMSIS/Include\core_cm0.h **** 
 544:D:/DAVE IDE/4.5.0.202105191637/eclipse/workspace/bldcmotor/Libraries/CMSIS/Include\core_cm0.h **** /*@} */
 545:D:/DAVE IDE/4.5.0.202105191637/eclipse/workspace/bldcmotor/Libraries/CMSIS/Include\core_cm0.h **** 
 546:D:/DAVE IDE/4.5.0.202105191637/eclipse/workspace/bldcmotor/Libraries/CMSIS/Include\core_cm0.h **** 
 547:D:/DAVE IDE/4.5.0.202105191637/eclipse/workspace/bldcmotor/Libraries/CMSIS/Include\core_cm0.h **** 
 548:D:/DAVE IDE/4.5.0.202105191637/eclipse/workspace/bldcmotor/Libraries/CMSIS/Include\core_cm0.h **** /*******************************************************************************
 549:D:/DAVE IDE/4.5.0.202105191637/eclipse/workspace/bldcmotor/Libraries/CMSIS/Include\core_cm0.h ****  *                Hardware Abstraction Layer
 550:D:/DAVE IDE/4.5.0.202105191637/eclipse/workspace/bldcmotor/Libraries/CMSIS/Include\core_cm0.h ****   Core Function Interface contains:
 551:D:/DAVE IDE/4.5.0.202105191637/eclipse/workspace/bldcmotor/Libraries/CMSIS/Include\core_cm0.h ****   - Core NVIC Functions
 552:D:/DAVE IDE/4.5.0.202105191637/eclipse/workspace/bldcmotor/Libraries/CMSIS/Include\core_cm0.h ****   - Core SysTick Functions
 553:D:/DAVE IDE/4.5.0.202105191637/eclipse/workspace/bldcmotor/Libraries/CMSIS/Include\core_cm0.h ****   - Core Register Access Functions
 554:D:/DAVE IDE/4.5.0.202105191637/eclipse/workspace/bldcmotor/Libraries/CMSIS/Include\core_cm0.h ****  ******************************************************************************/
 555:D:/DAVE IDE/4.5.0.202105191637/eclipse/workspace/bldcmotor/Libraries/CMSIS/Include\core_cm0.h **** /**
 556:D:/DAVE IDE/4.5.0.202105191637/eclipse/workspace/bldcmotor/Libraries/CMSIS/Include\core_cm0.h ****   \defgroup CMSIS_Core_FunctionInterface Functions and Instructions Reference
 557:D:/DAVE IDE/4.5.0.202105191637/eclipse/workspace/bldcmotor/Libraries/CMSIS/Include\core_cm0.h **** */
 558:D:/DAVE IDE/4.5.0.202105191637/eclipse/workspace/bldcmotor/Libraries/CMSIS/Include\core_cm0.h **** 
 559:D:/DAVE IDE/4.5.0.202105191637/eclipse/workspace/bldcmotor/Libraries/CMSIS/Include\core_cm0.h **** 
 560:D:/DAVE IDE/4.5.0.202105191637/eclipse/workspace/bldcmotor/Libraries/CMSIS/Include\core_cm0.h **** 
 561:D:/DAVE IDE/4.5.0.202105191637/eclipse/workspace/bldcmotor/Libraries/CMSIS/Include\core_cm0.h **** /* ##########################   NVIC functions  #################################### */
 562:D:/DAVE IDE/4.5.0.202105191637/eclipse/workspace/bldcmotor/Libraries/CMSIS/Include\core_cm0.h **** /**
 563:D:/DAVE IDE/4.5.0.202105191637/eclipse/workspace/bldcmotor/Libraries/CMSIS/Include\core_cm0.h ****   \ingroup  CMSIS_Core_FunctionInterface
 564:D:/DAVE IDE/4.5.0.202105191637/eclipse/workspace/bldcmotor/Libraries/CMSIS/Include\core_cm0.h ****   \defgroup CMSIS_Core_NVICFunctions NVIC Functions
 565:D:/DAVE IDE/4.5.0.202105191637/eclipse/workspace/bldcmotor/Libraries/CMSIS/Include\core_cm0.h ****   \brief    Functions that manage interrupts and exceptions via the NVIC.
 566:D:/DAVE IDE/4.5.0.202105191637/eclipse/workspace/bldcmotor/Libraries/CMSIS/Include\core_cm0.h ****   @{
 567:D:/DAVE IDE/4.5.0.202105191637/eclipse/workspace/bldcmotor/Libraries/CMSIS/Include\core_cm0.h ****  */
 568:D:/DAVE IDE/4.5.0.202105191637/eclipse/workspace/bldcmotor/Libraries/CMSIS/Include\core_cm0.h **** 
 569:D:/DAVE IDE/4.5.0.202105191637/eclipse/workspace/bldcmotor/Libraries/CMSIS/Include\core_cm0.h **** #ifdef CMSIS_NVIC_VIRTUAL
 570:D:/DAVE IDE/4.5.0.202105191637/eclipse/workspace/bldcmotor/Libraries/CMSIS/Include\core_cm0.h ****   #ifndef CMSIS_NVIC_VIRTUAL_HEADER_FILE
 571:D:/DAVE IDE/4.5.0.202105191637/eclipse/workspace/bldcmotor/Libraries/CMSIS/Include\core_cm0.h ****     #define CMSIS_NVIC_VIRTUAL_HEADER_FILE "cmsis_nvic_virtual.h"
 572:D:/DAVE IDE/4.5.0.202105191637/eclipse/workspace/bldcmotor/Libraries/CMSIS/Include\core_cm0.h ****   #endif
 573:D:/DAVE IDE/4.5.0.202105191637/eclipse/workspace/bldcmotor/Libraries/CMSIS/Include\core_cm0.h ****   #include CMSIS_NVIC_VIRTUAL_HEADER_FILE
 574:D:/DAVE IDE/4.5.0.202105191637/eclipse/workspace/bldcmotor/Libraries/CMSIS/Include\core_cm0.h **** #else
 575:D:/DAVE IDE/4.5.0.202105191637/eclipse/workspace/bldcmotor/Libraries/CMSIS/Include\core_cm0.h ****   #define NVIC_SetPriorityGrouping    __NVIC_SetPriorityGrouping
 576:D:/DAVE IDE/4.5.0.202105191637/eclipse/workspace/bldcmotor/Libraries/CMSIS/Include\core_cm0.h ****   #define NVIC_GetPriorityGrouping    __NVIC_GetPriorityGrouping
 577:D:/DAVE IDE/4.5.0.202105191637/eclipse/workspace/bldcmotor/Libraries/CMSIS/Include\core_cm0.h ****   #define NVIC_EnableIRQ              __NVIC_EnableIRQ
 578:D:/DAVE IDE/4.5.0.202105191637/eclipse/workspace/bldcmotor/Libraries/CMSIS/Include\core_cm0.h ****   #define NVIC_GetEnableIRQ           __NVIC_GetEnableIRQ
 579:D:/DAVE IDE/4.5.0.202105191637/eclipse/workspace/bldcmotor/Libraries/CMSIS/Include\core_cm0.h ****   #define NVIC_DisableIRQ             __NVIC_DisableIRQ
 580:D:/DAVE IDE/4.5.0.202105191637/eclipse/workspace/bldcmotor/Libraries/CMSIS/Include\core_cm0.h ****   #define NVIC_GetPendingIRQ          __NVIC_GetPendingIRQ
 581:D:/DAVE IDE/4.5.0.202105191637/eclipse/workspace/bldcmotor/Libraries/CMSIS/Include\core_cm0.h ****   #define NVIC_SetPendingIRQ          __NVIC_SetPendingIRQ
 582:D:/DAVE IDE/4.5.0.202105191637/eclipse/workspace/bldcmotor/Libraries/CMSIS/Include\core_cm0.h ****   #define NVIC_ClearPendingIRQ        __NVIC_ClearPendingIRQ
 583:D:/DAVE IDE/4.5.0.202105191637/eclipse/workspace/bldcmotor/Libraries/CMSIS/Include\core_cm0.h **** /*#define NVIC_GetActive              __NVIC_GetActive             not available for Cortex-M0 */
 584:D:/DAVE IDE/4.5.0.202105191637/eclipse/workspace/bldcmotor/Libraries/CMSIS/Include\core_cm0.h ****   #define NVIC_SetPriority            __NVIC_SetPriority
 585:D:/DAVE IDE/4.5.0.202105191637/eclipse/workspace/bldcmotor/Libraries/CMSIS/Include\core_cm0.h ****   #define NVIC_GetPriority            __NVIC_GetPriority
 586:D:/DAVE IDE/4.5.0.202105191637/eclipse/workspace/bldcmotor/Libraries/CMSIS/Include\core_cm0.h ****   #define NVIC_SystemReset            __NVIC_SystemReset
 587:D:/DAVE IDE/4.5.0.202105191637/eclipse/workspace/bldcmotor/Libraries/CMSIS/Include\core_cm0.h **** #endif /* CMSIS_NVIC_VIRTUAL */
 588:D:/DAVE IDE/4.5.0.202105191637/eclipse/workspace/bldcmotor/Libraries/CMSIS/Include\core_cm0.h **** 
 589:D:/DAVE IDE/4.5.0.202105191637/eclipse/workspace/bldcmotor/Libraries/CMSIS/Include\core_cm0.h **** #ifdef CMSIS_VECTAB_VIRTUAL
 590:D:/DAVE IDE/4.5.0.202105191637/eclipse/workspace/bldcmotor/Libraries/CMSIS/Include\core_cm0.h ****   #ifndef CMSIS_VECTAB_VIRTUAL_HEADER_FILE
 591:D:/DAVE IDE/4.5.0.202105191637/eclipse/workspace/bldcmotor/Libraries/CMSIS/Include\core_cm0.h ****     #define CMSIS_VECTAB_VIRTUAL_HEADER_FILE "cmsis_vectab_virtual.h"
 592:D:/DAVE IDE/4.5.0.202105191637/eclipse/workspace/bldcmotor/Libraries/CMSIS/Include\core_cm0.h ****   #endif
 593:D:/DAVE IDE/4.5.0.202105191637/eclipse/workspace/bldcmotor/Libraries/CMSIS/Include\core_cm0.h ****   #include CMSIS_VECTAB_VIRTUAL_HEADER_FILE
 594:D:/DAVE IDE/4.5.0.202105191637/eclipse/workspace/bldcmotor/Libraries/CMSIS/Include\core_cm0.h **** #else
 595:D:/DAVE IDE/4.5.0.202105191637/eclipse/workspace/bldcmotor/Libraries/CMSIS/Include\core_cm0.h ****   #define NVIC_SetVector              __NVIC_SetVector
 596:D:/DAVE IDE/4.5.0.202105191637/eclipse/workspace/bldcmotor/Libraries/CMSIS/Include\core_cm0.h ****   #define NVIC_GetVector              __NVIC_GetVector
 597:D:/DAVE IDE/4.5.0.202105191637/eclipse/workspace/bldcmotor/Libraries/CMSIS/Include\core_cm0.h **** #endif  /* (CMSIS_VECTAB_VIRTUAL) */
 598:D:/DAVE IDE/4.5.0.202105191637/eclipse/workspace/bldcmotor/Libraries/CMSIS/Include\core_cm0.h **** 
 599:D:/DAVE IDE/4.5.0.202105191637/eclipse/workspace/bldcmotor/Libraries/CMSIS/Include\core_cm0.h **** #define NVIC_USER_IRQ_OFFSET          16
 600:D:/DAVE IDE/4.5.0.202105191637/eclipse/workspace/bldcmotor/Libraries/CMSIS/Include\core_cm0.h **** 
 601:D:/DAVE IDE/4.5.0.202105191637/eclipse/workspace/bldcmotor/Libraries/CMSIS/Include\core_cm0.h **** 
 602:D:/DAVE IDE/4.5.0.202105191637/eclipse/workspace/bldcmotor/Libraries/CMSIS/Include\core_cm0.h **** /* The following EXC_RETURN values are saved the LR on exception entry */
 603:D:/DAVE IDE/4.5.0.202105191637/eclipse/workspace/bldcmotor/Libraries/CMSIS/Include\core_cm0.h **** #define EXC_RETURN_HANDLER         (0xFFFFFFF1UL)     /* return to Handler mode, uses MSP after ret
 604:D:/DAVE IDE/4.5.0.202105191637/eclipse/workspace/bldcmotor/Libraries/CMSIS/Include\core_cm0.h **** #define EXC_RETURN_THREAD_MSP      (0xFFFFFFF9UL)     /* return to Thread mode, uses MSP after retu
 605:D:/DAVE IDE/4.5.0.202105191637/eclipse/workspace/bldcmotor/Libraries/CMSIS/Include\core_cm0.h **** #define EXC_RETURN_THREAD_PSP      (0xFFFFFFFDUL)     /* return to Thread mode, uses PSP after retu
 606:D:/DAVE IDE/4.5.0.202105191637/eclipse/workspace/bldcmotor/Libraries/CMSIS/Include\core_cm0.h **** 
 607:D:/DAVE IDE/4.5.0.202105191637/eclipse/workspace/bldcmotor/Libraries/CMSIS/Include\core_cm0.h **** 
 608:D:/DAVE IDE/4.5.0.202105191637/eclipse/workspace/bldcmotor/Libraries/CMSIS/Include\core_cm0.h **** /* Interrupt Priorities are WORD accessible only under Armv6-M                  */
 609:D:/DAVE IDE/4.5.0.202105191637/eclipse/workspace/bldcmotor/Libraries/CMSIS/Include\core_cm0.h **** /* The following MACROS handle generation of the register offset and byte masks */
 610:D:/DAVE IDE/4.5.0.202105191637/eclipse/workspace/bldcmotor/Libraries/CMSIS/Include\core_cm0.h **** #define _BIT_SHIFT(IRQn)         (  ((((uint32_t)(int32_t)(IRQn))         )      &  0x03UL) * 8UL)
 611:D:/DAVE IDE/4.5.0.202105191637/eclipse/workspace/bldcmotor/Libraries/CMSIS/Include\core_cm0.h **** #define _SHP_IDX(IRQn)           ( (((((uint32_t)(int32_t)(IRQn)) & 0x0FUL)-8UL) >>    2UL)      )
 612:D:/DAVE IDE/4.5.0.202105191637/eclipse/workspace/bldcmotor/Libraries/CMSIS/Include\core_cm0.h **** #define _IP_IDX(IRQn)            (   (((uint32_t)(int32_t)(IRQn))                >>    2UL)      )
 613:D:/DAVE IDE/4.5.0.202105191637/eclipse/workspace/bldcmotor/Libraries/CMSIS/Include\core_cm0.h **** 
 614:D:/DAVE IDE/4.5.0.202105191637/eclipse/workspace/bldcmotor/Libraries/CMSIS/Include\core_cm0.h **** #define __NVIC_SetPriorityGrouping(X) (void)(X)
 615:D:/DAVE IDE/4.5.0.202105191637/eclipse/workspace/bldcmotor/Libraries/CMSIS/Include\core_cm0.h **** #define __NVIC_GetPriorityGrouping()  (0U)
 616:D:/DAVE IDE/4.5.0.202105191637/eclipse/workspace/bldcmotor/Libraries/CMSIS/Include\core_cm0.h **** 
 617:D:/DAVE IDE/4.5.0.202105191637/eclipse/workspace/bldcmotor/Libraries/CMSIS/Include\core_cm0.h **** /**
 618:D:/DAVE IDE/4.5.0.202105191637/eclipse/workspace/bldcmotor/Libraries/CMSIS/Include\core_cm0.h ****   \brief   Enable Interrupt
 619:D:/DAVE IDE/4.5.0.202105191637/eclipse/workspace/bldcmotor/Libraries/CMSIS/Include\core_cm0.h ****   \details Enables a device specific interrupt in the NVIC interrupt controller.
 620:D:/DAVE IDE/4.5.0.202105191637/eclipse/workspace/bldcmotor/Libraries/CMSIS/Include\core_cm0.h ****   \param [in]      IRQn  Device specific interrupt number.
 621:D:/DAVE IDE/4.5.0.202105191637/eclipse/workspace/bldcmotor/Libraries/CMSIS/Include\core_cm0.h ****   \note    IRQn must not be negative.
 622:D:/DAVE IDE/4.5.0.202105191637/eclipse/workspace/bldcmotor/Libraries/CMSIS/Include\core_cm0.h ****  */
 623:D:/DAVE IDE/4.5.0.202105191637/eclipse/workspace/bldcmotor/Libraries/CMSIS/Include\core_cm0.h **** __STATIC_INLINE void __NVIC_EnableIRQ(IRQn_Type IRQn)
 624:D:/DAVE IDE/4.5.0.202105191637/eclipse/workspace/bldcmotor/Libraries/CMSIS/Include\core_cm0.h **** {
 625:D:/DAVE IDE/4.5.0.202105191637/eclipse/workspace/bldcmotor/Libraries/CMSIS/Include\core_cm0.h ****   if ((int32_t)(IRQn) >= 0)
 626:D:/DAVE IDE/4.5.0.202105191637/eclipse/workspace/bldcmotor/Libraries/CMSIS/Include\core_cm0.h ****   {
 627:D:/DAVE IDE/4.5.0.202105191637/eclipse/workspace/bldcmotor/Libraries/CMSIS/Include\core_cm0.h ****     __COMPILER_BARRIER();
 628:D:/DAVE IDE/4.5.0.202105191637/eclipse/workspace/bldcmotor/Libraries/CMSIS/Include\core_cm0.h ****     NVIC->ISER[0U] = (uint32_t)(1UL << (((uint32_t)IRQn) & 0x1FUL));
 629:D:/DAVE IDE/4.5.0.202105191637/eclipse/workspace/bldcmotor/Libraries/CMSIS/Include\core_cm0.h ****     __COMPILER_BARRIER();
 630:D:/DAVE IDE/4.5.0.202105191637/eclipse/workspace/bldcmotor/Libraries/CMSIS/Include\core_cm0.h ****   }
 631:D:/DAVE IDE/4.5.0.202105191637/eclipse/workspace/bldcmotor/Libraries/CMSIS/Include\core_cm0.h **** }
 632:D:/DAVE IDE/4.5.0.202105191637/eclipse/workspace/bldcmotor/Libraries/CMSIS/Include\core_cm0.h **** 
 633:D:/DAVE IDE/4.5.0.202105191637/eclipse/workspace/bldcmotor/Libraries/CMSIS/Include\core_cm0.h **** 
 634:D:/DAVE IDE/4.5.0.202105191637/eclipse/workspace/bldcmotor/Libraries/CMSIS/Include\core_cm0.h **** /**
 635:D:/DAVE IDE/4.5.0.202105191637/eclipse/workspace/bldcmotor/Libraries/CMSIS/Include\core_cm0.h ****   \brief   Get Interrupt Enable status
 636:D:/DAVE IDE/4.5.0.202105191637/eclipse/workspace/bldcmotor/Libraries/CMSIS/Include\core_cm0.h ****   \details Returns a device specific interrupt enable status from the NVIC interrupt controller.
 637:D:/DAVE IDE/4.5.0.202105191637/eclipse/workspace/bldcmotor/Libraries/CMSIS/Include\core_cm0.h ****   \param [in]      IRQn  Device specific interrupt number.
 638:D:/DAVE IDE/4.5.0.202105191637/eclipse/workspace/bldcmotor/Libraries/CMSIS/Include\core_cm0.h ****   \return             0  Interrupt is not enabled.
 639:D:/DAVE IDE/4.5.0.202105191637/eclipse/workspace/bldcmotor/Libraries/CMSIS/Include\core_cm0.h ****   \return             1  Interrupt is enabled.
 640:D:/DAVE IDE/4.5.0.202105191637/eclipse/workspace/bldcmotor/Libraries/CMSIS/Include\core_cm0.h ****   \note    IRQn must not be negative.
 641:D:/DAVE IDE/4.5.0.202105191637/eclipse/workspace/bldcmotor/Libraries/CMSIS/Include\core_cm0.h ****  */
 642:D:/DAVE IDE/4.5.0.202105191637/eclipse/workspace/bldcmotor/Libraries/CMSIS/Include\core_cm0.h **** __STATIC_INLINE uint32_t __NVIC_GetEnableIRQ(IRQn_Type IRQn)
 643:D:/DAVE IDE/4.5.0.202105191637/eclipse/workspace/bldcmotor/Libraries/CMSIS/Include\core_cm0.h **** {
 644:D:/DAVE IDE/4.5.0.202105191637/eclipse/workspace/bldcmotor/Libraries/CMSIS/Include\core_cm0.h ****   if ((int32_t)(IRQn) >= 0)
 645:D:/DAVE IDE/4.5.0.202105191637/eclipse/workspace/bldcmotor/Libraries/CMSIS/Include\core_cm0.h ****   {
 646:D:/DAVE IDE/4.5.0.202105191637/eclipse/workspace/bldcmotor/Libraries/CMSIS/Include\core_cm0.h ****     return((uint32_t)(((NVIC->ISER[0U] & (1UL << (((uint32_t)IRQn) & 0x1FUL))) != 0UL) ? 1UL : 0UL)
 647:D:/DAVE IDE/4.5.0.202105191637/eclipse/workspace/bldcmotor/Libraries/CMSIS/Include\core_cm0.h ****   }
 648:D:/DAVE IDE/4.5.0.202105191637/eclipse/workspace/bldcmotor/Libraries/CMSIS/Include\core_cm0.h ****   else
 649:D:/DAVE IDE/4.5.0.202105191637/eclipse/workspace/bldcmotor/Libraries/CMSIS/Include\core_cm0.h ****   {
 650:D:/DAVE IDE/4.5.0.202105191637/eclipse/workspace/bldcmotor/Libraries/CMSIS/Include\core_cm0.h ****     return(0U);
 651:D:/DAVE IDE/4.5.0.202105191637/eclipse/workspace/bldcmotor/Libraries/CMSIS/Include\core_cm0.h ****   }
 652:D:/DAVE IDE/4.5.0.202105191637/eclipse/workspace/bldcmotor/Libraries/CMSIS/Include\core_cm0.h **** }
 653:D:/DAVE IDE/4.5.0.202105191637/eclipse/workspace/bldcmotor/Libraries/CMSIS/Include\core_cm0.h **** 
 654:D:/DAVE IDE/4.5.0.202105191637/eclipse/workspace/bldcmotor/Libraries/CMSIS/Include\core_cm0.h **** 
 655:D:/DAVE IDE/4.5.0.202105191637/eclipse/workspace/bldcmotor/Libraries/CMSIS/Include\core_cm0.h **** /**
 656:D:/DAVE IDE/4.5.0.202105191637/eclipse/workspace/bldcmotor/Libraries/CMSIS/Include\core_cm0.h ****   \brief   Disable Interrupt
 657:D:/DAVE IDE/4.5.0.202105191637/eclipse/workspace/bldcmotor/Libraries/CMSIS/Include\core_cm0.h ****   \details Disables a device specific interrupt in the NVIC interrupt controller.
 658:D:/DAVE IDE/4.5.0.202105191637/eclipse/workspace/bldcmotor/Libraries/CMSIS/Include\core_cm0.h ****   \param [in]      IRQn  Device specific interrupt number.
 659:D:/DAVE IDE/4.5.0.202105191637/eclipse/workspace/bldcmotor/Libraries/CMSIS/Include\core_cm0.h ****   \note    IRQn must not be negative.
 660:D:/DAVE IDE/4.5.0.202105191637/eclipse/workspace/bldcmotor/Libraries/CMSIS/Include\core_cm0.h ****  */
 661:D:/DAVE IDE/4.5.0.202105191637/eclipse/workspace/bldcmotor/Libraries/CMSIS/Include\core_cm0.h **** __STATIC_INLINE void __NVIC_DisableIRQ(IRQn_Type IRQn)
 662:D:/DAVE IDE/4.5.0.202105191637/eclipse/workspace/bldcmotor/Libraries/CMSIS/Include\core_cm0.h **** {
 663:D:/DAVE IDE/4.5.0.202105191637/eclipse/workspace/bldcmotor/Libraries/CMSIS/Include\core_cm0.h ****   if ((int32_t)(IRQn) >= 0)
 664:D:/DAVE IDE/4.5.0.202105191637/eclipse/workspace/bldcmotor/Libraries/CMSIS/Include\core_cm0.h ****   {
 665:D:/DAVE IDE/4.5.0.202105191637/eclipse/workspace/bldcmotor/Libraries/CMSIS/Include\core_cm0.h ****     NVIC->ICER[0U] = (uint32_t)(1UL << (((uint32_t)IRQn) & 0x1FUL));
 666:D:/DAVE IDE/4.5.0.202105191637/eclipse/workspace/bldcmotor/Libraries/CMSIS/Include\core_cm0.h ****     __DSB();
 667:D:/DAVE IDE/4.5.0.202105191637/eclipse/workspace/bldcmotor/Libraries/CMSIS/Include\core_cm0.h ****     __ISB();
 668:D:/DAVE IDE/4.5.0.202105191637/eclipse/workspace/bldcmotor/Libraries/CMSIS/Include\core_cm0.h ****   }
 669:D:/DAVE IDE/4.5.0.202105191637/eclipse/workspace/bldcmotor/Libraries/CMSIS/Include\core_cm0.h **** }
 670:D:/DAVE IDE/4.5.0.202105191637/eclipse/workspace/bldcmotor/Libraries/CMSIS/Include\core_cm0.h **** 
 671:D:/DAVE IDE/4.5.0.202105191637/eclipse/workspace/bldcmotor/Libraries/CMSIS/Include\core_cm0.h **** 
 672:D:/DAVE IDE/4.5.0.202105191637/eclipse/workspace/bldcmotor/Libraries/CMSIS/Include\core_cm0.h **** /**
 673:D:/DAVE IDE/4.5.0.202105191637/eclipse/workspace/bldcmotor/Libraries/CMSIS/Include\core_cm0.h ****   \brief   Get Pending Interrupt
 674:D:/DAVE IDE/4.5.0.202105191637/eclipse/workspace/bldcmotor/Libraries/CMSIS/Include\core_cm0.h ****   \details Reads the NVIC pending register and returns the pending bit for the specified device spe
 675:D:/DAVE IDE/4.5.0.202105191637/eclipse/workspace/bldcmotor/Libraries/CMSIS/Include\core_cm0.h ****   \param [in]      IRQn  Device specific interrupt number.
 676:D:/DAVE IDE/4.5.0.202105191637/eclipse/workspace/bldcmotor/Libraries/CMSIS/Include\core_cm0.h ****   \return             0  Interrupt status is not pending.
 677:D:/DAVE IDE/4.5.0.202105191637/eclipse/workspace/bldcmotor/Libraries/CMSIS/Include\core_cm0.h ****   \return             1  Interrupt status is pending.
 678:D:/DAVE IDE/4.5.0.202105191637/eclipse/workspace/bldcmotor/Libraries/CMSIS/Include\core_cm0.h ****   \note    IRQn must not be negative.
 679:D:/DAVE IDE/4.5.0.202105191637/eclipse/workspace/bldcmotor/Libraries/CMSIS/Include\core_cm0.h ****  */
 680:D:/DAVE IDE/4.5.0.202105191637/eclipse/workspace/bldcmotor/Libraries/CMSIS/Include\core_cm0.h **** __STATIC_INLINE uint32_t __NVIC_GetPendingIRQ(IRQn_Type IRQn)
 681:D:/DAVE IDE/4.5.0.202105191637/eclipse/workspace/bldcmotor/Libraries/CMSIS/Include\core_cm0.h **** {
 682:D:/DAVE IDE/4.5.0.202105191637/eclipse/workspace/bldcmotor/Libraries/CMSIS/Include\core_cm0.h ****   if ((int32_t)(IRQn) >= 0)
 683:D:/DAVE IDE/4.5.0.202105191637/eclipse/workspace/bldcmotor/Libraries/CMSIS/Include\core_cm0.h ****   {
 684:D:/DAVE IDE/4.5.0.202105191637/eclipse/workspace/bldcmotor/Libraries/CMSIS/Include\core_cm0.h ****     return((uint32_t)(((NVIC->ISPR[0U] & (1UL << (((uint32_t)IRQn) & 0x1FUL))) != 0UL) ? 1UL : 0UL)
 685:D:/DAVE IDE/4.5.0.202105191637/eclipse/workspace/bldcmotor/Libraries/CMSIS/Include\core_cm0.h ****   }
 686:D:/DAVE IDE/4.5.0.202105191637/eclipse/workspace/bldcmotor/Libraries/CMSIS/Include\core_cm0.h ****   else
 687:D:/DAVE IDE/4.5.0.202105191637/eclipse/workspace/bldcmotor/Libraries/CMSIS/Include\core_cm0.h ****   {
 688:D:/DAVE IDE/4.5.0.202105191637/eclipse/workspace/bldcmotor/Libraries/CMSIS/Include\core_cm0.h ****     return(0U);
 689:D:/DAVE IDE/4.5.0.202105191637/eclipse/workspace/bldcmotor/Libraries/CMSIS/Include\core_cm0.h ****   }
 690:D:/DAVE IDE/4.5.0.202105191637/eclipse/workspace/bldcmotor/Libraries/CMSIS/Include\core_cm0.h **** }
 691:D:/DAVE IDE/4.5.0.202105191637/eclipse/workspace/bldcmotor/Libraries/CMSIS/Include\core_cm0.h **** 
 692:D:/DAVE IDE/4.5.0.202105191637/eclipse/workspace/bldcmotor/Libraries/CMSIS/Include\core_cm0.h **** 
 693:D:/DAVE IDE/4.5.0.202105191637/eclipse/workspace/bldcmotor/Libraries/CMSIS/Include\core_cm0.h **** /**
 694:D:/DAVE IDE/4.5.0.202105191637/eclipse/workspace/bldcmotor/Libraries/CMSIS/Include\core_cm0.h ****   \brief   Set Pending Interrupt
 695:D:/DAVE IDE/4.5.0.202105191637/eclipse/workspace/bldcmotor/Libraries/CMSIS/Include\core_cm0.h ****   \details Sets the pending bit of a device specific interrupt in the NVIC pending register.
 696:D:/DAVE IDE/4.5.0.202105191637/eclipse/workspace/bldcmotor/Libraries/CMSIS/Include\core_cm0.h ****   \param [in]      IRQn  Device specific interrupt number.
 697:D:/DAVE IDE/4.5.0.202105191637/eclipse/workspace/bldcmotor/Libraries/CMSIS/Include\core_cm0.h ****   \note    IRQn must not be negative.
 698:D:/DAVE IDE/4.5.0.202105191637/eclipse/workspace/bldcmotor/Libraries/CMSIS/Include\core_cm0.h ****  */
 699:D:/DAVE IDE/4.5.0.202105191637/eclipse/workspace/bldcmotor/Libraries/CMSIS/Include\core_cm0.h **** __STATIC_INLINE void __NVIC_SetPendingIRQ(IRQn_Type IRQn)
 700:D:/DAVE IDE/4.5.0.202105191637/eclipse/workspace/bldcmotor/Libraries/CMSIS/Include\core_cm0.h **** {
 701:D:/DAVE IDE/4.5.0.202105191637/eclipse/workspace/bldcmotor/Libraries/CMSIS/Include\core_cm0.h ****   if ((int32_t)(IRQn) >= 0)
 702:D:/DAVE IDE/4.5.0.202105191637/eclipse/workspace/bldcmotor/Libraries/CMSIS/Include\core_cm0.h ****   {
 703:D:/DAVE IDE/4.5.0.202105191637/eclipse/workspace/bldcmotor/Libraries/CMSIS/Include\core_cm0.h ****     NVIC->ISPR[0U] = (uint32_t)(1UL << (((uint32_t)IRQn) & 0x1FUL));
 704:D:/DAVE IDE/4.5.0.202105191637/eclipse/workspace/bldcmotor/Libraries/CMSIS/Include\core_cm0.h ****   }
 705:D:/DAVE IDE/4.5.0.202105191637/eclipse/workspace/bldcmotor/Libraries/CMSIS/Include\core_cm0.h **** }
 706:D:/DAVE IDE/4.5.0.202105191637/eclipse/workspace/bldcmotor/Libraries/CMSIS/Include\core_cm0.h **** 
 707:D:/DAVE IDE/4.5.0.202105191637/eclipse/workspace/bldcmotor/Libraries/CMSIS/Include\core_cm0.h **** 
 708:D:/DAVE IDE/4.5.0.202105191637/eclipse/workspace/bldcmotor/Libraries/CMSIS/Include\core_cm0.h **** /**
 709:D:/DAVE IDE/4.5.0.202105191637/eclipse/workspace/bldcmotor/Libraries/CMSIS/Include\core_cm0.h ****   \brief   Clear Pending Interrupt
 710:D:/DAVE IDE/4.5.0.202105191637/eclipse/workspace/bldcmotor/Libraries/CMSIS/Include\core_cm0.h ****   \details Clears the pending bit of a device specific interrupt in the NVIC pending register.
 711:D:/DAVE IDE/4.5.0.202105191637/eclipse/workspace/bldcmotor/Libraries/CMSIS/Include\core_cm0.h ****   \param [in]      IRQn  Device specific interrupt number.
 712:D:/DAVE IDE/4.5.0.202105191637/eclipse/workspace/bldcmotor/Libraries/CMSIS/Include\core_cm0.h ****   \note    IRQn must not be negative.
 713:D:/DAVE IDE/4.5.0.202105191637/eclipse/workspace/bldcmotor/Libraries/CMSIS/Include\core_cm0.h ****  */
 714:D:/DAVE IDE/4.5.0.202105191637/eclipse/workspace/bldcmotor/Libraries/CMSIS/Include\core_cm0.h **** __STATIC_INLINE void __NVIC_ClearPendingIRQ(IRQn_Type IRQn)
 715:D:/DAVE IDE/4.5.0.202105191637/eclipse/workspace/bldcmotor/Libraries/CMSIS/Include\core_cm0.h **** {
 716:D:/DAVE IDE/4.5.0.202105191637/eclipse/workspace/bldcmotor/Libraries/CMSIS/Include\core_cm0.h ****   if ((int32_t)(IRQn) >= 0)
 717:D:/DAVE IDE/4.5.0.202105191637/eclipse/workspace/bldcmotor/Libraries/CMSIS/Include\core_cm0.h ****   {
 718:D:/DAVE IDE/4.5.0.202105191637/eclipse/workspace/bldcmotor/Libraries/CMSIS/Include\core_cm0.h ****     NVIC->ICPR[0U] = (uint32_t)(1UL << (((uint32_t)IRQn) & 0x1FUL));
 719:D:/DAVE IDE/4.5.0.202105191637/eclipse/workspace/bldcmotor/Libraries/CMSIS/Include\core_cm0.h ****   }
 720:D:/DAVE IDE/4.5.0.202105191637/eclipse/workspace/bldcmotor/Libraries/CMSIS/Include\core_cm0.h **** }
 721:D:/DAVE IDE/4.5.0.202105191637/eclipse/workspace/bldcmotor/Libraries/CMSIS/Include\core_cm0.h **** 
 722:D:/DAVE IDE/4.5.0.202105191637/eclipse/workspace/bldcmotor/Libraries/CMSIS/Include\core_cm0.h **** 
 723:D:/DAVE IDE/4.5.0.202105191637/eclipse/workspace/bldcmotor/Libraries/CMSIS/Include\core_cm0.h **** /**
 724:D:/DAVE IDE/4.5.0.202105191637/eclipse/workspace/bldcmotor/Libraries/CMSIS/Include\core_cm0.h ****   \brief   Set Interrupt Priority
 725:D:/DAVE IDE/4.5.0.202105191637/eclipse/workspace/bldcmotor/Libraries/CMSIS/Include\core_cm0.h ****   \details Sets the priority of a device specific interrupt or a processor exception.
 726:D:/DAVE IDE/4.5.0.202105191637/eclipse/workspace/bldcmotor/Libraries/CMSIS/Include\core_cm0.h ****            The interrupt number can be positive to specify a device specific interrupt,
 727:D:/DAVE IDE/4.5.0.202105191637/eclipse/workspace/bldcmotor/Libraries/CMSIS/Include\core_cm0.h ****            or negative to specify a processor exception.
 728:D:/DAVE IDE/4.5.0.202105191637/eclipse/workspace/bldcmotor/Libraries/CMSIS/Include\core_cm0.h ****   \param [in]      IRQn  Interrupt number.
 729:D:/DAVE IDE/4.5.0.202105191637/eclipse/workspace/bldcmotor/Libraries/CMSIS/Include\core_cm0.h ****   \param [in]  priority  Priority to set.
 730:D:/DAVE IDE/4.5.0.202105191637/eclipse/workspace/bldcmotor/Libraries/CMSIS/Include\core_cm0.h ****   \note    The priority cannot be set for every processor exception.
 731:D:/DAVE IDE/4.5.0.202105191637/eclipse/workspace/bldcmotor/Libraries/CMSIS/Include\core_cm0.h ****  */
 732:D:/DAVE IDE/4.5.0.202105191637/eclipse/workspace/bldcmotor/Libraries/CMSIS/Include\core_cm0.h **** __STATIC_INLINE void __NVIC_SetPriority(IRQn_Type IRQn, uint32_t priority)
 733:D:/DAVE IDE/4.5.0.202105191637/eclipse/workspace/bldcmotor/Libraries/CMSIS/Include\core_cm0.h **** {
  25              	 .loc 1 733 0
  26              	 .cfi_startproc
  27 0000 B0B5     	 push {r4,r5,r7,lr}
  28              	.LCFI0:
  29              	 .cfi_def_cfa_offset 16
  30              	 .cfi_offset 4,-16
  31              	 .cfi_offset 5,-12
  32              	 .cfi_offset 7,-8
  33              	 .cfi_offset 14,-4
  34 0002 82B0     	 sub sp,sp,#8
  35              	.LCFI1:
  36              	 .cfi_def_cfa_offset 24
  37 0004 00AF     	 add r7,sp,#0
  38              	.LCFI2:
  39              	 .cfi_def_cfa_register 7
  40 0006 021C     	 mov r2,r0
  41 0008 3960     	 str r1,[r7]
  42 000a FB1D     	 add r3,r7,#7
  43 000c 1A70     	 strb r2,[r3]
 734:D:/DAVE IDE/4.5.0.202105191637/eclipse/workspace/bldcmotor/Libraries/CMSIS/Include\core_cm0.h ****   if ((int32_t)(IRQn) >= 0)
  44              	 .loc 1 734 0
  45 000e FB1D     	 add r3,r7,#7
  46 0010 1B78     	 ldrb r3,[r3]
  47 0012 7F2B     	 cmp r3,#127
  48 0014 27D8     	 bhi .L2
 735:D:/DAVE IDE/4.5.0.202105191637/eclipse/workspace/bldcmotor/Libraries/CMSIS/Include\core_cm0.h ****   {
 736:D:/DAVE IDE/4.5.0.202105191637/eclipse/workspace/bldcmotor/Libraries/CMSIS/Include\core_cm0.h ****     NVIC->IP[_IP_IDX(IRQn)]  = ((uint32_t)(NVIC->IP[_IP_IDX(IRQn)]  & ~(0xFFUL << _BIT_SHIFT(IRQn))
  49              	 .loc 1 736 0
  50 0016 2D4C     	 ldr r4,.L4
  51 0018 FB1D     	 add r3,r7,#7
  52 001a 1B78     	 ldrb r3,[r3]
  53 001c 5BB2     	 sxtb r3,r3
  54 001e 9B08     	 lsr r3,r3,#2
  55 0020 2A49     	 ldr r1,.L4
  56 0022 FA1D     	 add r2,r7,#7
  57 0024 1278     	 ldrb r2,[r2]
  58 0026 52B2     	 sxtb r2,r2
  59 0028 9208     	 lsr r2,r2,#2
  60 002a C032     	 add r2,r2,#192
  61 002c 9200     	 lsl r2,r2,#2
  62 002e 5258     	 ldr r2,[r2,r1]
  63 0030 F91D     	 add r1,r7,#7
  64 0032 0978     	 ldrb r1,[r1]
  65 0034 081C     	 mov r0,r1
  66 0036 0321     	 mov r1,#3
  67 0038 0140     	 and r1,r0
  68 003a C900     	 lsl r1,r1,#3
  69 003c 081C     	 mov r0,r1
  70 003e FF21     	 mov r1,#255
  71 0040 8140     	 lsl r1,r1,r0
  72 0042 C943     	 mvn r1,r1
  73 0044 1140     	 and r1,r2
 737:D:/DAVE IDE/4.5.0.202105191637/eclipse/workspace/bldcmotor/Libraries/CMSIS/Include\core_cm0.h ****        (((priority << (8U - __NVIC_PRIO_BITS)) & (uint32_t)0xFFUL) << _BIT_SHIFT(IRQn)));
  74              	 .loc 1 737 0
  75 0046 3A68     	 ldr r2,[r7]
  76 0048 9201     	 lsl r2,r2,#6
  77 004a FF20     	 mov r0,#255
  78 004c 0240     	 and r2,r0
  79 004e F81D     	 add r0,r7,#7
  80 0050 0078     	 ldrb r0,[r0]
  81 0052 051C     	 mov r5,r0
  82 0054 0320     	 mov r0,#3
  83 0056 2840     	 and r0,r5
  84 0058 C000     	 lsl r0,r0,#3
  85 005a 8240     	 lsl r2,r2,r0
 736:D:/DAVE IDE/4.5.0.202105191637/eclipse/workspace/bldcmotor/Libraries/CMSIS/Include\core_cm0.h ****        (((priority << (8U - __NVIC_PRIO_BITS)) & (uint32_t)0xFFUL) << _BIT_SHIFT(IRQn)));
  86              	 .loc 1 736 0
  87 005c 0A43     	 orr r2,r1
  88 005e C033     	 add r3,r3,#192
  89 0060 9B00     	 lsl r3,r3,#2
  90 0062 1A51     	 str r2,[r3,r4]
  91 0064 2EE0     	 b .L1
  92              	.L2:
 738:D:/DAVE IDE/4.5.0.202105191637/eclipse/workspace/bldcmotor/Libraries/CMSIS/Include\core_cm0.h ****   }
 739:D:/DAVE IDE/4.5.0.202105191637/eclipse/workspace/bldcmotor/Libraries/CMSIS/Include\core_cm0.h ****   else
 740:D:/DAVE IDE/4.5.0.202105191637/eclipse/workspace/bldcmotor/Libraries/CMSIS/Include\core_cm0.h ****   {
 741:D:/DAVE IDE/4.5.0.202105191637/eclipse/workspace/bldcmotor/Libraries/CMSIS/Include\core_cm0.h ****     SCB->SHP[_SHP_IDX(IRQn)] = ((uint32_t)(SCB->SHP[_SHP_IDX(IRQn)] & ~(0xFFUL << _BIT_SHIFT(IRQn))
  93              	 .loc 1 741 0
  94 0066 1A4C     	 ldr r4,.L4+4
  95 0068 FB1D     	 add r3,r7,#7
  96 006a 1B78     	 ldrb r3,[r3]
  97 006c 1A1C     	 mov r2,r3
  98 006e 0F23     	 mov r3,#15
  99 0070 1340     	 and r3,r2
 100 0072 083B     	 sub r3,r3,#8
 101 0074 9908     	 lsr r1,r3,#2
 102 0076 164A     	 ldr r2,.L4+4
 103 0078 FB1D     	 add r3,r7,#7
 104 007a 1B78     	 ldrb r3,[r3]
 105 007c 181C     	 mov r0,r3
 106 007e 0F23     	 mov r3,#15
 107 0080 0340     	 and r3,r0
 108 0082 083B     	 sub r3,r3,#8
 109 0084 9B08     	 lsr r3,r3,#2
 110 0086 0633     	 add r3,r3,#6
 111 0088 9B00     	 lsl r3,r3,#2
 112 008a D318     	 add r3,r2,r3
 113 008c 5B68     	 ldr r3,[r3,#4]
 114 008e FA1D     	 add r2,r7,#7
 115 0090 1278     	 ldrb r2,[r2]
 116 0092 101C     	 mov r0,r2
 117 0094 0322     	 mov r2,#3
 118 0096 0240     	 and r2,r0
 119 0098 D200     	 lsl r2,r2,#3
 120 009a 101C     	 mov r0,r2
 121 009c FF22     	 mov r2,#255
 122 009e 8240     	 lsl r2,r2,r0
 123 00a0 D243     	 mvn r2,r2
 124 00a2 1A40     	 and r2,r3
 742:D:/DAVE IDE/4.5.0.202105191637/eclipse/workspace/bldcmotor/Libraries/CMSIS/Include\core_cm0.h ****        (((priority << (8U - __NVIC_PRIO_BITS)) & (uint32_t)0xFFUL) << _BIT_SHIFT(IRQn)));
 125              	 .loc 1 742 0
 126 00a4 3B68     	 ldr r3,[r7]
 127 00a6 9B01     	 lsl r3,r3,#6
 128 00a8 FF20     	 mov r0,#255
 129 00aa 0340     	 and r3,r0
 130 00ac F81D     	 add r0,r7,#7
 131 00ae 0078     	 ldrb r0,[r0]
 132 00b0 051C     	 mov r5,r0
 133 00b2 0320     	 mov r0,#3
 134 00b4 2840     	 and r0,r5
 135 00b6 C000     	 lsl r0,r0,#3
 136 00b8 8340     	 lsl r3,r3,r0
 741:D:/DAVE IDE/4.5.0.202105191637/eclipse/workspace/bldcmotor/Libraries/CMSIS/Include\core_cm0.h ****        (((priority << (8U - __NVIC_PRIO_BITS)) & (uint32_t)0xFFUL) << _BIT_SHIFT(IRQn)));
 137              	 .loc 1 741 0
 138 00ba 1A43     	 orr r2,r3
 139 00bc 8B1D     	 add r3,r1,#6
 140 00be 9B00     	 lsl r3,r3,#2
 141 00c0 E318     	 add r3,r4,r3
 142 00c2 5A60     	 str r2,[r3,#4]
 143              	.L1:
 743:D:/DAVE IDE/4.5.0.202105191637/eclipse/workspace/bldcmotor/Libraries/CMSIS/Include\core_cm0.h ****   }
 744:D:/DAVE IDE/4.5.0.202105191637/eclipse/workspace/bldcmotor/Libraries/CMSIS/Include\core_cm0.h **** }
 144              	 .loc 1 744 0
 145 00c4 BD46     	 mov sp,r7
 146 00c6 02B0     	 add sp,sp,#8
 147              	 
 148 00c8 B0BD     	 pop {r4,r5,r7,pc}
 149              	.L5:
 150 00ca C046     	 .align 2
 151              	.L4:
 152 00cc 00E100E0 	 .word -536813312
 153 00d0 00ED00E0 	 .word -536810240
 154              	 .cfi_endproc
 155              	.LFE33:
 157              	 .section .text.SysTick_Config,"ax",%progbits
 158              	 .align 2
 159              	 .code 16
 160              	 .thumb_func
 162              	SysTick_Config:
 163              	.LFB41:
 745:D:/DAVE IDE/4.5.0.202105191637/eclipse/workspace/bldcmotor/Libraries/CMSIS/Include\core_cm0.h **** 
 746:D:/DAVE IDE/4.5.0.202105191637/eclipse/workspace/bldcmotor/Libraries/CMSIS/Include\core_cm0.h **** 
 747:D:/DAVE IDE/4.5.0.202105191637/eclipse/workspace/bldcmotor/Libraries/CMSIS/Include\core_cm0.h **** /**
 748:D:/DAVE IDE/4.5.0.202105191637/eclipse/workspace/bldcmotor/Libraries/CMSIS/Include\core_cm0.h ****   \brief   Get Interrupt Priority
 749:D:/DAVE IDE/4.5.0.202105191637/eclipse/workspace/bldcmotor/Libraries/CMSIS/Include\core_cm0.h ****   \details Reads the priority of a device specific interrupt or a processor exception.
 750:D:/DAVE IDE/4.5.0.202105191637/eclipse/workspace/bldcmotor/Libraries/CMSIS/Include\core_cm0.h ****            The interrupt number can be positive to specify a device specific interrupt,
 751:D:/DAVE IDE/4.5.0.202105191637/eclipse/workspace/bldcmotor/Libraries/CMSIS/Include\core_cm0.h ****            or negative to specify a processor exception.
 752:D:/DAVE IDE/4.5.0.202105191637/eclipse/workspace/bldcmotor/Libraries/CMSIS/Include\core_cm0.h ****   \param [in]   IRQn  Interrupt number.
 753:D:/DAVE IDE/4.5.0.202105191637/eclipse/workspace/bldcmotor/Libraries/CMSIS/Include\core_cm0.h ****   \return             Interrupt Priority.
 754:D:/DAVE IDE/4.5.0.202105191637/eclipse/workspace/bldcmotor/Libraries/CMSIS/Include\core_cm0.h ****                       Value is aligned automatically to the implemented priority bits of the microc
 755:D:/DAVE IDE/4.5.0.202105191637/eclipse/workspace/bldcmotor/Libraries/CMSIS/Include\core_cm0.h ****  */
 756:D:/DAVE IDE/4.5.0.202105191637/eclipse/workspace/bldcmotor/Libraries/CMSIS/Include\core_cm0.h **** __STATIC_INLINE uint32_t __NVIC_GetPriority(IRQn_Type IRQn)
 757:D:/DAVE IDE/4.5.0.202105191637/eclipse/workspace/bldcmotor/Libraries/CMSIS/Include\core_cm0.h **** {
 758:D:/DAVE IDE/4.5.0.202105191637/eclipse/workspace/bldcmotor/Libraries/CMSIS/Include\core_cm0.h **** 
 759:D:/DAVE IDE/4.5.0.202105191637/eclipse/workspace/bldcmotor/Libraries/CMSIS/Include\core_cm0.h ****   if ((int32_t)(IRQn) >= 0)
 760:D:/DAVE IDE/4.5.0.202105191637/eclipse/workspace/bldcmotor/Libraries/CMSIS/Include\core_cm0.h ****   {
 761:D:/DAVE IDE/4.5.0.202105191637/eclipse/workspace/bldcmotor/Libraries/CMSIS/Include\core_cm0.h ****     return((uint32_t)(((NVIC->IP[ _IP_IDX(IRQn)] >> _BIT_SHIFT(IRQn) ) & (uint32_t)0xFFUL) >> (8U -
 762:D:/DAVE IDE/4.5.0.202105191637/eclipse/workspace/bldcmotor/Libraries/CMSIS/Include\core_cm0.h ****   }
 763:D:/DAVE IDE/4.5.0.202105191637/eclipse/workspace/bldcmotor/Libraries/CMSIS/Include\core_cm0.h ****   else
 764:D:/DAVE IDE/4.5.0.202105191637/eclipse/workspace/bldcmotor/Libraries/CMSIS/Include\core_cm0.h ****   {
 765:D:/DAVE IDE/4.5.0.202105191637/eclipse/workspace/bldcmotor/Libraries/CMSIS/Include\core_cm0.h ****     return((uint32_t)(((SCB->SHP[_SHP_IDX(IRQn)] >> _BIT_SHIFT(IRQn) ) & (uint32_t)0xFFUL) >> (8U -
 766:D:/DAVE IDE/4.5.0.202105191637/eclipse/workspace/bldcmotor/Libraries/CMSIS/Include\core_cm0.h ****   }
 767:D:/DAVE IDE/4.5.0.202105191637/eclipse/workspace/bldcmotor/Libraries/CMSIS/Include\core_cm0.h **** }
 768:D:/DAVE IDE/4.5.0.202105191637/eclipse/workspace/bldcmotor/Libraries/CMSIS/Include\core_cm0.h **** 
 769:D:/DAVE IDE/4.5.0.202105191637/eclipse/workspace/bldcmotor/Libraries/CMSIS/Include\core_cm0.h **** 
 770:D:/DAVE IDE/4.5.0.202105191637/eclipse/workspace/bldcmotor/Libraries/CMSIS/Include\core_cm0.h **** /**
 771:D:/DAVE IDE/4.5.0.202105191637/eclipse/workspace/bldcmotor/Libraries/CMSIS/Include\core_cm0.h ****   \brief   Encode Priority
 772:D:/DAVE IDE/4.5.0.202105191637/eclipse/workspace/bldcmotor/Libraries/CMSIS/Include\core_cm0.h ****   \details Encodes the priority for an interrupt with the given priority group,
 773:D:/DAVE IDE/4.5.0.202105191637/eclipse/workspace/bldcmotor/Libraries/CMSIS/Include\core_cm0.h ****            preemptive priority value, and subpriority value.
 774:D:/DAVE IDE/4.5.0.202105191637/eclipse/workspace/bldcmotor/Libraries/CMSIS/Include\core_cm0.h ****            In case of a conflict between priority grouping and available
 775:D:/DAVE IDE/4.5.0.202105191637/eclipse/workspace/bldcmotor/Libraries/CMSIS/Include\core_cm0.h ****            priority bits (__NVIC_PRIO_BITS), the smallest possible priority group is set.
 776:D:/DAVE IDE/4.5.0.202105191637/eclipse/workspace/bldcmotor/Libraries/CMSIS/Include\core_cm0.h ****   \param [in]     PriorityGroup  Used priority group.
 777:D:/DAVE IDE/4.5.0.202105191637/eclipse/workspace/bldcmotor/Libraries/CMSIS/Include\core_cm0.h ****   \param [in]   PreemptPriority  Preemptive priority value (starting from 0).
 778:D:/DAVE IDE/4.5.0.202105191637/eclipse/workspace/bldcmotor/Libraries/CMSIS/Include\core_cm0.h ****   \param [in]       SubPriority  Subpriority value (starting from 0).
 779:D:/DAVE IDE/4.5.0.202105191637/eclipse/workspace/bldcmotor/Libraries/CMSIS/Include\core_cm0.h ****   \return                        Encoded priority. Value can be used in the function \ref NVIC_SetP
 780:D:/DAVE IDE/4.5.0.202105191637/eclipse/workspace/bldcmotor/Libraries/CMSIS/Include\core_cm0.h ****  */
 781:D:/DAVE IDE/4.5.0.202105191637/eclipse/workspace/bldcmotor/Libraries/CMSIS/Include\core_cm0.h **** __STATIC_INLINE uint32_t NVIC_EncodePriority (uint32_t PriorityGroup, uint32_t PreemptPriority, uin
 782:D:/DAVE IDE/4.5.0.202105191637/eclipse/workspace/bldcmotor/Libraries/CMSIS/Include\core_cm0.h **** {
 783:D:/DAVE IDE/4.5.0.202105191637/eclipse/workspace/bldcmotor/Libraries/CMSIS/Include\core_cm0.h ****   uint32_t PriorityGroupTmp = (PriorityGroup & (uint32_t)0x07UL);   /* only values 0..7 are used   
 784:D:/DAVE IDE/4.5.0.202105191637/eclipse/workspace/bldcmotor/Libraries/CMSIS/Include\core_cm0.h ****   uint32_t PreemptPriorityBits;
 785:D:/DAVE IDE/4.5.0.202105191637/eclipse/workspace/bldcmotor/Libraries/CMSIS/Include\core_cm0.h ****   uint32_t SubPriorityBits;
 786:D:/DAVE IDE/4.5.0.202105191637/eclipse/workspace/bldcmotor/Libraries/CMSIS/Include\core_cm0.h **** 
 787:D:/DAVE IDE/4.5.0.202105191637/eclipse/workspace/bldcmotor/Libraries/CMSIS/Include\core_cm0.h ****   PreemptPriorityBits = ((7UL - PriorityGroupTmp) > (uint32_t)(__NVIC_PRIO_BITS)) ? (uint32_t)(__NV
 788:D:/DAVE IDE/4.5.0.202105191637/eclipse/workspace/bldcmotor/Libraries/CMSIS/Include\core_cm0.h ****   SubPriorityBits     = ((PriorityGroupTmp + (uint32_t)(__NVIC_PRIO_BITS)) < (uint32_t)7UL) ? (uint
 789:D:/DAVE IDE/4.5.0.202105191637/eclipse/workspace/bldcmotor/Libraries/CMSIS/Include\core_cm0.h **** 
 790:D:/DAVE IDE/4.5.0.202105191637/eclipse/workspace/bldcmotor/Libraries/CMSIS/Include\core_cm0.h ****   return (
 791:D:/DAVE IDE/4.5.0.202105191637/eclipse/workspace/bldcmotor/Libraries/CMSIS/Include\core_cm0.h ****            ((PreemptPriority & (uint32_t)((1UL << (PreemptPriorityBits)) - 1UL)) << SubPriorityBits
 792:D:/DAVE IDE/4.5.0.202105191637/eclipse/workspace/bldcmotor/Libraries/CMSIS/Include\core_cm0.h ****            ((SubPriority     & (uint32_t)((1UL << (SubPriorityBits    )) - 1UL)))
 793:D:/DAVE IDE/4.5.0.202105191637/eclipse/workspace/bldcmotor/Libraries/CMSIS/Include\core_cm0.h ****          );
 794:D:/DAVE IDE/4.5.0.202105191637/eclipse/workspace/bldcmotor/Libraries/CMSIS/Include\core_cm0.h **** }
 795:D:/DAVE IDE/4.5.0.202105191637/eclipse/workspace/bldcmotor/Libraries/CMSIS/Include\core_cm0.h **** 
 796:D:/DAVE IDE/4.5.0.202105191637/eclipse/workspace/bldcmotor/Libraries/CMSIS/Include\core_cm0.h **** 
 797:D:/DAVE IDE/4.5.0.202105191637/eclipse/workspace/bldcmotor/Libraries/CMSIS/Include\core_cm0.h **** /**
 798:D:/DAVE IDE/4.5.0.202105191637/eclipse/workspace/bldcmotor/Libraries/CMSIS/Include\core_cm0.h ****   \brief   Decode Priority
 799:D:/DAVE IDE/4.5.0.202105191637/eclipse/workspace/bldcmotor/Libraries/CMSIS/Include\core_cm0.h ****   \details Decodes an interrupt priority value with a given priority group to
 800:D:/DAVE IDE/4.5.0.202105191637/eclipse/workspace/bldcmotor/Libraries/CMSIS/Include\core_cm0.h ****            preemptive priority value and subpriority value.
 801:D:/DAVE IDE/4.5.0.202105191637/eclipse/workspace/bldcmotor/Libraries/CMSIS/Include\core_cm0.h ****            In case of a conflict between priority grouping and available
 802:D:/DAVE IDE/4.5.0.202105191637/eclipse/workspace/bldcmotor/Libraries/CMSIS/Include\core_cm0.h ****            priority bits (__NVIC_PRIO_BITS) the smallest possible priority group is set.
 803:D:/DAVE IDE/4.5.0.202105191637/eclipse/workspace/bldcmotor/Libraries/CMSIS/Include\core_cm0.h ****   \param [in]         Priority   Priority value, which can be retrieved with the function \ref NVIC
 804:D:/DAVE IDE/4.5.0.202105191637/eclipse/workspace/bldcmotor/Libraries/CMSIS/Include\core_cm0.h ****   \param [in]     PriorityGroup  Used priority group.
 805:D:/DAVE IDE/4.5.0.202105191637/eclipse/workspace/bldcmotor/Libraries/CMSIS/Include\core_cm0.h ****   \param [out] pPreemptPriority  Preemptive priority value (starting from 0).
 806:D:/DAVE IDE/4.5.0.202105191637/eclipse/workspace/bldcmotor/Libraries/CMSIS/Include\core_cm0.h ****   \param [out]     pSubPriority  Subpriority value (starting from 0).
 807:D:/DAVE IDE/4.5.0.202105191637/eclipse/workspace/bldcmotor/Libraries/CMSIS/Include\core_cm0.h ****  */
 808:D:/DAVE IDE/4.5.0.202105191637/eclipse/workspace/bldcmotor/Libraries/CMSIS/Include\core_cm0.h **** __STATIC_INLINE void NVIC_DecodePriority (uint32_t Priority, uint32_t PriorityGroup, uint32_t* cons
 809:D:/DAVE IDE/4.5.0.202105191637/eclipse/workspace/bldcmotor/Libraries/CMSIS/Include\core_cm0.h **** {
 810:D:/DAVE IDE/4.5.0.202105191637/eclipse/workspace/bldcmotor/Libraries/CMSIS/Include\core_cm0.h ****   uint32_t PriorityGroupTmp = (PriorityGroup & (uint32_t)0x07UL);   /* only values 0..7 are used   
 811:D:/DAVE IDE/4.5.0.202105191637/eclipse/workspace/bldcmotor/Libraries/CMSIS/Include\core_cm0.h ****   uint32_t PreemptPriorityBits;
 812:D:/DAVE IDE/4.5.0.202105191637/eclipse/workspace/bldcmotor/Libraries/CMSIS/Include\core_cm0.h ****   uint32_t SubPriorityBits;
 813:D:/DAVE IDE/4.5.0.202105191637/eclipse/workspace/bldcmotor/Libraries/CMSIS/Include\core_cm0.h **** 
 814:D:/DAVE IDE/4.5.0.202105191637/eclipse/workspace/bldcmotor/Libraries/CMSIS/Include\core_cm0.h ****   PreemptPriorityBits = ((7UL - PriorityGroupTmp) > (uint32_t)(__NVIC_PRIO_BITS)) ? (uint32_t)(__NV
 815:D:/DAVE IDE/4.5.0.202105191637/eclipse/workspace/bldcmotor/Libraries/CMSIS/Include\core_cm0.h ****   SubPriorityBits     = ((PriorityGroupTmp + (uint32_t)(__NVIC_PRIO_BITS)) < (uint32_t)7UL) ? (uint
 816:D:/DAVE IDE/4.5.0.202105191637/eclipse/workspace/bldcmotor/Libraries/CMSIS/Include\core_cm0.h **** 
 817:D:/DAVE IDE/4.5.0.202105191637/eclipse/workspace/bldcmotor/Libraries/CMSIS/Include\core_cm0.h ****   *pPreemptPriority = (Priority >> SubPriorityBits) & (uint32_t)((1UL << (PreemptPriorityBits)) - 1
 818:D:/DAVE IDE/4.5.0.202105191637/eclipse/workspace/bldcmotor/Libraries/CMSIS/Include\core_cm0.h ****   *pSubPriority     = (Priority                   ) & (uint32_t)((1UL << (SubPriorityBits    )) - 1
 819:D:/DAVE IDE/4.5.0.202105191637/eclipse/workspace/bldcmotor/Libraries/CMSIS/Include\core_cm0.h **** }
 820:D:/DAVE IDE/4.5.0.202105191637/eclipse/workspace/bldcmotor/Libraries/CMSIS/Include\core_cm0.h **** 
 821:D:/DAVE IDE/4.5.0.202105191637/eclipse/workspace/bldcmotor/Libraries/CMSIS/Include\core_cm0.h **** 
 822:D:/DAVE IDE/4.5.0.202105191637/eclipse/workspace/bldcmotor/Libraries/CMSIS/Include\core_cm0.h **** 
 823:D:/DAVE IDE/4.5.0.202105191637/eclipse/workspace/bldcmotor/Libraries/CMSIS/Include\core_cm0.h **** /**
 824:D:/DAVE IDE/4.5.0.202105191637/eclipse/workspace/bldcmotor/Libraries/CMSIS/Include\core_cm0.h ****   \brief   Set Interrupt Vector
 825:D:/DAVE IDE/4.5.0.202105191637/eclipse/workspace/bldcmotor/Libraries/CMSIS/Include\core_cm0.h ****   \details Sets an interrupt vector in SRAM based interrupt vector table.
 826:D:/DAVE IDE/4.5.0.202105191637/eclipse/workspace/bldcmotor/Libraries/CMSIS/Include\core_cm0.h ****            The interrupt number can be positive to specify a device specific interrupt,
 827:D:/DAVE IDE/4.5.0.202105191637/eclipse/workspace/bldcmotor/Libraries/CMSIS/Include\core_cm0.h ****            or negative to specify a processor exception.
 828:D:/DAVE IDE/4.5.0.202105191637/eclipse/workspace/bldcmotor/Libraries/CMSIS/Include\core_cm0.h ****            Address 0 must be mapped to SRAM.
 829:D:/DAVE IDE/4.5.0.202105191637/eclipse/workspace/bldcmotor/Libraries/CMSIS/Include\core_cm0.h ****   \param [in]   IRQn      Interrupt number
 830:D:/DAVE IDE/4.5.0.202105191637/eclipse/workspace/bldcmotor/Libraries/CMSIS/Include\core_cm0.h ****   \param [in]   vector    Address of interrupt handler function
 831:D:/DAVE IDE/4.5.0.202105191637/eclipse/workspace/bldcmotor/Libraries/CMSIS/Include\core_cm0.h ****  */
 832:D:/DAVE IDE/4.5.0.202105191637/eclipse/workspace/bldcmotor/Libraries/CMSIS/Include\core_cm0.h **** __STATIC_INLINE void __NVIC_SetVector(IRQn_Type IRQn, uint32_t vector)
 833:D:/DAVE IDE/4.5.0.202105191637/eclipse/workspace/bldcmotor/Libraries/CMSIS/Include\core_cm0.h **** {
 834:D:/DAVE IDE/4.5.0.202105191637/eclipse/workspace/bldcmotor/Libraries/CMSIS/Include\core_cm0.h ****   uint32_t *vectors = (uint32_t *)(NVIC_USER_IRQ_OFFSET << 2);      /* point to 1st user interrupt 
 835:D:/DAVE IDE/4.5.0.202105191637/eclipse/workspace/bldcmotor/Libraries/CMSIS/Include\core_cm0.h ****   *(vectors + (int32_t)IRQn) = vector;                              /* use pointer arithmetic to ac
 836:D:/DAVE IDE/4.5.0.202105191637/eclipse/workspace/bldcmotor/Libraries/CMSIS/Include\core_cm0.h ****   /* ARM Application Note 321 states that the M0 does not require the architectural barrier */
 837:D:/DAVE IDE/4.5.0.202105191637/eclipse/workspace/bldcmotor/Libraries/CMSIS/Include\core_cm0.h **** }
 838:D:/DAVE IDE/4.5.0.202105191637/eclipse/workspace/bldcmotor/Libraries/CMSIS/Include\core_cm0.h **** 
 839:D:/DAVE IDE/4.5.0.202105191637/eclipse/workspace/bldcmotor/Libraries/CMSIS/Include\core_cm0.h **** 
 840:D:/DAVE IDE/4.5.0.202105191637/eclipse/workspace/bldcmotor/Libraries/CMSIS/Include\core_cm0.h **** /**
 841:D:/DAVE IDE/4.5.0.202105191637/eclipse/workspace/bldcmotor/Libraries/CMSIS/Include\core_cm0.h ****   \brief   Get Interrupt Vector
 842:D:/DAVE IDE/4.5.0.202105191637/eclipse/workspace/bldcmotor/Libraries/CMSIS/Include\core_cm0.h ****   \details Reads an interrupt vector from interrupt vector table.
 843:D:/DAVE IDE/4.5.0.202105191637/eclipse/workspace/bldcmotor/Libraries/CMSIS/Include\core_cm0.h ****            The interrupt number can be positive to specify a device specific interrupt,
 844:D:/DAVE IDE/4.5.0.202105191637/eclipse/workspace/bldcmotor/Libraries/CMSIS/Include\core_cm0.h ****            or negative to specify a processor exception.
 845:D:/DAVE IDE/4.5.0.202105191637/eclipse/workspace/bldcmotor/Libraries/CMSIS/Include\core_cm0.h ****   \param [in]   IRQn      Interrupt number.
 846:D:/DAVE IDE/4.5.0.202105191637/eclipse/workspace/bldcmotor/Libraries/CMSIS/Include\core_cm0.h ****   \return                 Address of interrupt handler function
 847:D:/DAVE IDE/4.5.0.202105191637/eclipse/workspace/bldcmotor/Libraries/CMSIS/Include\core_cm0.h ****  */
 848:D:/DAVE IDE/4.5.0.202105191637/eclipse/workspace/bldcmotor/Libraries/CMSIS/Include\core_cm0.h **** __STATIC_INLINE uint32_t __NVIC_GetVector(IRQn_Type IRQn)
 849:D:/DAVE IDE/4.5.0.202105191637/eclipse/workspace/bldcmotor/Libraries/CMSIS/Include\core_cm0.h **** {
 850:D:/DAVE IDE/4.5.0.202105191637/eclipse/workspace/bldcmotor/Libraries/CMSIS/Include\core_cm0.h ****   uint32_t *vectors = (uint32_t *)(NVIC_USER_IRQ_OFFSET << 2);      /* point to 1st user interrupt 
 851:D:/DAVE IDE/4.5.0.202105191637/eclipse/workspace/bldcmotor/Libraries/CMSIS/Include\core_cm0.h ****   return *(vectors + (int32_t)IRQn);                                /* use pointer arithmetic to ac
 852:D:/DAVE IDE/4.5.0.202105191637/eclipse/workspace/bldcmotor/Libraries/CMSIS/Include\core_cm0.h **** }
 853:D:/DAVE IDE/4.5.0.202105191637/eclipse/workspace/bldcmotor/Libraries/CMSIS/Include\core_cm0.h **** 
 854:D:/DAVE IDE/4.5.0.202105191637/eclipse/workspace/bldcmotor/Libraries/CMSIS/Include\core_cm0.h **** 
 855:D:/DAVE IDE/4.5.0.202105191637/eclipse/workspace/bldcmotor/Libraries/CMSIS/Include\core_cm0.h **** /**
 856:D:/DAVE IDE/4.5.0.202105191637/eclipse/workspace/bldcmotor/Libraries/CMSIS/Include\core_cm0.h ****   \brief   System Reset
 857:D:/DAVE IDE/4.5.0.202105191637/eclipse/workspace/bldcmotor/Libraries/CMSIS/Include\core_cm0.h ****   \details Initiates a system reset request to reset the MCU.
 858:D:/DAVE IDE/4.5.0.202105191637/eclipse/workspace/bldcmotor/Libraries/CMSIS/Include\core_cm0.h ****  */
 859:D:/DAVE IDE/4.5.0.202105191637/eclipse/workspace/bldcmotor/Libraries/CMSIS/Include\core_cm0.h **** __NO_RETURN __STATIC_INLINE void __NVIC_SystemReset(void)
 860:D:/DAVE IDE/4.5.0.202105191637/eclipse/workspace/bldcmotor/Libraries/CMSIS/Include\core_cm0.h **** {
 861:D:/DAVE IDE/4.5.0.202105191637/eclipse/workspace/bldcmotor/Libraries/CMSIS/Include\core_cm0.h ****   __DSB();                                                          /* Ensure all outstanding memor
 862:D:/DAVE IDE/4.5.0.202105191637/eclipse/workspace/bldcmotor/Libraries/CMSIS/Include\core_cm0.h ****                                                                        buffered write are completed
 863:D:/DAVE IDE/4.5.0.202105191637/eclipse/workspace/bldcmotor/Libraries/CMSIS/Include\core_cm0.h ****   SCB->AIRCR  = ((0x5FAUL << SCB_AIRCR_VECTKEY_Pos) |
 864:D:/DAVE IDE/4.5.0.202105191637/eclipse/workspace/bldcmotor/Libraries/CMSIS/Include\core_cm0.h ****                  SCB_AIRCR_SYSRESETREQ_Msk);
 865:D:/DAVE IDE/4.5.0.202105191637/eclipse/workspace/bldcmotor/Libraries/CMSIS/Include\core_cm0.h ****   __DSB();                                                          /* Ensure completion of memory 
 866:D:/DAVE IDE/4.5.0.202105191637/eclipse/workspace/bldcmotor/Libraries/CMSIS/Include\core_cm0.h **** 
 867:D:/DAVE IDE/4.5.0.202105191637/eclipse/workspace/bldcmotor/Libraries/CMSIS/Include\core_cm0.h ****   for(;;)                                                           /* wait until reset */
 868:D:/DAVE IDE/4.5.0.202105191637/eclipse/workspace/bldcmotor/Libraries/CMSIS/Include\core_cm0.h ****   {
 869:D:/DAVE IDE/4.5.0.202105191637/eclipse/workspace/bldcmotor/Libraries/CMSIS/Include\core_cm0.h ****     __NOP();
 870:D:/DAVE IDE/4.5.0.202105191637/eclipse/workspace/bldcmotor/Libraries/CMSIS/Include\core_cm0.h ****   }
 871:D:/DAVE IDE/4.5.0.202105191637/eclipse/workspace/bldcmotor/Libraries/CMSIS/Include\core_cm0.h **** }
 872:D:/DAVE IDE/4.5.0.202105191637/eclipse/workspace/bldcmotor/Libraries/CMSIS/Include\core_cm0.h **** 
 873:D:/DAVE IDE/4.5.0.202105191637/eclipse/workspace/bldcmotor/Libraries/CMSIS/Include\core_cm0.h **** /*@} end of CMSIS_Core_NVICFunctions */
 874:D:/DAVE IDE/4.5.0.202105191637/eclipse/workspace/bldcmotor/Libraries/CMSIS/Include\core_cm0.h **** 
 875:D:/DAVE IDE/4.5.0.202105191637/eclipse/workspace/bldcmotor/Libraries/CMSIS/Include\core_cm0.h **** 
 876:D:/DAVE IDE/4.5.0.202105191637/eclipse/workspace/bldcmotor/Libraries/CMSIS/Include\core_cm0.h **** /* ##########################  FPU functions  #################################### */
 877:D:/DAVE IDE/4.5.0.202105191637/eclipse/workspace/bldcmotor/Libraries/CMSIS/Include\core_cm0.h **** /**
 878:D:/DAVE IDE/4.5.0.202105191637/eclipse/workspace/bldcmotor/Libraries/CMSIS/Include\core_cm0.h ****   \ingroup  CMSIS_Core_FunctionInterface
 879:D:/DAVE IDE/4.5.0.202105191637/eclipse/workspace/bldcmotor/Libraries/CMSIS/Include\core_cm0.h ****   \defgroup CMSIS_Core_FpuFunctions FPU Functions
 880:D:/DAVE IDE/4.5.0.202105191637/eclipse/workspace/bldcmotor/Libraries/CMSIS/Include\core_cm0.h ****   \brief    Function that provides FPU type.
 881:D:/DAVE IDE/4.5.0.202105191637/eclipse/workspace/bldcmotor/Libraries/CMSIS/Include\core_cm0.h ****   @{
 882:D:/DAVE IDE/4.5.0.202105191637/eclipse/workspace/bldcmotor/Libraries/CMSIS/Include\core_cm0.h ****  */
 883:D:/DAVE IDE/4.5.0.202105191637/eclipse/workspace/bldcmotor/Libraries/CMSIS/Include\core_cm0.h **** 
 884:D:/DAVE IDE/4.5.0.202105191637/eclipse/workspace/bldcmotor/Libraries/CMSIS/Include\core_cm0.h **** /**
 885:D:/DAVE IDE/4.5.0.202105191637/eclipse/workspace/bldcmotor/Libraries/CMSIS/Include\core_cm0.h ****   \brief   get FPU type
 886:D:/DAVE IDE/4.5.0.202105191637/eclipse/workspace/bldcmotor/Libraries/CMSIS/Include\core_cm0.h ****   \details returns the FPU type
 887:D:/DAVE IDE/4.5.0.202105191637/eclipse/workspace/bldcmotor/Libraries/CMSIS/Include\core_cm0.h ****   \returns
 888:D:/DAVE IDE/4.5.0.202105191637/eclipse/workspace/bldcmotor/Libraries/CMSIS/Include\core_cm0.h ****    - \b  0: No FPU
 889:D:/DAVE IDE/4.5.0.202105191637/eclipse/workspace/bldcmotor/Libraries/CMSIS/Include\core_cm0.h ****    - \b  1: Single precision FPU
 890:D:/DAVE IDE/4.5.0.202105191637/eclipse/workspace/bldcmotor/Libraries/CMSIS/Include\core_cm0.h ****    - \b  2: Double + Single precision FPU
 891:D:/DAVE IDE/4.5.0.202105191637/eclipse/workspace/bldcmotor/Libraries/CMSIS/Include\core_cm0.h ****  */
 892:D:/DAVE IDE/4.5.0.202105191637/eclipse/workspace/bldcmotor/Libraries/CMSIS/Include\core_cm0.h **** __STATIC_INLINE uint32_t SCB_GetFPUType(void)
 893:D:/DAVE IDE/4.5.0.202105191637/eclipse/workspace/bldcmotor/Libraries/CMSIS/Include\core_cm0.h **** {
 894:D:/DAVE IDE/4.5.0.202105191637/eclipse/workspace/bldcmotor/Libraries/CMSIS/Include\core_cm0.h ****     return 0U;           /* No FPU */
 895:D:/DAVE IDE/4.5.0.202105191637/eclipse/workspace/bldcmotor/Libraries/CMSIS/Include\core_cm0.h **** }
 896:D:/DAVE IDE/4.5.0.202105191637/eclipse/workspace/bldcmotor/Libraries/CMSIS/Include\core_cm0.h **** 
 897:D:/DAVE IDE/4.5.0.202105191637/eclipse/workspace/bldcmotor/Libraries/CMSIS/Include\core_cm0.h **** 
 898:D:/DAVE IDE/4.5.0.202105191637/eclipse/workspace/bldcmotor/Libraries/CMSIS/Include\core_cm0.h **** /*@} end of CMSIS_Core_FpuFunctions */
 899:D:/DAVE IDE/4.5.0.202105191637/eclipse/workspace/bldcmotor/Libraries/CMSIS/Include\core_cm0.h **** 
 900:D:/DAVE IDE/4.5.0.202105191637/eclipse/workspace/bldcmotor/Libraries/CMSIS/Include\core_cm0.h **** 
 901:D:/DAVE IDE/4.5.0.202105191637/eclipse/workspace/bldcmotor/Libraries/CMSIS/Include\core_cm0.h **** 
 902:D:/DAVE IDE/4.5.0.202105191637/eclipse/workspace/bldcmotor/Libraries/CMSIS/Include\core_cm0.h **** /* ##################################    SysTick function  ########################################
 903:D:/DAVE IDE/4.5.0.202105191637/eclipse/workspace/bldcmotor/Libraries/CMSIS/Include\core_cm0.h **** /**
 904:D:/DAVE IDE/4.5.0.202105191637/eclipse/workspace/bldcmotor/Libraries/CMSIS/Include\core_cm0.h ****   \ingroup  CMSIS_Core_FunctionInterface
 905:D:/DAVE IDE/4.5.0.202105191637/eclipse/workspace/bldcmotor/Libraries/CMSIS/Include\core_cm0.h ****   \defgroup CMSIS_Core_SysTickFunctions SysTick Functions
 906:D:/DAVE IDE/4.5.0.202105191637/eclipse/workspace/bldcmotor/Libraries/CMSIS/Include\core_cm0.h ****   \brief    Functions that configure the System.
 907:D:/DAVE IDE/4.5.0.202105191637/eclipse/workspace/bldcmotor/Libraries/CMSIS/Include\core_cm0.h ****   @{
 908:D:/DAVE IDE/4.5.0.202105191637/eclipse/workspace/bldcmotor/Libraries/CMSIS/Include\core_cm0.h ****  */
 909:D:/DAVE IDE/4.5.0.202105191637/eclipse/workspace/bldcmotor/Libraries/CMSIS/Include\core_cm0.h **** 
 910:D:/DAVE IDE/4.5.0.202105191637/eclipse/workspace/bldcmotor/Libraries/CMSIS/Include\core_cm0.h **** #if defined (__Vendor_SysTickConfig) && (__Vendor_SysTickConfig == 0U)
 911:D:/DAVE IDE/4.5.0.202105191637/eclipse/workspace/bldcmotor/Libraries/CMSIS/Include\core_cm0.h **** 
 912:D:/DAVE IDE/4.5.0.202105191637/eclipse/workspace/bldcmotor/Libraries/CMSIS/Include\core_cm0.h **** /**
 913:D:/DAVE IDE/4.5.0.202105191637/eclipse/workspace/bldcmotor/Libraries/CMSIS/Include\core_cm0.h ****   \brief   System Tick Configuration
 914:D:/DAVE IDE/4.5.0.202105191637/eclipse/workspace/bldcmotor/Libraries/CMSIS/Include\core_cm0.h ****   \details Initializes the System Timer and its interrupt, and starts the System Tick Timer.
 915:D:/DAVE IDE/4.5.0.202105191637/eclipse/workspace/bldcmotor/Libraries/CMSIS/Include\core_cm0.h ****            Counter is in free running mode to generate periodic interrupts.
 916:D:/DAVE IDE/4.5.0.202105191637/eclipse/workspace/bldcmotor/Libraries/CMSIS/Include\core_cm0.h ****   \param [in]  ticks  Number of ticks between two interrupts.
 917:D:/DAVE IDE/4.5.0.202105191637/eclipse/workspace/bldcmotor/Libraries/CMSIS/Include\core_cm0.h ****   \return          0  Function succeeded.
 918:D:/DAVE IDE/4.5.0.202105191637/eclipse/workspace/bldcmotor/Libraries/CMSIS/Include\core_cm0.h ****   \return          1  Function failed.
 919:D:/DAVE IDE/4.5.0.202105191637/eclipse/workspace/bldcmotor/Libraries/CMSIS/Include\core_cm0.h ****   \note    When the variable <b>__Vendor_SysTickConfig</b> is set to 1, then the
 920:D:/DAVE IDE/4.5.0.202105191637/eclipse/workspace/bldcmotor/Libraries/CMSIS/Include\core_cm0.h ****            function <b>SysTick_Config</b> is not included. In this case, the file <b><i>device</i>.
 921:D:/DAVE IDE/4.5.0.202105191637/eclipse/workspace/bldcmotor/Libraries/CMSIS/Include\core_cm0.h ****            must contain a vendor-specific implementation of this function.
 922:D:/DAVE IDE/4.5.0.202105191637/eclipse/workspace/bldcmotor/Libraries/CMSIS/Include\core_cm0.h ****  */
 923:D:/DAVE IDE/4.5.0.202105191637/eclipse/workspace/bldcmotor/Libraries/CMSIS/Include\core_cm0.h **** __STATIC_INLINE uint32_t SysTick_Config(uint32_t ticks)
 924:D:/DAVE IDE/4.5.0.202105191637/eclipse/workspace/bldcmotor/Libraries/CMSIS/Include\core_cm0.h **** {
 164              	 .loc 1 924 0
 165              	 .cfi_startproc
 166 0000 80B5     	 push {r7,lr}
 167              	.LCFI3:
 168              	 .cfi_def_cfa_offset 8
 169              	 .cfi_offset 7,-8
 170              	 .cfi_offset 14,-4
 171 0002 82B0     	 sub sp,sp,#8
 172              	.LCFI4:
 173              	 .cfi_def_cfa_offset 16
 174 0004 00AF     	 add r7,sp,#0
 175              	.LCFI5:
 176              	 .cfi_def_cfa_register 7
 177 0006 7860     	 str r0,[r7,#4]
 925:D:/DAVE IDE/4.5.0.202105191637/eclipse/workspace/bldcmotor/Libraries/CMSIS/Include\core_cm0.h ****   if ((ticks - 1UL) > SysTick_LOAD_RELOAD_Msk)
 178              	 .loc 1 925 0
 179 0008 7B68     	 ldr r3,[r7,#4]
 180 000a 013B     	 sub r3,r3,#1
 181 000c 0C4A     	 ldr r2,.L9
 182 000e 9342     	 cmp r3,r2
 183 0010 01D9     	 bls .L7
 926:D:/DAVE IDE/4.5.0.202105191637/eclipse/workspace/bldcmotor/Libraries/CMSIS/Include\core_cm0.h ****   {
 927:D:/DAVE IDE/4.5.0.202105191637/eclipse/workspace/bldcmotor/Libraries/CMSIS/Include\core_cm0.h ****     return (1UL);                                                   /* Reload value impossible */
 184              	 .loc 1 927 0
 185 0012 0123     	 mov r3,#1
 186 0014 10E0     	 b .L8
 187              	.L7:
 928:D:/DAVE IDE/4.5.0.202105191637/eclipse/workspace/bldcmotor/Libraries/CMSIS/Include\core_cm0.h ****   }
 929:D:/DAVE IDE/4.5.0.202105191637/eclipse/workspace/bldcmotor/Libraries/CMSIS/Include\core_cm0.h **** 
 930:D:/DAVE IDE/4.5.0.202105191637/eclipse/workspace/bldcmotor/Libraries/CMSIS/Include\core_cm0.h ****   SysTick->LOAD  = (uint32_t)(ticks - 1UL);                         /* set reload register */
 188              	 .loc 1 930 0
 189 0016 0B4B     	 ldr r3,.L9+4
 190 0018 7A68     	 ldr r2,[r7,#4]
 191 001a 013A     	 sub r2,r2,#1
 192 001c 5A60     	 str r2,[r3,#4]
 931:D:/DAVE IDE/4.5.0.202105191637/eclipse/workspace/bldcmotor/Libraries/CMSIS/Include\core_cm0.h ****   NVIC_SetPriority (SysTick_IRQn, (1UL << __NVIC_PRIO_BITS) - 1UL); /* set Priority for Systick Int
 193              	 .loc 1 931 0
 194 001e 0123     	 mov r3,#1
 195 0020 5B42     	 neg r3,r3
 196 0022 181C     	 mov r0,r3
 197 0024 0321     	 mov r1,#3
 198 0026 FFF7FEFF 	 bl __NVIC_SetPriority
 932:D:/DAVE IDE/4.5.0.202105191637/eclipse/workspace/bldcmotor/Libraries/CMSIS/Include\core_cm0.h ****   SysTick->VAL   = 0UL;                                             /* Load the SysTick Counter Val
 199              	 .loc 1 932 0
 200 002a 064B     	 ldr r3,.L9+4
 201 002c 0022     	 mov r2,#0
 202 002e 9A60     	 str r2,[r3,#8]
 933:D:/DAVE IDE/4.5.0.202105191637/eclipse/workspace/bldcmotor/Libraries/CMSIS/Include\core_cm0.h ****   SysTick->CTRL  = SysTick_CTRL_CLKSOURCE_Msk |
 203              	 .loc 1 933 0
 204 0030 044B     	 ldr r3,.L9+4
 205 0032 0722     	 mov r2,#7
 206 0034 1A60     	 str r2,[r3]
 934:D:/DAVE IDE/4.5.0.202105191637/eclipse/workspace/bldcmotor/Libraries/CMSIS/Include\core_cm0.h ****                    SysTick_CTRL_TICKINT_Msk   |
 935:D:/DAVE IDE/4.5.0.202105191637/eclipse/workspace/bldcmotor/Libraries/CMSIS/Include\core_cm0.h ****                    SysTick_CTRL_ENABLE_Msk;                         /* Enable SysTick IRQ and SysTi
 936:D:/DAVE IDE/4.5.0.202105191637/eclipse/workspace/bldcmotor/Libraries/CMSIS/Include\core_cm0.h ****   return (0UL);                                                     /* Function successful */
 207              	 .loc 1 936 0
 208 0036 0023     	 mov r3,#0
 209              	.L8:
 937:D:/DAVE IDE/4.5.0.202105191637/eclipse/workspace/bldcmotor/Libraries/CMSIS/Include\core_cm0.h **** }
 210              	 .loc 1 937 0
 211 0038 181C     	 mov r0,r3
 212 003a BD46     	 mov sp,r7
 213 003c 02B0     	 add sp,sp,#8
 214              	 
 215 003e 80BD     	 pop {r7,pc}
 216              	.L10:
 217              	 .align 2
 218              	.L9:
 219 0040 FFFFFF00 	 .word 16777215
 220 0044 10E000E0 	 .word -536813552
 221              	 .cfi_endproc
 222              	.LFE41:
 224              	 .comm g_timer_tbl,288,4
 225              	 .global g_timer_list
 226              	 .section .bss.g_timer_list,"aw",%nobits
 227              	 .align 2
 230              	g_timer_list:
 231 0000 00000000 	 .space 4
 232              	 .global g_timer_tracker
 233              	 .section .bss.g_timer_tracker,"aw",%nobits
 234              	 .align 2
 237              	g_timer_tracker:
 238 0000 00000000 	 .space 4
 239              	 .global g_systick_count
 240              	 .section .bss.g_systick_count,"aw",%nobits
 241              	 .align 2
 244              	g_systick_count:
 245 0000 00000000 	 .space 4
 246              	 .section .text.SYSTIMER_lInsertTimerList,"ax",%progbits
 247              	 .align 2
 248              	 .code 16
 249              	 .thumb_func
 251              	SYSTIMER_lInsertTimerList:
 252              	.LFB42:
 253              	 .file 2 "../Dave/Generated/SYSTIMER/systimer.c"
   1:../Dave/Generated/SYSTIMER/systimer.c **** /**
   2:../Dave/Generated/SYSTIMER/systimer.c ****  * @file systimer.c
   3:../Dave/Generated/SYSTIMER/systimer.c ****  * @date 2016-08-05
   4:../Dave/Generated/SYSTIMER/systimer.c ****  * This file is generated by DAVE, User modification to this file will be overwritten at the next c
   5:../Dave/Generated/SYSTIMER/systimer.c ****  *
   6:../Dave/Generated/SYSTIMER/systimer.c ****  * @cond
   7:../Dave/Generated/SYSTIMER/systimer.c ****  **************************************************************************************************
   8:../Dave/Generated/SYSTIMER/systimer.c ****  * SYSTIMER v4.1.18 - The SYSTIMER APP uses the SysTick interrupt to call user functions periodical
   9:../Dave/Generated/SYSTIMER/systimer.c ****  *                   rate or after a given period of time expires.
  10:../Dave/Generated/SYSTIMER/systimer.c ****  *
  11:../Dave/Generated/SYSTIMER/systimer.c ****  * Copyright (c) 2015-2020, Infineon Technologies AG
  12:../Dave/Generated/SYSTIMER/systimer.c ****  * All rights reserved.
  13:../Dave/Generated/SYSTIMER/systimer.c ****  *
  14:../Dave/Generated/SYSTIMER/systimer.c ****  * Redistribution and use in source and binary forms, with or without modification,are permitted pr
  15:../Dave/Generated/SYSTIMER/systimer.c ****  * following conditions are met:
  16:../Dave/Generated/SYSTIMER/systimer.c ****  *
  17:../Dave/Generated/SYSTIMER/systimer.c ****  *   Redistributions of source code must retain the above copyright notice, this list of conditions
  18:../Dave/Generated/SYSTIMER/systimer.c ****  *   disclaimer.
  19:../Dave/Generated/SYSTIMER/systimer.c ****  *
  20:../Dave/Generated/SYSTIMER/systimer.c ****  *   Redistributions in binary form must reproduce the above copyright notice, this list of conditi
  21:../Dave/Generated/SYSTIMER/systimer.c ****  *   disclaimer in the documentation and/or other materials provided with the distribution.
  22:../Dave/Generated/SYSTIMER/systimer.c ****  *
  23:../Dave/Generated/SYSTIMER/systimer.c ****  *   Neither the name of the copyright holders nor the names of its contributors may be used to end
  24:../Dave/Generated/SYSTIMER/systimer.c ****  *   products derived from this software without specific prior written permission.
  25:../Dave/Generated/SYSTIMER/systimer.c ****  *
  26:../Dave/Generated/SYSTIMER/systimer.c ****  * THIS SOFTWARE IS PROVIDED BY THE COPYRIGHT HOLDERS AND CONTRIBUTORS "AS IS" AND ANY EXPRESS OR I
  27:../Dave/Generated/SYSTIMER/systimer.c ****  * INCLUDING, BUT NOT LIMITED TO, THE IMPLIED WARRANTIES OF MERCHANTABILITY AND FITNESS FOR A PARTI
  28:../Dave/Generated/SYSTIMER/systimer.c ****  * DISCLAIMED. IN NO EVENT SHALL THE COPYRIGHT HOLDER OR CONTRIBUTORS BE LIABLE  FOR ANY DIRECT, IN
  29:../Dave/Generated/SYSTIMER/systimer.c ****  * SPECIAL, EXEMPLARY, OR CONSEQUENTIAL DAMAGES (INCLUDING, BUT NOT LIMITED TO, PROCUREMENT OF SUBS
  30:../Dave/Generated/SYSTIMER/systimer.c ****  * SERVICES; LOSS OF USE, DATA, OR PROFITS; OR BUSINESS INTERRUPTION) HOWEVER CAUSED AND ON ANY THE
  31:../Dave/Generated/SYSTIMER/systimer.c ****  * WHETHER IN CONTRACT, STRICT LIABILITY,OR TORT (INCLUDING NEGLIGENCE OR OTHERWISE) ARISING IN ANY
  32:../Dave/Generated/SYSTIMER/systimer.c ****  * USE OF THIS SOFTWARE, EVEN IF ADVISED OF THE POSSIBILITY OF SUCH DAMAGE.
  33:../Dave/Generated/SYSTIMER/systimer.c ****  *
  34:../Dave/Generated/SYSTIMER/systimer.c ****  * To improve the quality of the software, users are encouraged to share modifications, enhancement
  35:../Dave/Generated/SYSTIMER/systimer.c ****  * with Infineon Technologies AG (dave@infineon.com).
  36:../Dave/Generated/SYSTIMER/systimer.c ****  **************************************************************************************************
  37:../Dave/Generated/SYSTIMER/systimer.c ****  *
  38:../Dave/Generated/SYSTIMER/systimer.c ****  * Change History
  39:../Dave/Generated/SYSTIMER/systimer.c ****  * --------------
  40:../Dave/Generated/SYSTIMER/systimer.c ****  *
  41:../Dave/Generated/SYSTIMER/systimer.c ****  * 2015-02-16:
  42:../Dave/Generated/SYSTIMER/systimer.c ****  *     - Initial version.<br>
  43:../Dave/Generated/SYSTIMER/systimer.c ****  *
  44:../Dave/Generated/SYSTIMER/systimer.c ****  * 2015-05-19:
  45:../Dave/Generated/SYSTIMER/systimer.c ****  *     - Structure name changed from SYSTIMER_TimerObject to SYSTIMER_OBJECT_t and SYSTIMER_INIT_t 
  46:../Dave/Generated/SYSTIMER/systimer.c ****  *       also changed its parameter name.<br>
  47:../Dave/Generated/SYSTIMER/systimer.c ****  *     - Enum name changed from SYSTIMER_TimerStateType, SYSTIMER_TimerType to SYSTIMER_STATE_t and
  48:../Dave/Generated/SYSTIMER/systimer.c ****  *       And also changed its parameter name.<br>
  49:../Dave/Generated/SYSTIMER/systimer.c ****  *     - Supported new APIs SYSTIMER_GetTimerState() and  SYSTIMER_GetTickCount().<br>
  50:../Dave/Generated/SYSTIMER/systimer.c ****  *
  51:../Dave/Generated/SYSTIMER/systimer.c ****  * 2015-05-29:
  52:../Dave/Generated/SYSTIMER/systimer.c ****  *     - SYSTIMER_TICK_PERIOD_US macro is used for calculation purpose in SYSTIMER_CreateTimer and
  53:../Dave/Generated/SYSTIMER/systimer.c ****  *       SYSTIMER_RestartTimer APIs<br>
  54:../Dave/Generated/SYSTIMER/systimer.c ****  *
  55:../Dave/Generated/SYSTIMER/systimer.c ****  * 2015-07-31:
  56:../Dave/Generated/SYSTIMER/systimer.c ****  *     - Fixed return value issues for APIs SYSTIMER_StartTimer(), SYSTIMER_StopTimer(), SYSTIMER_R
  57:../Dave/Generated/SYSTIMER/systimer.c ****  *       and SYSTIMER_DeleteTimer().<br>
  58:../Dave/Generated/SYSTIMER/systimer.c ****  *
  59:../Dave/Generated/SYSTIMER/systimer.c ****  * 2015-08-25:
  60:../Dave/Generated/SYSTIMER/systimer.c ****  *     - Fixed GUI tool tip issues. Updated SYSTIMER.h file for help documentation range mistakes.<
  61:../Dave/Generated/SYSTIMER/systimer.c ****  *       Support for XMC4700 / XMC4800 added.
  62:../Dave/Generated/SYSTIMER/systimer.c ****  *     - Removed CPU_CTRL_XMC1_Init / CPU_CTRL_XMC4_Init function call.
  63:../Dave/Generated/SYSTIMER/systimer.c ****  *
  64:../Dave/Generated/SYSTIMER/systimer.c ****  * 2015-09-29:
  65:../Dave/Generated/SYSTIMER/systimer.c ****  *     - Fixed wrong parameter check in the CreateTimer API.
  66:../Dave/Generated/SYSTIMER/systimer.c ****  *       CreateTimer return 0 (indicates error) if the requested timer has a period less than the S
  67:../Dave/Generated/SYSTIMER/systimer.c ****  *
  68:../Dave/Generated/SYSTIMER/systimer.c ****  * 2016-08-05:
  69:../Dave/Generated/SYSTIMER/systimer.c ****  *     - Fixed reentracy problems when using SYSTIMER_StopTimer
  70:../Dave/Generated/SYSTIMER/systimer.c ****  *
  71:../Dave/Generated/SYSTIMER/systimer.c ****  * 2016-12-12:
  72:../Dave/Generated/SYSTIMER/systimer.c ****  *     - Fixed reentracy problems when modifying the global list of timers from ISR routines.
  73:../Dave/Generated/SYSTIMER/systimer.c ****  *     - Added SYSTIMER_CreateTimerFromISR(), SYSTIMER_StartTimerFromISR(), SYSTIMER_StopTimerFromI
  74:../Dave/Generated/SYSTIMER/systimer.c ****  *
  75:../Dave/Generated/SYSTIMER/systimer.c ****  * @endcond
  76:../Dave/Generated/SYSTIMER/systimer.c ****  *
  77:../Dave/Generated/SYSTIMER/systimer.c ****  */
  78:../Dave/Generated/SYSTIMER/systimer.c **** /**************************************************************************************************
  79:../Dave/Generated/SYSTIMER/systimer.c ****  * HEADER FILES
  80:../Dave/Generated/SYSTIMER/systimer.c ****  **************************************************************************************************
  81:../Dave/Generated/SYSTIMER/systimer.c **** 
  82:../Dave/Generated/SYSTIMER/systimer.c **** /* Included to access APP data structure, functions & enumerations */
  83:../Dave/Generated/SYSTIMER/systimer.c **** #include "systimer.h"
  84:../Dave/Generated/SYSTIMER/systimer.c **** 
  85:../Dave/Generated/SYSTIMER/systimer.c **** /**************************************************************************************************
  86:../Dave/Generated/SYSTIMER/systimer.c ****  * MACROS
  87:../Dave/Generated/SYSTIMER/systimer.c ****  **************************************************************************************************
  88:../Dave/Generated/SYSTIMER/systimer.c **** 
  89:../Dave/Generated/SYSTIMER/systimer.c **** #define HW_TIMER_ADDITIONAL_CNT (1U)
  90:../Dave/Generated/SYSTIMER/systimer.c **** 
  91:../Dave/Generated/SYSTIMER/systimer.c **** /**************************************************************************************************
  92:../Dave/Generated/SYSTIMER/systimer.c ****  * LOCAL DATA
  93:../Dave/Generated/SYSTIMER/systimer.c ****  **************************************************************************************************
  94:../Dave/Generated/SYSTIMER/systimer.c **** /* SYSTIMER_OBJECT structure acts as the timer control block */
  95:../Dave/Generated/SYSTIMER/systimer.c **** 
  96:../Dave/Generated/SYSTIMER/systimer.c **** typedef struct SYSTIMER_OBJECT
  97:../Dave/Generated/SYSTIMER/systimer.c **** {
  98:../Dave/Generated/SYSTIMER/systimer.c ****   struct SYSTIMER_OBJECT *next; /**< pointer to next timer control block */
  99:../Dave/Generated/SYSTIMER/systimer.c ****   struct SYSTIMER_OBJECT *prev; /**< Pointer to previous timer control block */
 100:../Dave/Generated/SYSTIMER/systimer.c ****   SYSTIMER_CALLBACK_t callback; /**< Callback function pointer */
 101:../Dave/Generated/SYSTIMER/systimer.c ****   SYSTIMER_MODE_t mode; /**< timer Type (single shot or periodic) */
 102:../Dave/Generated/SYSTIMER/systimer.c ****   SYSTIMER_STATE_t state; /**< timer state */
 103:../Dave/Generated/SYSTIMER/systimer.c ****   void *args; /**< Parameter to callback function */
 104:../Dave/Generated/SYSTIMER/systimer.c ****   uint32_t id; /**< timer ID */
 105:../Dave/Generated/SYSTIMER/systimer.c ****   uint32_t count; /**< timer count value */
 106:../Dave/Generated/SYSTIMER/systimer.c ****   uint32_t reload; /**< timer Reload count value */
 107:../Dave/Generated/SYSTIMER/systimer.c ****   bool delete_swtmr; /**< To delete the timer */
 108:../Dave/Generated/SYSTIMER/systimer.c **** } SYSTIMER_OBJECT_t;
 109:../Dave/Generated/SYSTIMER/systimer.c **** 
 110:../Dave/Generated/SYSTIMER/systimer.c **** /** Table which save timer control block. */
 111:../Dave/Generated/SYSTIMER/systimer.c **** SYSTIMER_OBJECT_t g_timer_tbl[SYSTIMER_CFG_MAX_TMR];
 112:../Dave/Generated/SYSTIMER/systimer.c **** 
 113:../Dave/Generated/SYSTIMER/systimer.c **** /* The header of the timer Control list. */
 114:../Dave/Generated/SYSTIMER/systimer.c **** SYSTIMER_OBJECT_t *g_timer_list = NULL;
 115:../Dave/Generated/SYSTIMER/systimer.c **** 
 116:../Dave/Generated/SYSTIMER/systimer.c **** /* Timer ID tracker */
 117:../Dave/Generated/SYSTIMER/systimer.c **** uint32_t g_timer_tracker = 0U;
 118:../Dave/Generated/SYSTIMER/systimer.c **** 
 119:../Dave/Generated/SYSTIMER/systimer.c **** /* SysTick counter */
 120:../Dave/Generated/SYSTIMER/systimer.c **** volatile uint32_t g_systick_count = 0U;
 121:../Dave/Generated/SYSTIMER/systimer.c **** 
 122:../Dave/Generated/SYSTIMER/systimer.c **** /**************************************************************************************************
 123:../Dave/Generated/SYSTIMER/systimer.c ****  * LOCAL ROUTINES
 124:../Dave/Generated/SYSTIMER/systimer.c ****  **************************************************************************************************
 125:../Dave/Generated/SYSTIMER/systimer.c **** 
 126:../Dave/Generated/SYSTIMER/systimer.c **** /*
 127:../Dave/Generated/SYSTIMER/systimer.c ****  * This function is called to insert a timer into the timer list.
 128:../Dave/Generated/SYSTIMER/systimer.c ****  */
 129:../Dave/Generated/SYSTIMER/systimer.c **** static void SYSTIMER_lInsertTimerList(uint32_t tbl_index);
 130:../Dave/Generated/SYSTIMER/systimer.c **** 
 131:../Dave/Generated/SYSTIMER/systimer.c **** /*
 132:../Dave/Generated/SYSTIMER/systimer.c ****  * This function is called to remove a timer from the timer list.
 133:../Dave/Generated/SYSTIMER/systimer.c ****  */
 134:../Dave/Generated/SYSTIMER/systimer.c **** static void SYSTIMER_lRemoveTimerList(uint32_t tbl_index);
 135:../Dave/Generated/SYSTIMER/systimer.c **** 
 136:../Dave/Generated/SYSTIMER/systimer.c **** /*
 137:../Dave/Generated/SYSTIMER/systimer.c ****  * Handler function  called from SysTick event handler.
 138:../Dave/Generated/SYSTIMER/systimer.c ****  */
 139:../Dave/Generated/SYSTIMER/systimer.c **** static void SYSTIMER_lTimerHandler(void);
 140:../Dave/Generated/SYSTIMER/systimer.c **** 
 141:../Dave/Generated/SYSTIMER/systimer.c **** /*
 142:../Dave/Generated/SYSTIMER/systimer.c ****  * SysTick handler which is the main interrupt service routine to service the
 143:../Dave/Generated/SYSTIMER/systimer.c ****  * system timer's configured
 144:../Dave/Generated/SYSTIMER/systimer.c ****  */
 145:../Dave/Generated/SYSTIMER/systimer.c **** void SysTick_Handler(void);
 146:../Dave/Generated/SYSTIMER/systimer.c **** 
 147:../Dave/Generated/SYSTIMER/systimer.c **** /**************************************************************************************************
 148:../Dave/Generated/SYSTIMER/systimer.c **** * API IMPLEMENTATION
 149:../Dave/Generated/SYSTIMER/systimer.c **** ***************************************************************************************************
 150:../Dave/Generated/SYSTIMER/systimer.c **** /*
 151:../Dave/Generated/SYSTIMER/systimer.c ****  * This function is called to insert a timer into the timer list.
 152:../Dave/Generated/SYSTIMER/systimer.c ****  */
 153:../Dave/Generated/SYSTIMER/systimer.c **** static void SYSTIMER_lInsertTimerList(uint32_t tbl_index)
 154:../Dave/Generated/SYSTIMER/systimer.c **** {
 254              	 .loc 2 154 0
 255              	 .cfi_startproc
 256 0000 90B5     	 push {r4,r7,lr}
 257              	.LCFI6:
 258              	 .cfi_def_cfa_offset 12
 259              	 .cfi_offset 4,-12
 260              	 .cfi_offset 7,-8
 261              	 .cfi_offset 14,-4
 262 0002 87B0     	 sub sp,sp,#28
 263              	.LCFI7:
 264              	 .cfi_def_cfa_offset 40
 265 0004 00AF     	 add r7,sp,#0
 266              	.LCFI8:
 267              	 .cfi_def_cfa_register 7
 268 0006 7860     	 str r0,[r7,#4]
 155:../Dave/Generated/SYSTIMER/systimer.c ****   SYSTIMER_OBJECT_t *object_ptr;
 156:../Dave/Generated/SYSTIMER/systimer.c ****   int32_t delta_ticks;
 157:../Dave/Generated/SYSTIMER/systimer.c ****   int32_t timer_count;
 158:../Dave/Generated/SYSTIMER/systimer.c ****   bool found_flag = false;
 269              	 .loc 2 158 0
 270 0008 0F23     	 mov r3,#15
 271 000a FB18     	 add r3,r7,r3
 272 000c 0022     	 mov r2,#0
 273 000e 1A70     	 strb r2,[r3]
 159:../Dave/Generated/SYSTIMER/systimer.c ****    /* Get timer time */
 160:../Dave/Generated/SYSTIMER/systimer.c ****   timer_count = (int32_t)g_timer_tbl[tbl_index].count;
 274              	 .loc 2 160 0
 275 0010 6B49     	 ldr r1,.L20
 276 0012 7A68     	 ldr r2,[r7,#4]
 277 0014 131C     	 mov r3,r2
 278 0016 DB00     	 lsl r3,r3,#3
 279 0018 9B18     	 add r3,r3,r2
 280 001a 9B00     	 lsl r3,r3,#2
 281 001c CB18     	 add r3,r1,r3
 282 001e 1833     	 add r3,r3,#24
 283 0020 1B68     	 ldr r3,[r3]
 284 0022 BB60     	 str r3,[r7,#8]
 161:../Dave/Generated/SYSTIMER/systimer.c ****   /* Check if Timer list is NULL */
 162:../Dave/Generated/SYSTIMER/systimer.c ****   if (NULL == g_timer_list)
 285              	 .loc 2 162 0
 286 0024 674B     	 ldr r3,.L20+4
 287 0026 1B68     	 ldr r3,[r3]
 288 0028 002B     	 cmp r3,#0
 289 002a 09D1     	 bne .L12
 163:../Dave/Generated/SYSTIMER/systimer.c ****   {
 164:../Dave/Generated/SYSTIMER/systimer.c ****     /* Set this as first Timer */
 165:../Dave/Generated/SYSTIMER/systimer.c ****     g_timer_list = &g_timer_tbl[tbl_index];
 290              	 .loc 2 165 0
 291 002c 7A68     	 ldr r2,[r7,#4]
 292 002e 131C     	 mov r3,r2
 293 0030 DB00     	 lsl r3,r3,#3
 294 0032 9B18     	 add r3,r3,r2
 295 0034 9B00     	 lsl r3,r3,#2
 296 0036 624A     	 ldr r2,.L20
 297 0038 9A18     	 add r2,r3,r2
 298 003a 624B     	 ldr r3,.L20+4
 299 003c 1A60     	 str r2,[r3]
 300 003e BCE0     	 b .L11
 301              	.L12:
 166:../Dave/Generated/SYSTIMER/systimer.c ****   }
 167:../Dave/Generated/SYSTIMER/systimer.c ****   /* If not, find the correct place, and insert the specified timer */
 168:../Dave/Generated/SYSTIMER/systimer.c ****   else
 169:../Dave/Generated/SYSTIMER/systimer.c ****   {
 170:../Dave/Generated/SYSTIMER/systimer.c ****     object_ptr = g_timer_list;
 302              	 .loc 2 170 0
 303 0040 604B     	 ldr r3,.L20+4
 304 0042 1B68     	 ldr r3,[r3]
 305 0044 7B61     	 str r3,[r7,#20]
 171:../Dave/Generated/SYSTIMER/systimer.c ****     /* Get timer tick */
 172:../Dave/Generated/SYSTIMER/systimer.c ****     delta_ticks = timer_count;
 306              	 .loc 2 172 0
 307 0046 BB68     	 ldr r3,[r7,#8]
 308 0048 3B61     	 str r3,[r7,#16]
 173:../Dave/Generated/SYSTIMER/systimer.c ****     /* Find correct place for inserting the timer */
 174:../Dave/Generated/SYSTIMER/systimer.c ****     while ((NULL != object_ptr) && (false == found_flag))
 309              	 .loc 2 174 0
 310 004a AAE0     	 b .L14
 311              	.L19:
 175:../Dave/Generated/SYSTIMER/systimer.c ****     {
 176:../Dave/Generated/SYSTIMER/systimer.c ****       /* Get timer Count Difference */
 177:../Dave/Generated/SYSTIMER/systimer.c ****       delta_ticks -= (int32_t)object_ptr->count;
 312              	 .loc 2 177 0
 313 004c 7B69     	 ldr r3,[r7,#20]
 314 004e 9B69     	 ldr r3,[r3,#24]
 315 0050 1A1C     	 mov r2,r3
 316 0052 3B69     	 ldr r3,[r7,#16]
 317 0054 9B1A     	 sub r3,r3,r2
 318 0056 3B61     	 str r3,[r7,#16]
 178:../Dave/Generated/SYSTIMER/systimer.c ****       /* Check for delta ticks < 0 */
 179:../Dave/Generated/SYSTIMER/systimer.c ****       if (delta_ticks <= 0)
 319              	 .loc 2 179 0
 320 0058 3B69     	 ldr r3,[r7,#16]
 321 005a 002B     	 cmp r3,#0
 322 005c 77DC     	 bgt .L15
 180:../Dave/Generated/SYSTIMER/systimer.c ****       {
 181:../Dave/Generated/SYSTIMER/systimer.c ****         /* Check If head item */
 182:../Dave/Generated/SYSTIMER/systimer.c ****         if (NULL != object_ptr->prev)
 323              	 .loc 2 182 0
 324 005e 7B69     	 ldr r3,[r7,#20]
 325 0060 5B68     	 ldr r3,[r3,#4]
 326 0062 002B     	 cmp r3,#0
 327 0064 25D0     	 beq .L16
 183:../Dave/Generated/SYSTIMER/systimer.c ****         {
 184:../Dave/Generated/SYSTIMER/systimer.c ****           /* If Insert to list */
 185:../Dave/Generated/SYSTIMER/systimer.c ****           object_ptr->prev->next = &g_timer_tbl[tbl_index];
 328              	 .loc 2 185 0
 329 0066 7B69     	 ldr r3,[r7,#20]
 330 0068 5A68     	 ldr r2,[r3,#4]
 331 006a 7968     	 ldr r1,[r7,#4]
 332 006c 0B1C     	 mov r3,r1
 333 006e DB00     	 lsl r3,r3,#3
 334 0070 5B18     	 add r3,r3,r1
 335 0072 9B00     	 lsl r3,r3,#2
 336 0074 5249     	 ldr r1,.L20
 337 0076 5B18     	 add r3,r3,r1
 338 0078 1360     	 str r3,[r2]
 186:../Dave/Generated/SYSTIMER/systimer.c ****           g_timer_tbl[tbl_index].prev = object_ptr->prev;
 339              	 .loc 2 186 0
 340 007a 7B69     	 ldr r3,[r7,#20]
 341 007c 5968     	 ldr r1,[r3,#4]
 342 007e 5048     	 ldr r0,.L20
 343 0080 7A68     	 ldr r2,[r7,#4]
 344 0082 131C     	 mov r3,r2
 345 0084 DB00     	 lsl r3,r3,#3
 346 0086 9B18     	 add r3,r3,r2
 347 0088 9B00     	 lsl r3,r3,#2
 348 008a C318     	 add r3,r0,r3
 349 008c 5960     	 str r1,[r3,#4]
 187:../Dave/Generated/SYSTIMER/systimer.c ****           g_timer_tbl[tbl_index].next = object_ptr;
 350              	 .loc 2 187 0
 351 008e 4C49     	 ldr r1,.L20
 352 0090 7A68     	 ldr r2,[r7,#4]
 353 0092 131C     	 mov r3,r2
 354 0094 DB00     	 lsl r3,r3,#3
 355 0096 9B18     	 add r3,r3,r2
 356 0098 9B00     	 lsl r3,r3,#2
 357 009a 7A69     	 ldr r2,[r7,#20]
 358 009c 5A50     	 str r2,[r3,r1]
 188:../Dave/Generated/SYSTIMER/systimer.c ****           object_ptr->prev = &g_timer_tbl[tbl_index];
 359              	 .loc 2 188 0
 360 009e 7A68     	 ldr r2,[r7,#4]
 361 00a0 131C     	 mov r3,r2
 362 00a2 DB00     	 lsl r3,r3,#3
 363 00a4 9B18     	 add r3,r3,r2
 364 00a6 9B00     	 lsl r3,r3,#2
 365 00a8 454A     	 ldr r2,.L20
 366 00aa 9A18     	 add r2,r3,r2
 367 00ac 7B69     	 ldr r3,[r7,#20]
 368 00ae 5A60     	 str r2,[r3,#4]
 369 00b0 1BE0     	 b .L17
 370              	.L16:
 189:../Dave/Generated/SYSTIMER/systimer.c ****         }
 190:../Dave/Generated/SYSTIMER/systimer.c ****         else
 191:../Dave/Generated/SYSTIMER/systimer.c ****         {
 192:../Dave/Generated/SYSTIMER/systimer.c ****           /* Set Timer as first item */
 193:../Dave/Generated/SYSTIMER/systimer.c ****           g_timer_tbl[tbl_index].next = g_timer_list;
 371              	 .loc 2 193 0
 372 00b2 444B     	 ldr r3,.L20+4
 373 00b4 1868     	 ldr r0,[r3]
 374 00b6 4249     	 ldr r1,.L20
 375 00b8 7A68     	 ldr r2,[r7,#4]
 376 00ba 131C     	 mov r3,r2
 377 00bc DB00     	 lsl r3,r3,#3
 378 00be 9B18     	 add r3,r3,r2
 379 00c0 9B00     	 lsl r3,r3,#2
 380 00c2 5850     	 str r0,[r3,r1]
 194:../Dave/Generated/SYSTIMER/systimer.c ****           g_timer_list->prev = &g_timer_tbl[tbl_index];
 381              	 .loc 2 194 0
 382 00c4 3F4B     	 ldr r3,.L20+4
 383 00c6 1A68     	 ldr r2,[r3]
 384 00c8 7968     	 ldr r1,[r7,#4]
 385 00ca 0B1C     	 mov r3,r1
 386 00cc DB00     	 lsl r3,r3,#3
 387 00ce 5B18     	 add r3,r3,r1
 388 00d0 9B00     	 lsl r3,r3,#2
 389 00d2 3B49     	 ldr r1,.L20
 390 00d4 5B18     	 add r3,r3,r1
 391 00d6 5360     	 str r3,[r2,#4]
 195:../Dave/Generated/SYSTIMER/systimer.c ****           g_timer_list = &g_timer_tbl[tbl_index];
 392              	 .loc 2 195 0
 393 00d8 7A68     	 ldr r2,[r7,#4]
 394 00da 131C     	 mov r3,r2
 395 00dc DB00     	 lsl r3,r3,#3
 396 00de 9B18     	 add r3,r3,r2
 397 00e0 9B00     	 lsl r3,r3,#2
 398 00e2 374A     	 ldr r2,.L20
 399 00e4 9A18     	 add r2,r3,r2
 400 00e6 374B     	 ldr r3,.L20+4
 401 00e8 1A60     	 str r2,[r3]
 402              	.L17:
 196:../Dave/Generated/SYSTIMER/systimer.c ****         }
 197:../Dave/Generated/SYSTIMER/systimer.c ****         g_timer_tbl[tbl_index].count = g_timer_tbl[tbl_index].next->count + (uint32_t)delta_ticks;
 403              	 .loc 2 197 0
 404 00ea 3549     	 ldr r1,.L20
 405 00ec 7A68     	 ldr r2,[r7,#4]
 406 00ee 131C     	 mov r3,r2
 407 00f0 DB00     	 lsl r3,r3,#3
 408 00f2 9B18     	 add r3,r3,r2
 409 00f4 9B00     	 lsl r3,r3,#2
 410 00f6 5B58     	 ldr r3,[r3,r1]
 411 00f8 9A69     	 ldr r2,[r3,#24]
 412 00fa 3B69     	 ldr r3,[r7,#16]
 413 00fc D118     	 add r1,r2,r3
 414 00fe 3048     	 ldr r0,.L20
 415 0100 7A68     	 ldr r2,[r7,#4]
 416 0102 131C     	 mov r3,r2
 417 0104 DB00     	 lsl r3,r3,#3
 418 0106 9B18     	 add r3,r3,r2
 419 0108 9B00     	 lsl r3,r3,#2
 420 010a C318     	 add r3,r0,r3
 421 010c 1833     	 add r3,r3,#24
 422 010e 1960     	 str r1,[r3]
 198:../Dave/Generated/SYSTIMER/systimer.c ****         g_timer_tbl[tbl_index].next->count  -= g_timer_tbl[tbl_index].count;
 423              	 .loc 2 198 0
 424 0110 2B49     	 ldr r1,.L20
 425 0112 7A68     	 ldr r2,[r7,#4]
 426 0114 131C     	 mov r3,r2
 427 0116 DB00     	 lsl r3,r3,#3
 428 0118 9B18     	 add r3,r3,r2
 429 011a 9B00     	 lsl r3,r3,#2
 430 011c 5A58     	 ldr r2,[r3,r1]
 431 011e 2848     	 ldr r0,.L20
 432 0120 7968     	 ldr r1,[r7,#4]
 433 0122 0B1C     	 mov r3,r1
 434 0124 DB00     	 lsl r3,r3,#3
 435 0126 5B18     	 add r3,r3,r1
 436 0128 9B00     	 lsl r3,r3,#2
 437 012a 1B58     	 ldr r3,[r3,r0]
 438 012c 9869     	 ldr r0,[r3,#24]
 439 012e 244C     	 ldr r4,.L20
 440 0130 7968     	 ldr r1,[r7,#4]
 441 0132 0B1C     	 mov r3,r1
 442 0134 DB00     	 lsl r3,r3,#3
 443 0136 5B18     	 add r3,r3,r1
 444 0138 9B00     	 lsl r3,r3,#2
 445 013a E318     	 add r3,r4,r3
 446 013c 1833     	 add r3,r3,#24
 447 013e 1B68     	 ldr r3,[r3]
 448 0140 C31A     	 sub r3,r0,r3
 449 0142 9361     	 str r3,[r2,#24]
 199:../Dave/Generated/SYSTIMER/systimer.c ****         found_flag = true;
 450              	 .loc 2 199 0
 451 0144 0F23     	 mov r3,#15
 452 0146 FB18     	 add r3,r7,r3
 453 0148 0122     	 mov r2,#1
 454 014a 1A70     	 strb r2,[r3]
 455 014c 26E0     	 b .L18
 456              	.L15:
 200:../Dave/Generated/SYSTIMER/systimer.c ****       }
 201:../Dave/Generated/SYSTIMER/systimer.c ****       /* Check for last item in list */
 202:../Dave/Generated/SYSTIMER/systimer.c ****       else
 203:../Dave/Generated/SYSTIMER/systimer.c ****       {
 204:../Dave/Generated/SYSTIMER/systimer.c ****         if ((delta_ticks > 0) && (NULL == object_ptr->next))
 457              	 .loc 2 204 0
 458 014e 3B69     	 ldr r3,[r7,#16]
 459 0150 002B     	 cmp r3,#0
 460 0152 23DD     	 ble .L18
 461              	 .loc 2 204 0 is_stmt 0 discriminator 1
 462 0154 7B69     	 ldr r3,[r7,#20]
 463 0156 1B68     	 ldr r3,[r3]
 464 0158 002B     	 cmp r3,#0
 465 015a 1FD1     	 bne .L18
 205:../Dave/Generated/SYSTIMER/systimer.c ****         {
 206:../Dave/Generated/SYSTIMER/systimer.c ****           /* Yes, insert into */
 207:../Dave/Generated/SYSTIMER/systimer.c ****           g_timer_tbl[tbl_index].prev = object_ptr;
 466              	 .loc 2 207 0 is_stmt 1
 467 015c 1849     	 ldr r1,.L20
 468 015e 7A68     	 ldr r2,[r7,#4]
 469 0160 131C     	 mov r3,r2
 470 0162 DB00     	 lsl r3,r3,#3
 471 0164 9B18     	 add r3,r3,r2
 472 0166 9B00     	 lsl r3,r3,#2
 473 0168 CB18     	 add r3,r1,r3
 474 016a 7A69     	 ldr r2,[r7,#20]
 475 016c 5A60     	 str r2,[r3,#4]
 208:../Dave/Generated/SYSTIMER/systimer.c ****           object_ptr->next = &g_timer_tbl[tbl_index];
 476              	 .loc 2 208 0
 477 016e 7A68     	 ldr r2,[r7,#4]
 478 0170 131C     	 mov r3,r2
 479 0172 DB00     	 lsl r3,r3,#3
 480 0174 9B18     	 add r3,r3,r2
 481 0176 9B00     	 lsl r3,r3,#2
 482 0178 114A     	 ldr r2,.L20
 483 017a 9A18     	 add r2,r3,r2
 484 017c 7B69     	 ldr r3,[r7,#20]
 485 017e 1A60     	 str r2,[r3]
 209:../Dave/Generated/SYSTIMER/systimer.c ****           g_timer_tbl[tbl_index].count = (uint32_t)delta_ticks;
 486              	 .loc 2 209 0
 487 0180 3969     	 ldr r1,[r7,#16]
 488 0182 0F48     	 ldr r0,.L20
 489 0184 7A68     	 ldr r2,[r7,#4]
 490 0186 131C     	 mov r3,r2
 491 0188 DB00     	 lsl r3,r3,#3
 492 018a 9B18     	 add r3,r3,r2
 493 018c 9B00     	 lsl r3,r3,#2
 494 018e C318     	 add r3,r0,r3
 495 0190 1833     	 add r3,r3,#24
 496 0192 1960     	 str r1,[r3]
 210:../Dave/Generated/SYSTIMER/systimer.c ****           found_flag = true;
 497              	 .loc 2 210 0
 498 0194 0F23     	 mov r3,#15
 499 0196 FB18     	 add r3,r7,r3
 500 0198 0122     	 mov r2,#1
 501 019a 1A70     	 strb r2,[r3]
 502              	.L18:
 211:../Dave/Generated/SYSTIMER/systimer.c ****         }
 212:../Dave/Generated/SYSTIMER/systimer.c ****       }
 213:../Dave/Generated/SYSTIMER/systimer.c ****       /* Get the next item in timer list */
 214:../Dave/Generated/SYSTIMER/systimer.c ****       object_ptr = object_ptr->next;
 503              	 .loc 2 214 0
 504 019c 7B69     	 ldr r3,[r7,#20]
 505 019e 1B68     	 ldr r3,[r3]
 506 01a0 7B61     	 str r3,[r7,#20]
 507              	.L14:
 174:../Dave/Generated/SYSTIMER/systimer.c ****     {
 508              	 .loc 2 174 0
 509 01a2 7B69     	 ldr r3,[r7,#20]
 510 01a4 002B     	 cmp r3,#0
 511 01a6 08D0     	 beq .L11
 174:../Dave/Generated/SYSTIMER/systimer.c ****     {
 512              	 .loc 2 174 0 is_stmt 0 discriminator 1
 513 01a8 0F23     	 mov r3,#15
 514 01aa FB18     	 add r3,r7,r3
 515 01ac 1B78     	 ldrb r3,[r3]
 516 01ae 0122     	 mov r2,#1
 517 01b0 5340     	 eor r3,r2
 518 01b2 DBB2     	 uxtb r3,r3
 519 01b4 002B     	 cmp r3,#0
 520 01b6 00D0     	 beq .LCB448
 521 01b8 48E7     	 b .L19
 522              	.LCB448:
 523              	.L11:
 215:../Dave/Generated/SYSTIMER/systimer.c ****     }
 216:../Dave/Generated/SYSTIMER/systimer.c ****   }
 217:../Dave/Generated/SYSTIMER/systimer.c **** }
 524              	 .loc 2 217 0 is_stmt 1
 525 01ba BD46     	 mov sp,r7
 526 01bc 07B0     	 add sp,sp,#28
 527              	 
 528 01be 90BD     	 pop {r4,r7,pc}
 529              	.L21:
 530              	 .align 2
 531              	.L20:
 532 01c0 00000000 	 .word g_timer_tbl
 533 01c4 00000000 	 .word g_timer_list
 534              	 .cfi_endproc
 535              	.LFE42:
 537              	 .section .text.SYSTIMER_lRemoveTimerList,"ax",%progbits
 538              	 .align 2
 539              	 .code 16
 540              	 .thumb_func
 542              	SYSTIMER_lRemoveTimerList:
 543              	.LFB43:
 218:../Dave/Generated/SYSTIMER/systimer.c **** 
 219:../Dave/Generated/SYSTIMER/systimer.c **** /*
 220:../Dave/Generated/SYSTIMER/systimer.c ****  * This function is called to remove a timer from the timer list. 
 221:../Dave/Generated/SYSTIMER/systimer.c ****  */
 222:../Dave/Generated/SYSTIMER/systimer.c **** static void SYSTIMER_lRemoveTimerList(uint32_t tbl_index)
 223:../Dave/Generated/SYSTIMER/systimer.c **** {
 544              	 .loc 2 223 0
 545              	 .cfi_startproc
 546 0000 80B5     	 push {r7,lr}
 547              	.LCFI9:
 548              	 .cfi_def_cfa_offset 8
 549              	 .cfi_offset 7,-8
 550              	 .cfi_offset 14,-4
 551 0002 84B0     	 sub sp,sp,#16
 552              	.LCFI10:
 553              	 .cfi_def_cfa_offset 24
 554 0004 00AF     	 add r7,sp,#0
 555              	.LCFI11:
 556              	 .cfi_def_cfa_register 7
 557 0006 7860     	 str r0,[r7,#4]
 224:../Dave/Generated/SYSTIMER/systimer.c ****   SYSTIMER_OBJECT_t *object_ptr;
 225:../Dave/Generated/SYSTIMER/systimer.c ****   object_ptr = &g_timer_tbl[tbl_index];
 558              	 .loc 2 225 0
 559 0008 7A68     	 ldr r2,[r7,#4]
 560 000a 131C     	 mov r3,r2
 561 000c DB00     	 lsl r3,r3,#3
 562 000e 9B18     	 add r3,r3,r2
 563 0010 9B00     	 lsl r3,r3,#2
 564 0012 284A     	 ldr r2,.L27
 565 0014 9B18     	 add r3,r3,r2
 566 0016 FB60     	 str r3,[r7,#12]
 226:../Dave/Generated/SYSTIMER/systimer.c ****   /* Check whether only one timer available */
 227:../Dave/Generated/SYSTIMER/systimer.c ****   if ((NULL == object_ptr->prev) && (NULL == object_ptr->next ))
 567              	 .loc 2 227 0
 568 0018 FB68     	 ldr r3,[r7,#12]
 569 001a 5B68     	 ldr r3,[r3,#4]
 570 001c 002B     	 cmp r3,#0
 571 001e 07D1     	 bne .L23
 572              	 .loc 2 227 0 is_stmt 0 discriminator 1
 573 0020 FB68     	 ldr r3,[r7,#12]
 574 0022 1B68     	 ldr r3,[r3]
 575 0024 002B     	 cmp r3,#0
 576 0026 03D1     	 bne .L23
 228:../Dave/Generated/SYSTIMER/systimer.c ****   {
 229:../Dave/Generated/SYSTIMER/systimer.c ****     /* set timer list as NULL */ 
 230:../Dave/Generated/SYSTIMER/systimer.c ****     g_timer_list = NULL;                  
 577              	 .loc 2 230 0 is_stmt 1
 578 0028 234B     	 ldr r3,.L27+4
 579 002a 0022     	 mov r2,#0
 580 002c 1A60     	 str r2,[r3]
 581 002e 3DE0     	 b .L22
 582              	.L23:
 231:../Dave/Generated/SYSTIMER/systimer.c ****   }
 232:../Dave/Generated/SYSTIMER/systimer.c ****   /* Check if the first item in timer list */
 233:../Dave/Generated/SYSTIMER/systimer.c ****   else if (NULL == object_ptr->prev)
 583              	 .loc 2 233 0
 584 0030 FB68     	 ldr r3,[r7,#12]
 585 0032 5B68     	 ldr r3,[r3,#4]
 586 0034 002B     	 cmp r3,#0
 587 0036 14D1     	 bne .L25
 234:../Dave/Generated/SYSTIMER/systimer.c ****   {
 235:../Dave/Generated/SYSTIMER/systimer.c ****     /* Remove timer from list, and reset timer list */
 236:../Dave/Generated/SYSTIMER/systimer.c ****     g_timer_list  = object_ptr->next;
 588              	 .loc 2 236 0
 589 0038 FB68     	 ldr r3,[r7,#12]
 590 003a 1A68     	 ldr r2,[r3]
 591 003c 1E4B     	 ldr r3,.L27+4
 592 003e 1A60     	 str r2,[r3]
 237:../Dave/Generated/SYSTIMER/systimer.c ****     g_timer_list->prev = NULL;
 593              	 .loc 2 237 0
 594 0040 1D4B     	 ldr r3,.L27+4
 595 0042 1B68     	 ldr r3,[r3]
 596 0044 0022     	 mov r2,#0
 597 0046 5A60     	 str r2,[r3,#4]
 238:../Dave/Generated/SYSTIMER/systimer.c ****     g_timer_list->count += object_ptr->count;
 598              	 .loc 2 238 0
 599 0048 1B4B     	 ldr r3,.L27+4
 600 004a 1B68     	 ldr r3,[r3]
 601 004c 1A4A     	 ldr r2,.L27+4
 602 004e 1268     	 ldr r2,[r2]
 603 0050 9169     	 ldr r1,[r2,#24]
 604 0052 FA68     	 ldr r2,[r7,#12]
 605 0054 9269     	 ldr r2,[r2,#24]
 606 0056 8A18     	 add r2,r1,r2
 607 0058 9A61     	 str r2,[r3,#24]
 239:../Dave/Generated/SYSTIMER/systimer.c ****     object_ptr->next    = NULL;
 608              	 .loc 2 239 0
 609 005a FB68     	 ldr r3,[r7,#12]
 610 005c 0022     	 mov r2,#0
 611 005e 1A60     	 str r2,[r3]
 612 0060 24E0     	 b .L22
 613              	.L25:
 240:../Dave/Generated/SYSTIMER/systimer.c ****   }
 241:../Dave/Generated/SYSTIMER/systimer.c ****   /* Check if the last item in timer list */
 242:../Dave/Generated/SYSTIMER/systimer.c ****   else if (NULL == object_ptr->next)
 614              	 .loc 2 242 0
 615 0062 FB68     	 ldr r3,[r7,#12]
 616 0064 1B68     	 ldr r3,[r3]
 617 0066 002B     	 cmp r3,#0
 618 0068 07D1     	 bne .L26
 243:../Dave/Generated/SYSTIMER/systimer.c ****   {
 244:../Dave/Generated/SYSTIMER/systimer.c ****     /* Remove timer from list */
 245:../Dave/Generated/SYSTIMER/systimer.c ****     object_ptr->prev->next = NULL;
 619              	 .loc 2 245 0
 620 006a FB68     	 ldr r3,[r7,#12]
 621 006c 5B68     	 ldr r3,[r3,#4]
 622 006e 0022     	 mov r2,#0
 623 0070 1A60     	 str r2,[r3]
 246:../Dave/Generated/SYSTIMER/systimer.c ****     object_ptr->prev = NULL;
 624              	 .loc 2 246 0
 625 0072 FB68     	 ldr r3,[r7,#12]
 626 0074 0022     	 mov r2,#0
 627 0076 5A60     	 str r2,[r3,#4]
 628 0078 18E0     	 b .L22
 629              	.L26:
 247:../Dave/Generated/SYSTIMER/systimer.c ****   }
 248:../Dave/Generated/SYSTIMER/systimer.c ****   else                       
 249:../Dave/Generated/SYSTIMER/systimer.c ****   {
 250:../Dave/Generated/SYSTIMER/systimer.c ****     /* Remove timer from list */
 251:../Dave/Generated/SYSTIMER/systimer.c ****     object_ptr->prev->next  =  object_ptr->next;
 630              	 .loc 2 251 0
 631 007a FB68     	 ldr r3,[r7,#12]
 632 007c 5B68     	 ldr r3,[r3,#4]
 633 007e FA68     	 ldr r2,[r7,#12]
 634 0080 1268     	 ldr r2,[r2]
 635 0082 1A60     	 str r2,[r3]
 252:../Dave/Generated/SYSTIMER/systimer.c ****     object_ptr->next->prev  =  object_ptr->prev;
 636              	 .loc 2 252 0
 637 0084 FB68     	 ldr r3,[r7,#12]
 638 0086 1B68     	 ldr r3,[r3]
 639 0088 FA68     	 ldr r2,[r7,#12]
 640 008a 5268     	 ldr r2,[r2,#4]
 641 008c 5A60     	 str r2,[r3,#4]
 253:../Dave/Generated/SYSTIMER/systimer.c ****     object_ptr->next->count += object_ptr->count;
 642              	 .loc 2 253 0
 643 008e FB68     	 ldr r3,[r7,#12]
 644 0090 1B68     	 ldr r3,[r3]
 645 0092 FA68     	 ldr r2,[r7,#12]
 646 0094 1268     	 ldr r2,[r2]
 647 0096 9169     	 ldr r1,[r2,#24]
 648 0098 FA68     	 ldr r2,[r7,#12]
 649 009a 9269     	 ldr r2,[r2,#24]
 650 009c 8A18     	 add r2,r1,r2
 651 009e 9A61     	 str r2,[r3,#24]
 254:../Dave/Generated/SYSTIMER/systimer.c ****     object_ptr->next = NULL;
 652              	 .loc 2 254 0
 653 00a0 FB68     	 ldr r3,[r7,#12]
 654 00a2 0022     	 mov r2,#0
 655 00a4 1A60     	 str r2,[r3]
 255:../Dave/Generated/SYSTIMER/systimer.c ****     object_ptr->prev = NULL;
 656              	 .loc 2 255 0
 657 00a6 FB68     	 ldr r3,[r7,#12]
 658 00a8 0022     	 mov r2,#0
 659 00aa 5A60     	 str r2,[r3,#4]
 660              	.L22:
 256:../Dave/Generated/SYSTIMER/systimer.c ****   }
 257:../Dave/Generated/SYSTIMER/systimer.c **** }
 661              	 .loc 2 257 0
 662 00ac BD46     	 mov sp,r7
 663 00ae 04B0     	 add sp,sp,#16
 664              	 
 665 00b0 80BD     	 pop {r7,pc}
 666              	.L28:
 667 00b2 C046     	 .align 2
 668              	.L27:
 669 00b4 00000000 	 .word g_timer_tbl
 670 00b8 00000000 	 .word g_timer_list
 671              	 .cfi_endproc
 672              	.LFE43:
 674              	 .section .text.SYSTIMER_lTimerHandler,"ax",%progbits
 675              	 .align 2
 676              	 .code 16
 677              	 .thumb_func
 679              	SYSTIMER_lTimerHandler:
 680              	.LFB44:
 258:../Dave/Generated/SYSTIMER/systimer.c **** 
 259:../Dave/Generated/SYSTIMER/systimer.c **** /*
 260:../Dave/Generated/SYSTIMER/systimer.c ****  * Handler function called from SysTick event handler.
 261:../Dave/Generated/SYSTIMER/systimer.c ****  */
 262:../Dave/Generated/SYSTIMER/systimer.c **** static void SYSTIMER_lTimerHandler(void)
 263:../Dave/Generated/SYSTIMER/systimer.c **** {
 681              	 .loc 2 263 0
 682              	 .cfi_startproc
 683 0000 80B5     	 push {r7,lr}
 684              	.LCFI12:
 685              	 .cfi_def_cfa_offset 8
 686              	 .cfi_offset 7,-8
 687              	 .cfi_offset 14,-4
 688 0002 82B0     	 sub sp,sp,#8
 689              	.LCFI13:
 690              	 .cfi_def_cfa_offset 16
 691 0004 00AF     	 add r7,sp,#0
 692              	.LCFI14:
 693              	 .cfi_def_cfa_register 7
 264:../Dave/Generated/SYSTIMER/systimer.c ****   SYSTIMER_OBJECT_t *object_ptr;
 265:../Dave/Generated/SYSTIMER/systimer.c ****   /* Get first item of timer list */
 266:../Dave/Generated/SYSTIMER/systimer.c ****   object_ptr = g_timer_list;
 694              	 .loc 2 266 0
 695 0006 2F4B     	 ldr r3,.L39
 696 0008 1B68     	 ldr r3,[r3]
 697 000a 7B60     	 str r3,[r7,#4]
 267:../Dave/Generated/SYSTIMER/systimer.c ****   while ((NULL != object_ptr) && (0U == object_ptr->count))
 698              	 .loc 2 267 0
 699 000c 50E0     	 b .L30
 700              	.L38:
 268:../Dave/Generated/SYSTIMER/systimer.c ****   {
 269:../Dave/Generated/SYSTIMER/systimer.c ****     if (true == object_ptr->delete_swtmr)
 701              	 .loc 2 269 0
 702 000e 7B68     	 ldr r3,[r7,#4]
 703 0010 2022     	 mov r2,#32
 704 0012 9B5C     	 ldrb r3,[r3,r2]
 705 0014 002B     	 cmp r3,#0
 706 0016 13D0     	 beq .L31
 270:../Dave/Generated/SYSTIMER/systimer.c ****     {
 271:../Dave/Generated/SYSTIMER/systimer.c ****       /* Yes, remove this timer from timer list */
 272:../Dave/Generated/SYSTIMER/systimer.c ****       SYSTIMER_lRemoveTimerList((uint32_t)object_ptr->id);
 707              	 .loc 2 272 0
 708 0018 7B68     	 ldr r3,[r7,#4]
 709 001a 5B69     	 ldr r3,[r3,#20]
 710 001c 181C     	 mov r0,r3
 711 001e FFF7FEFF 	 bl SYSTIMER_lRemoveTimerList
 273:../Dave/Generated/SYSTIMER/systimer.c ****       /* Set timer status as SYSTIMER_STATE_NOT_INITIALIZED */
 274:../Dave/Generated/SYSTIMER/systimer.c ****       object_ptr->state = SYSTIMER_STATE_NOT_INITIALIZED;
 712              	 .loc 2 274 0
 713 0022 7B68     	 ldr r3,[r7,#4]
 714 0024 0022     	 mov r2,#0
 715 0026 5A73     	 strb r2,[r3,#13]
 275:../Dave/Generated/SYSTIMER/systimer.c ****       /* Release resource which are hold by this timer */
 276:../Dave/Generated/SYSTIMER/systimer.c ****       g_timer_tracker &= ~(1U << object_ptr->id);
 716              	 .loc 2 276 0
 717 0028 7B68     	 ldr r3,[r7,#4]
 718 002a 5B69     	 ldr r3,[r3,#20]
 719 002c 1A1C     	 mov r2,r3
 720 002e 0123     	 mov r3,#1
 721 0030 9340     	 lsl r3,r3,r2
 722 0032 DA43     	 mvn r2,r3
 723 0034 244B     	 ldr r3,.L39+4
 724 0036 1B68     	 ldr r3,[r3]
 725 0038 1A40     	 and r2,r3
 726 003a 234B     	 ldr r3,.L39+4
 727 003c 1A60     	 str r2,[r3]
 728 003e 34E0     	 b .L32
 729              	.L31:
 277:../Dave/Generated/SYSTIMER/systimer.c ****     }
 278:../Dave/Generated/SYSTIMER/systimer.c ****     /* Check whether timer is a one shot timer */
 279:../Dave/Generated/SYSTIMER/systimer.c ****     else if (SYSTIMER_MODE_ONE_SHOT == object_ptr->mode)
 730              	 .loc 2 279 0
 731 0040 7B68     	 ldr r3,[r7,#4]
 732 0042 1B7B     	 ldrb r3,[r3,#12]
 733 0044 002B     	 cmp r3,#0
 734 0046 12D1     	 bne .L33
 280:../Dave/Generated/SYSTIMER/systimer.c ****     {
 281:../Dave/Generated/SYSTIMER/systimer.c ****       if (SYSTIMER_STATE_RUNNING == object_ptr->state)
 735              	 .loc 2 281 0
 736 0048 7B68     	 ldr r3,[r7,#4]
 737 004a 5B7B     	 ldrb r3,[r3,#13]
 738 004c 012B     	 cmp r3,#1
 739 004e 2CD1     	 bne .L32
 282:../Dave/Generated/SYSTIMER/systimer.c ****       {
 283:../Dave/Generated/SYSTIMER/systimer.c ****         /* Yes, remove this timer from timer list */
 284:../Dave/Generated/SYSTIMER/systimer.c ****         SYSTIMER_lRemoveTimerList((uint32_t)object_ptr->id);
 740              	 .loc 2 284 0
 741 0050 7B68     	 ldr r3,[r7,#4]
 742 0052 5B69     	 ldr r3,[r3,#20]
 743 0054 181C     	 mov r0,r3
 744 0056 FFF7FEFF 	 bl SYSTIMER_lRemoveTimerList
 285:../Dave/Generated/SYSTIMER/systimer.c ****         /* Set timer status as SYSTIMER_STATE_STOPPED */
 286:../Dave/Generated/SYSTIMER/systimer.c ****         object_ptr->state = SYSTIMER_STATE_STOPPED;
 745              	 .loc 2 286 0
 746 005a 7B68     	 ldr r3,[r7,#4]
 747 005c 0222     	 mov r2,#2
 748 005e 5A73     	 strb r2,[r3,#13]
 287:../Dave/Generated/SYSTIMER/systimer.c ****         /* Call timer callback function */
 288:../Dave/Generated/SYSTIMER/systimer.c ****         (object_ptr->callback)(object_ptr->args);
 749              	 .loc 2 288 0
 750 0060 7B68     	 ldr r3,[r7,#4]
 751 0062 9A68     	 ldr r2,[r3,#8]
 752 0064 7B68     	 ldr r3,[r7,#4]
 753 0066 1B69     	 ldr r3,[r3,#16]
 754 0068 181C     	 mov r0,r3
 755 006a 9047     	 blx r2
 756 006c 1DE0     	 b .L32
 757              	.L33:
 289:../Dave/Generated/SYSTIMER/systimer.c ****       }
 290:../Dave/Generated/SYSTIMER/systimer.c ****     }
 291:../Dave/Generated/SYSTIMER/systimer.c ****     /* Check whether timer is periodic timer */
 292:../Dave/Generated/SYSTIMER/systimer.c ****     else if (SYSTIMER_MODE_PERIODIC == object_ptr->mode)
 758              	 .loc 2 292 0
 759 006e 7B68     	 ldr r3,[r7,#4]
 760 0070 1B7B     	 ldrb r3,[r3,#12]
 761 0072 012B     	 cmp r3,#1
 762 0074 18D1     	 bne .L35
 293:../Dave/Generated/SYSTIMER/systimer.c ****     {
 294:../Dave/Generated/SYSTIMER/systimer.c ****       if (SYSTIMER_STATE_RUNNING == object_ptr->state)
 763              	 .loc 2 294 0
 764 0076 7B68     	 ldr r3,[r7,#4]
 765 0078 5B7B     	 ldrb r3,[r3,#13]
 766 007a 012B     	 cmp r3,#1
 767 007c 15D1     	 bne .L32
 295:../Dave/Generated/SYSTIMER/systimer.c ****       {
 296:../Dave/Generated/SYSTIMER/systimer.c ****         /* Yes, remove this timer from timer list */
 297:../Dave/Generated/SYSTIMER/systimer.c ****         SYSTIMER_lRemoveTimerList((uint32_t)object_ptr->id);
 768              	 .loc 2 297 0
 769 007e 7B68     	 ldr r3,[r7,#4]
 770 0080 5B69     	 ldr r3,[r3,#20]
 771 0082 181C     	 mov r0,r3
 772 0084 FFF7FEFF 	 bl SYSTIMER_lRemoveTimerList
 298:../Dave/Generated/SYSTIMER/systimer.c ****         /* Reset timer tick */
 299:../Dave/Generated/SYSTIMER/systimer.c ****         object_ptr->count = object_ptr->reload;
 773              	 .loc 2 299 0
 774 0088 7B68     	 ldr r3,[r7,#4]
 775 008a DA69     	 ldr r2,[r3,#28]
 776 008c 7B68     	 ldr r3,[r7,#4]
 777 008e 9A61     	 str r2,[r3,#24]
 300:../Dave/Generated/SYSTIMER/systimer.c ****         /* Insert timer into timer list */
 301:../Dave/Generated/SYSTIMER/systimer.c ****         SYSTIMER_lInsertTimerList((uint32_t)object_ptr->id);
 778              	 .loc 2 301 0
 779 0090 7B68     	 ldr r3,[r7,#4]
 780 0092 5B69     	 ldr r3,[r3,#20]
 781 0094 181C     	 mov r0,r3
 782 0096 FFF7FEFF 	 bl SYSTIMER_lInsertTimerList
 302:../Dave/Generated/SYSTIMER/systimer.c ****         /* Call timer callback function */
 303:../Dave/Generated/SYSTIMER/systimer.c ****         (object_ptr->callback)(object_ptr->args);
 783              	 .loc 2 303 0
 784 009a 7B68     	 ldr r3,[r7,#4]
 785 009c 9A68     	 ldr r2,[r3,#8]
 786 009e 7B68     	 ldr r3,[r7,#4]
 787 00a0 1B69     	 ldr r3,[r3,#16]
 788 00a2 181C     	 mov r0,r3
 789 00a4 9047     	 blx r2
 790 00a6 00E0     	 b .L32
 791              	.L35:
 304:../Dave/Generated/SYSTIMER/systimer.c ****       }
 305:../Dave/Generated/SYSTIMER/systimer.c ****     }
 306:../Dave/Generated/SYSTIMER/systimer.c ****     else
 307:../Dave/Generated/SYSTIMER/systimer.c ****     {
 308:../Dave/Generated/SYSTIMER/systimer.c ****       break;
 792              	 .loc 2 308 0
 793 00a8 09E0     	 b .L29
 794              	.L32:
 309:../Dave/Generated/SYSTIMER/systimer.c ****     }
 310:../Dave/Generated/SYSTIMER/systimer.c ****     /* Get first item of timer list */
 311:../Dave/Generated/SYSTIMER/systimer.c ****     object_ptr = g_timer_list;
 795              	 .loc 2 311 0
 796 00aa 064B     	 ldr r3,.L39
 797 00ac 1B68     	 ldr r3,[r3]
 798 00ae 7B60     	 str r3,[r7,#4]
 799              	.L30:
 267:../Dave/Generated/SYSTIMER/systimer.c ****   {
 800              	 .loc 2 267 0
 801 00b0 7B68     	 ldr r3,[r7,#4]
 802 00b2 002B     	 cmp r3,#0
 803 00b4 03D0     	 beq .L29
 267:../Dave/Generated/SYSTIMER/systimer.c ****   {
 804              	 .loc 2 267 0 is_stmt 0 discriminator 1
 805 00b6 7B68     	 ldr r3,[r7,#4]
 806 00b8 9B69     	 ldr r3,[r3,#24]
 807 00ba 002B     	 cmp r3,#0
 808 00bc A7D0     	 beq .L38
 809              	.L29:
 312:../Dave/Generated/SYSTIMER/systimer.c ****   }
 313:../Dave/Generated/SYSTIMER/systimer.c **** }
 810              	 .loc 2 313 0 is_stmt 1
 811 00be BD46     	 mov sp,r7
 812 00c0 02B0     	 add sp,sp,#8
 813              	 
 814 00c2 80BD     	 pop {r7,pc}
 815              	.L40:
 816              	 .align 2
 817              	.L39:
 818 00c4 00000000 	 .word g_timer_list
 819 00c8 00000000 	 .word g_timer_tracker
 820              	 .cfi_endproc
 821              	.LFE44:
 823              	 .section .text.SysTick_Handler,"ax",%progbits
 824              	 .align 2
 825              	 .global SysTick_Handler
 826              	 .code 16
 827              	 .thumb_func
 829              	SysTick_Handler:
 830              	.LFB45:
 314:../Dave/Generated/SYSTIMER/systimer.c **** 
 315:../Dave/Generated/SYSTIMER/systimer.c **** /*
 316:../Dave/Generated/SYSTIMER/systimer.c ****  *  SysTick Event Handler.
 317:../Dave/Generated/SYSTIMER/systimer.c ****  */
 318:../Dave/Generated/SYSTIMER/systimer.c **** void SysTick_Handler(void)
 319:../Dave/Generated/SYSTIMER/systimer.c **** {
 831              	 .loc 2 319 0
 832              	 .cfi_startproc
 833 0000 80B5     	 push {r7,lr}
 834              	.LCFI15:
 835              	 .cfi_def_cfa_offset 8
 836              	 .cfi_offset 7,-8
 837              	 .cfi_offset 14,-4
 838 0002 82B0     	 sub sp,sp,#8
 839              	.LCFI16:
 840              	 .cfi_def_cfa_offset 16
 841 0004 00AF     	 add r7,sp,#0
 842              	.LCFI17:
 843              	 .cfi_def_cfa_register 7
 320:../Dave/Generated/SYSTIMER/systimer.c ****   SYSTIMER_OBJECT_t *object_ptr;
 321:../Dave/Generated/SYSTIMER/systimer.c ****   object_ptr = g_timer_list;
 844              	 .loc 2 321 0
 845 0006 0E4B     	 ldr r3,.L44
 846 0008 1B68     	 ldr r3,[r3]
 847 000a 7B60     	 str r3,[r7,#4]
 322:../Dave/Generated/SYSTIMER/systimer.c ****   g_systick_count++;
 848              	 .loc 2 322 0
 849 000c 0D4B     	 ldr r3,.L44+4
 850 000e 1B68     	 ldr r3,[r3]
 851 0010 5A1C     	 add r2,r3,#1
 852 0012 0C4B     	 ldr r3,.L44+4
 853 0014 1A60     	 str r2,[r3]
 323:../Dave/Generated/SYSTIMER/systimer.c **** 
 324:../Dave/Generated/SYSTIMER/systimer.c ****   if (NULL != object_ptr)
 854              	 .loc 2 324 0
 855 0016 7B68     	 ldr r3,[r7,#4]
 856 0018 002B     	 cmp r3,#0
 857 001a 0ED0     	 beq .L41
 325:../Dave/Generated/SYSTIMER/systimer.c ****   {
 326:../Dave/Generated/SYSTIMER/systimer.c ****     if (object_ptr->count > 1UL)
 858              	 .loc 2 326 0
 859 001c 7B68     	 ldr r3,[r7,#4]
 860 001e 9B69     	 ldr r3,[r3,#24]
 861 0020 012B     	 cmp r3,#1
 862 0022 05D9     	 bls .L43
 327:../Dave/Generated/SYSTIMER/systimer.c ****     {
 328:../Dave/Generated/SYSTIMER/systimer.c ****       object_ptr->count--;
 863              	 .loc 2 328 0
 864 0024 7B68     	 ldr r3,[r7,#4]
 865 0026 9B69     	 ldr r3,[r3,#24]
 866 0028 5A1E     	 sub r2,r3,#1
 867 002a 7B68     	 ldr r3,[r7,#4]
 868 002c 9A61     	 str r2,[r3,#24]
 869 002e 04E0     	 b .L41
 870              	.L43:
 329:../Dave/Generated/SYSTIMER/systimer.c ****     }
 330:../Dave/Generated/SYSTIMER/systimer.c ****     else
 331:../Dave/Generated/SYSTIMER/systimer.c ****     {
 332:../Dave/Generated/SYSTIMER/systimer.c ****       object_ptr->count = 0U;
 871              	 .loc 2 332 0
 872 0030 7B68     	 ldr r3,[r7,#4]
 873 0032 0022     	 mov r2,#0
 874 0034 9A61     	 str r2,[r3,#24]
 333:../Dave/Generated/SYSTIMER/systimer.c ****       SYSTIMER_lTimerHandler();
 875              	 .loc 2 333 0
 876 0036 FFF7FEFF 	 bl SYSTIMER_lTimerHandler
 877              	.L41:
 334:../Dave/Generated/SYSTIMER/systimer.c ****     }
 335:../Dave/Generated/SYSTIMER/systimer.c ****   }
 336:../Dave/Generated/SYSTIMER/systimer.c **** }
 878              	 .loc 2 336 0
 879 003a BD46     	 mov sp,r7
 880 003c 02B0     	 add sp,sp,#8
 881              	 
 882 003e 80BD     	 pop {r7,pc}
 883              	.L45:
 884              	 .align 2
 885              	.L44:
 886 0040 00000000 	 .word g_timer_list
 887 0044 00000000 	 .word g_systick_count
 888              	 .cfi_endproc
 889              	.LFE45:
 891              	 .section .text.SYSTIMER_GetAppVersion,"ax",%progbits
 892              	 .align 2
 893              	 .global SYSTIMER_GetAppVersion
 894              	 .code 16
 895              	 .thumb_func
 897              	SYSTIMER_GetAppVersion:
 898              	.LFB46:
 337:../Dave/Generated/SYSTIMER/systimer.c **** 
 338:../Dave/Generated/SYSTIMER/systimer.c **** /** @ingroup Simple_System_Timer_App PublicFunc
 339:../Dave/Generated/SYSTIMER/systimer.c ****  * @{
 340:../Dave/Generated/SYSTIMER/systimer.c ****  */
 341:../Dave/Generated/SYSTIMER/systimer.c **** 
 342:../Dave/Generated/SYSTIMER/systimer.c **** /*
 343:../Dave/Generated/SYSTIMER/systimer.c ****  * Function to retrieve the version of the SYSTIMER APP.
 344:../Dave/Generated/SYSTIMER/systimer.c ****  */
 345:../Dave/Generated/SYSTIMER/systimer.c **** DAVE_APP_VERSION_t SYSTIMER_GetAppVersion()
 346:../Dave/Generated/SYSTIMER/systimer.c **** {
 899              	 .loc 2 346 0
 900              	 .cfi_startproc
 901 0000 80B5     	 push {r7,lr}
 902              	.LCFI18:
 903              	 .cfi_def_cfa_offset 8
 904              	 .cfi_offset 7,-8
 905              	 .cfi_offset 14,-4
 906 0002 82B0     	 sub sp,sp,#8
 907              	.LCFI19:
 908              	 .cfi_def_cfa_offset 16
 909 0004 00AF     	 add r7,sp,#0
 910              	.LCFI20:
 911              	 .cfi_def_cfa_register 7
 347:../Dave/Generated/SYSTIMER/systimer.c ****   DAVE_APP_VERSION_t version;
 348:../Dave/Generated/SYSTIMER/systimer.c **** 
 349:../Dave/Generated/SYSTIMER/systimer.c ****   version.major = (uint8_t)SYSTIMER_MAJOR_VERSION;
 912              	 .loc 2 349 0
 913 0006 3B1C     	 mov r3,r7
 914 0008 0422     	 mov r2,#4
 915 000a 1A70     	 strb r2,[r3]
 350:../Dave/Generated/SYSTIMER/systimer.c ****   version.minor = (uint8_t)SYSTIMER_MINOR_VERSION;
 916              	 .loc 2 350 0
 917 000c 3B1C     	 mov r3,r7
 918 000e 0122     	 mov r2,#1
 919 0010 5A70     	 strb r2,[r3,#1]
 351:../Dave/Generated/SYSTIMER/systimer.c ****   version.patch = (uint8_t)SYSTIMER_PATCH_VERSION;
 920              	 .loc 2 351 0
 921 0012 3B1C     	 mov r3,r7
 922 0014 1222     	 mov r2,#18
 923 0016 9A70     	 strb r2,[r3,#2]
 352:../Dave/Generated/SYSTIMER/systimer.c **** 
 353:../Dave/Generated/SYSTIMER/systimer.c ****   return (version);
 924              	 .loc 2 353 0
 925 0018 3B1D     	 add r3,r7,#4
 926 001a 3A1C     	 mov r2,r7
 927 001c 1188     	 ldrh r1,[r2]
 928 001e 1980     	 strh r1,[r3]
 929 0020 9278     	 ldrb r2,[r2,#2]
 930 0022 9A70     	 strb r2,[r3,#2]
 931 0024 3A1D     	 add r2,r7,#4
 932 0026 0023     	 mov r3,#0
 933 0028 1178     	 ldrb r1,[r2]
 934 002a FF20     	 mov r0,#255
 935 002c 0140     	 and r1,r0
 936 002e FF20     	 mov r0,#255
 937 0030 8343     	 bic r3,r0
 938 0032 0B43     	 orr r3,r1
 939 0034 5178     	 ldrb r1,[r2,#1]
 940 0036 FF20     	 mov r0,#255
 941 0038 0140     	 and r1,r0
 942 003a 0902     	 lsl r1,r1,#8
 943 003c 0648     	 ldr r0,.L48
 944 003e 0340     	 and r3,r0
 945 0040 0B43     	 orr r3,r1
 946 0042 9278     	 ldrb r2,[r2,#2]
 947 0044 FF21     	 mov r1,#255
 948 0046 0A40     	 and r2,r1
 949 0048 1204     	 lsl r2,r2,#16
 950 004a 0449     	 ldr r1,.L48+4
 951 004c 0B40     	 and r3,r1
 952 004e 1343     	 orr r3,r2
 354:../Dave/Generated/SYSTIMER/systimer.c **** }
 953              	 .loc 2 354 0
 954 0050 181C     	 mov r0,r3
 955 0052 BD46     	 mov sp,r7
 956 0054 02B0     	 add sp,sp,#8
 957              	 
 958 0056 80BD     	 pop {r7,pc}
 959              	.L49:
 960              	 .align 2
 961              	.L48:
 962 0058 FF00FFFF 	 .word -65281
 963 005c FFFF00FF 	 .word -16711681
 964              	 .cfi_endproc
 965              	.LFE46:
 967              	 .section .text.SYSTIMER_Init,"ax",%progbits
 968              	 .align 2
 969              	 .global SYSTIMER_Init
 970              	 .code 16
 971              	 .thumb_func
 973              	SYSTIMER_Init:
 974              	.LFB47:
 355:../Dave/Generated/SYSTIMER/systimer.c **** 
 356:../Dave/Generated/SYSTIMER/systimer.c **** /*
 357:../Dave/Generated/SYSTIMER/systimer.c ****  * Initialization function which initializes the SYSTIMER APP, configures SysTick timer and SysTick
 358:../Dave/Generated/SYSTIMER/systimer.c ****  */
 359:../Dave/Generated/SYSTIMER/systimer.c **** SYSTIMER_STATUS_t SYSTIMER_Init(SYSTIMER_t *handle)
 360:../Dave/Generated/SYSTIMER/systimer.c **** {
 975              	 .loc 2 360 0
 976              	 .cfi_startproc
 977 0000 80B5     	 push {r7,lr}
 978              	.LCFI21:
 979              	 .cfi_def_cfa_offset 8
 980              	 .cfi_offset 7,-8
 981              	 .cfi_offset 14,-4
 982 0002 84B0     	 sub sp,sp,#16
 983              	.LCFI22:
 984              	 .cfi_def_cfa_offset 24
 985 0004 00AF     	 add r7,sp,#0
 986              	.LCFI23:
 987              	 .cfi_def_cfa_register 7
 988 0006 7860     	 str r0,[r7,#4]
 361:../Dave/Generated/SYSTIMER/systimer.c ****   SYSTIMER_STATUS_t status = SYSTIMER_STATUS_SUCCESS;
 989              	 .loc 2 361 0
 990 0008 0F23     	 mov r3,#15
 991 000a FB18     	 add r3,r7,r3
 992 000c 0022     	 mov r2,#0
 993 000e 1A70     	 strb r2,[r3]
 362:../Dave/Generated/SYSTIMER/systimer.c **** 
 363:../Dave/Generated/SYSTIMER/systimer.c ****   XMC_ASSERT("SYSTIMER_Init: SYSTIMER APP handle pointer uninitialized", (handle != NULL));
 364:../Dave/Generated/SYSTIMER/systimer.c **** 
 365:../Dave/Generated/SYSTIMER/systimer.c ****   /* Check APP initialization status to ensure whether SYSTIMER_Init called or not, initialize SYST
 366:../Dave/Generated/SYSTIMER/systimer.c ****    * SYSTIMER_Init called first time.
 367:../Dave/Generated/SYSTIMER/systimer.c ****    */
 368:../Dave/Generated/SYSTIMER/systimer.c ****   if (false == handle->init_status)
 994              	 .loc 2 368 0
 995 0010 7B68     	 ldr r3,[r7,#4]
 996 0012 1B78     	 ldrb r3,[r3]
 997 0014 0122     	 mov r2,#1
 998 0016 5340     	 eor r3,r2
 999 0018 DBB2     	 uxtb r3,r3
 1000 001a 002B     	 cmp r3,#0
 1001 001c 20D0     	 beq .L51
 369:../Dave/Generated/SYSTIMER/systimer.c ****   {
 370:../Dave/Generated/SYSTIMER/systimer.c ****     /* Initialize the header of the list */
 371:../Dave/Generated/SYSTIMER/systimer.c ****     g_timer_list = NULL;
 1002              	 .loc 2 371 0
 1003 001e 144B     	 ldr r3,.L53
 1004 0020 0022     	 mov r2,#0
 1005 0022 1A60     	 str r2,[r3]
 372:../Dave/Generated/SYSTIMER/systimer.c ****     /* Initialize SysTick timer */
 373:../Dave/Generated/SYSTIMER/systimer.c ****     status = (SYSTIMER_STATUS_t)SysTick_Config((uint32_t)(SYSTIMER_SYSTICK_CLOCK * SYSTIMER_TICK_PE
 1006              	 .loc 2 373 0
 1007 0024 F023     	 mov r3,#240
 1008 0026 5B00     	 lsl r3,r3,#1
 1009 0028 181C     	 mov r0,r3
 1010 002a FFF7FEFF 	 bl SysTick_Config
 1011 002e 021C     	 mov r2,r0
 1012 0030 0F23     	 mov r3,#15
 1013 0032 FB18     	 add r3,r7,r3
 1014 0034 1A70     	 strb r2,[r3]
 374:../Dave/Generated/SYSTIMER/systimer.c **** 
 375:../Dave/Generated/SYSTIMER/systimer.c ****     if (SYSTIMER_STATUS_FAILURE == status)
 1015              	 .loc 2 375 0
 1016 0036 0F23     	 mov r3,#15
 1017 0038 FB18     	 add r3,r7,r3
 1018 003a 1B78     	 ldrb r3,[r3]
 1019 003c 012B     	 cmp r3,#1
 1020 003e 0FD0     	 beq .L51
 376:../Dave/Generated/SYSTIMER/systimer.c ****     {
 377:../Dave/Generated/SYSTIMER/systimer.c ****       XMC_DEBUG("SYSTIMER_Init: Timer reload value out of range");
 378:../Dave/Generated/SYSTIMER/systimer.c ****     }
 379:../Dave/Generated/SYSTIMER/systimer.c ****     else
 380:../Dave/Generated/SYSTIMER/systimer.c ****     {
 381:../Dave/Generated/SYSTIMER/systimer.c **** #if (UC_FAMILY == XMC4)
 382:../Dave/Generated/SYSTIMER/systimer.c ****       /* setting of First SW Timer period is always and subpriority value for XMC4000 devices */
 383:../Dave/Generated/SYSTIMER/systimer.c ****       NVIC_SetPriority(SysTick_IRQn, NVIC_EncodePriority(
 384:../Dave/Generated/SYSTIMER/systimer.c ****       NVIC_GetPriorityGrouping(), SYSTIMER_PRIORITY, SYSTIMER_SUBPRIORITY));
 385:../Dave/Generated/SYSTIMER/systimer.c **** #elif (UC_FAMILY == XMC1)
 386:../Dave/Generated/SYSTIMER/systimer.c ****       /* setting of priority value for XMC1000 devices */
 387:../Dave/Generated/SYSTIMER/systimer.c ****       NVIC_SetPriority(SysTick_IRQn, SYSTIMER_PRIORITY);
 1021              	 .loc 2 387 0
 1022 0040 0123     	 mov r3,#1
 1023 0042 5B42     	 neg r3,r3
 1024 0044 181C     	 mov r0,r3
 1025 0046 0321     	 mov r1,#3
 1026 0048 FFF7FEFF 	 bl __NVIC_SetPriority
 388:../Dave/Generated/SYSTIMER/systimer.c **** #endif      
 389:../Dave/Generated/SYSTIMER/systimer.c ****       g_timer_tracker = 0U;
 1027              	 .loc 2 389 0
 1028 004c 094B     	 ldr r3,.L53+4
 1029 004e 0022     	 mov r2,#0
 1030 0050 1A60     	 str r2,[r3]
 390:../Dave/Generated/SYSTIMER/systimer.c ****       /* Update the Initialization status of the SYSTIMER APP instance */
 391:../Dave/Generated/SYSTIMER/systimer.c ****       handle->init_status = true;
 1031              	 .loc 2 391 0
 1032 0052 7B68     	 ldr r3,[r7,#4]
 1033 0054 0122     	 mov r2,#1
 1034 0056 1A70     	 strb r2,[r3]
 392:../Dave/Generated/SYSTIMER/systimer.c ****       status = SYSTIMER_STATUS_SUCCESS;
 1035              	 .loc 2 392 0
 1036 0058 0F23     	 mov r3,#15
 1037 005a FB18     	 add r3,r7,r3
 1038 005c 0022     	 mov r2,#0
 1039 005e 1A70     	 strb r2,[r3]
 1040              	.L51:
 393:../Dave/Generated/SYSTIMER/systimer.c ****     }
 394:../Dave/Generated/SYSTIMER/systimer.c ****   }
 395:../Dave/Generated/SYSTIMER/systimer.c **** 
 396:../Dave/Generated/SYSTIMER/systimer.c ****   return (status);
 1041              	 .loc 2 396 0
 1042 0060 0F23     	 mov r3,#15
 1043 0062 FB18     	 add r3,r7,r3
 1044 0064 1B78     	 ldrb r3,[r3]
 397:../Dave/Generated/SYSTIMER/systimer.c **** }
 1045              	 .loc 2 397 0
 1046 0066 181C     	 mov r0,r3
 1047 0068 BD46     	 mov sp,r7
 1048 006a 04B0     	 add sp,sp,#16
 1049              	 
 1050 006c 80BD     	 pop {r7,pc}
 1051              	.L54:
 1052 006e C046     	 .align 2
 1053              	.L53:
 1054 0070 00000000 	 .word g_timer_list
 1055 0074 00000000 	 .word g_timer_tracker
 1056              	 .cfi_endproc
 1057              	.LFE47:
 1059              	 .global __aeabi_uidiv
 1060              	 .section .text.SYSTIMER_CreateTimer,"ax",%progbits
 1061              	 .align 2
 1062              	 .global SYSTIMER_CreateTimer
 1063              	 .code 16
 1064              	 .thumb_func
 1066              	SYSTIMER_CreateTimer:
 1067              	.LFB48:
 398:../Dave/Generated/SYSTIMER/systimer.c **** 
 399:../Dave/Generated/SYSTIMER/systimer.c **** /*
 400:../Dave/Generated/SYSTIMER/systimer.c ****  *  API for creating a new software Timer instance.
 401:../Dave/Generated/SYSTIMER/systimer.c ****  */
 402:../Dave/Generated/SYSTIMER/systimer.c **** uint32_t SYSTIMER_CreateTimer
 403:../Dave/Generated/SYSTIMER/systimer.c **** (
 404:../Dave/Generated/SYSTIMER/systimer.c ****   uint32_t period,
 405:../Dave/Generated/SYSTIMER/systimer.c ****   SYSTIMER_MODE_t mode,
 406:../Dave/Generated/SYSTIMER/systimer.c ****   SYSTIMER_CALLBACK_t callback,
 407:../Dave/Generated/SYSTIMER/systimer.c ****   void  *args
 408:../Dave/Generated/SYSTIMER/systimer.c **** )
 409:../Dave/Generated/SYSTIMER/systimer.c **** {
 1068              	 .loc 2 409 0
 1069              	 .cfi_startproc
 1070 0000 80B5     	 push {r7,lr}
 1071              	.LCFI24:
 1072              	 .cfi_def_cfa_offset 8
 1073              	 .cfi_offset 7,-8
 1074              	 .cfi_offset 14,-4
 1075 0002 88B0     	 sub sp,sp,#32
 1076              	.LCFI25:
 1077              	 .cfi_def_cfa_offset 40
 1078 0004 00AF     	 add r7,sp,#0
 1079              	.LCFI26:
 1080              	 .cfi_def_cfa_register 7
 1081 0006 F860     	 str r0,[r7,#12]
 1082 0008 7A60     	 str r2,[r7,#4]
 1083 000a 3B60     	 str r3,[r7]
 1084 000c 0B23     	 mov r3,#11
 1085 000e FB18     	 add r3,r7,r3
 1086 0010 0A1C     	 add r2,r1,#0
 1087 0012 1A70     	 strb r2,[r3]
 410:../Dave/Generated/SYSTIMER/systimer.c ****   uint32_t id = 0U;
 1088              	 .loc 2 410 0
 1089 0014 0023     	 mov r3,#0
 1090 0016 FB61     	 str r3,[r7,#28]
 411:../Dave/Generated/SYSTIMER/systimer.c ****   uint32_t count = 0U;
 1091              	 .loc 2 411 0
 1092 0018 0023     	 mov r3,#0
 1093 001a BB61     	 str r3,[r7,#24]
 412:../Dave/Generated/SYSTIMER/systimer.c ****   uint32_t period_ratio = 0U;
 1094              	 .loc 2 412 0
 1095 001c 0023     	 mov r3,#0
 1096 001e 7B61     	 str r3,[r7,#20]
 413:../Dave/Generated/SYSTIMER/systimer.c **** 
 414:../Dave/Generated/SYSTIMER/systimer.c ****   XMC_ASSERT("SYSTIMER_CreateTimer: Timer creation failure due to invalid period value",
 415:../Dave/Generated/SYSTIMER/systimer.c ****             ((period >= SYSTIMER_TICK_PERIOD_US) && (period > 0U) && (period <= 0xFFFFFFFFU)));
 416:../Dave/Generated/SYSTIMER/systimer.c ****   XMC_ASSERT("SYSTIMER_CreateTimer: Timer creation failure due to invalid timer mode",
 417:../Dave/Generated/SYSTIMER/systimer.c ****             ((SYSTIMER_MODE_ONE_SHOT == mode) || (SYSTIMER_MODE_PERIODIC == mode)));
 418:../Dave/Generated/SYSTIMER/systimer.c ****   XMC_ASSERT("SYSTIMER_CreateTimer: Can not create software without user callback", (NULL != callba
 419:../Dave/Generated/SYSTIMER/systimer.c ****   
 420:../Dave/Generated/SYSTIMER/systimer.c ****   if (period < SYSTIMER_TICK_PERIOD_US)
 1097              	 .loc 2 420 0
 1098 0020 FB68     	 ldr r3,[r7,#12]
 1099 0022 092B     	 cmp r3,#9
 1100 0024 02D8     	 bhi .L56
 421:../Dave/Generated/SYSTIMER/systimer.c ****   {
 422:../Dave/Generated/SYSTIMER/systimer.c ****     id = 0U;
 1101              	 .loc 2 422 0
 1102 0026 0023     	 mov r3,#0
 1103 0028 FB61     	 str r3,[r7,#28]
 1104 002a 7CE0     	 b .L57
 1105              	.L56:
 423:../Dave/Generated/SYSTIMER/systimer.c ****   }
 424:../Dave/Generated/SYSTIMER/systimer.c ****   else
 425:../Dave/Generated/SYSTIMER/systimer.c ****   {
 426:../Dave/Generated/SYSTIMER/systimer.c ****     for (count = 0U; count < SYSTIMER_CFG_MAX_TMR; count++)
 1106              	 .loc 2 426 0
 1107 002c 0023     	 mov r3,#0
 1108 002e BB61     	 str r3,[r7,#24]
 1109 0030 76E0     	 b .L58
 1110              	.L60:
 427:../Dave/Generated/SYSTIMER/systimer.c ****     {
 428:../Dave/Generated/SYSTIMER/systimer.c ****       /* Check for free timer ID */
 429:../Dave/Generated/SYSTIMER/systimer.c ****       if (0U == (g_timer_tracker & (1U << count)))
 1111              	 .loc 2 429 0
 1112 0032 BB69     	 ldr r3,[r7,#24]
 1113 0034 0122     	 mov r2,#1
 1114 0036 9A40     	 lsl r2,r2,r3
 1115 0038 3D4B     	 ldr r3,.L62
 1116 003a 1B68     	 ldr r3,[r3]
 1117 003c 1340     	 and r3,r2
 1118 003e 6CD1     	 bne .L59
 430:../Dave/Generated/SYSTIMER/systimer.c ****       {
 431:../Dave/Generated/SYSTIMER/systimer.c ****         /* If yes, assign ID to this timer */
 432:../Dave/Generated/SYSTIMER/systimer.c ****         g_timer_tracker |= (1U << count);
 1119              	 .loc 2 432 0
 1120 0040 BB69     	 ldr r3,[r7,#24]
 1121 0042 0122     	 mov r2,#1
 1122 0044 9A40     	 lsl r2,r2,r3
 1123 0046 3A4B     	 ldr r3,.L62
 1124 0048 1B68     	 ldr r3,[r3]
 1125 004a 1A43     	 orr r2,r3
 1126 004c 384B     	 ldr r3,.L62
 1127 004e 1A60     	 str r2,[r3]
 433:../Dave/Generated/SYSTIMER/systimer.c ****         /* Initialize the timer as per input values */
 434:../Dave/Generated/SYSTIMER/systimer.c ****         g_timer_tbl[count].id     = count;
 1128              	 .loc 2 434 0
 1129 0050 3849     	 ldr r1,.L62+4
 1130 0052 BA69     	 ldr r2,[r7,#24]
 1131 0054 131C     	 mov r3,r2
 1132 0056 DB00     	 lsl r3,r3,#3
 1133 0058 9B18     	 add r3,r3,r2
 1134 005a 9B00     	 lsl r3,r3,#2
 1135 005c CB18     	 add r3,r1,r3
 1136 005e 1033     	 add r3,r3,#16
 1137 0060 BA69     	 ldr r2,[r7,#24]
 1138 0062 5A60     	 str r2,[r3,#4]
 435:../Dave/Generated/SYSTIMER/systimer.c ****         g_timer_tbl[count].mode   = mode;
 1139              	 .loc 2 435 0
 1140 0064 3349     	 ldr r1,.L62+4
 1141 0066 BA69     	 ldr r2,[r7,#24]
 1142 0068 131C     	 mov r3,r2
 1143 006a DB00     	 lsl r3,r3,#3
 1144 006c 9B18     	 add r3,r3,r2
 1145 006e 9B00     	 lsl r3,r3,#2
 1146 0070 CB18     	 add r3,r1,r3
 1147 0072 0833     	 add r3,r3,#8
 1148 0074 0B22     	 mov r2,#11
 1149 0076 BA18     	 add r2,r7,r2
 1150 0078 1278     	 ldrb r2,[r2]
 1151 007a 1A71     	 strb r2,[r3,#4]
 436:../Dave/Generated/SYSTIMER/systimer.c ****         g_timer_tbl[count].state  = SYSTIMER_STATE_STOPPED;
 1152              	 .loc 2 436 0
 1153 007c 2D49     	 ldr r1,.L62+4
 1154 007e BA69     	 ldr r2,[r7,#24]
 1155 0080 131C     	 mov r3,r2
 1156 0082 DB00     	 lsl r3,r3,#3
 1157 0084 9B18     	 add r3,r3,r2
 1158 0086 9B00     	 lsl r3,r3,#2
 1159 0088 CB18     	 add r3,r1,r3
 1160 008a 0833     	 add r3,r3,#8
 1161 008c 0222     	 mov r2,#2
 1162 008e 5A71     	 strb r2,[r3,#5]
 437:../Dave/Generated/SYSTIMER/systimer.c ****         period_ratio = (uint32_t)(period / SYSTIMER_TICK_PERIOD_US);
 1163              	 .loc 2 437 0
 1164 0090 FB68     	 ldr r3,[r7,#12]
 1165 0092 181C     	 mov r0,r3
 1166 0094 0A21     	 mov r1,#10
 1167 0096 FFF7FEFF 	 bl __aeabi_uidiv
 1168 009a 031C     	 mov r3,r0
 1169 009c 7B61     	 str r3,[r7,#20]
 438:../Dave/Generated/SYSTIMER/systimer.c ****         g_timer_tbl[count].count  = (period_ratio + HW_TIMER_ADDITIONAL_CNT);
 1170              	 .loc 2 438 0
 1171 009e 7B69     	 ldr r3,[r7,#20]
 1172 00a0 591C     	 add r1,r3,#1
 1173 00a2 2448     	 ldr r0,.L62+4
 1174 00a4 BA69     	 ldr r2,[r7,#24]
 1175 00a6 131C     	 mov r3,r2
 1176 00a8 DB00     	 lsl r3,r3,#3
 1177 00aa 9B18     	 add r3,r3,r2
 1178 00ac 9B00     	 lsl r3,r3,#2
 1179 00ae C318     	 add r3,r0,r3
 1180 00b0 1833     	 add r3,r3,#24
 1181 00b2 1960     	 str r1,[r3]
 439:../Dave/Generated/SYSTIMER/systimer.c ****         g_timer_tbl[count].reload  = period_ratio;
 1182              	 .loc 2 439 0
 1183 00b4 1F49     	 ldr r1,.L62+4
 1184 00b6 BA69     	 ldr r2,[r7,#24]
 1185 00b8 131C     	 mov r3,r2
 1186 00ba DB00     	 lsl r3,r3,#3
 1187 00bc 9B18     	 add r3,r3,r2
 1188 00be 9B00     	 lsl r3,r3,#2
 1189 00c0 CB18     	 add r3,r1,r3
 1190 00c2 1833     	 add r3,r3,#24
 1191 00c4 7A69     	 ldr r2,[r7,#20]
 1192 00c6 5A60     	 str r2,[r3,#4]
 440:../Dave/Generated/SYSTIMER/systimer.c ****         g_timer_tbl[count].callback = callback;
 1193              	 .loc 2 440 0
 1194 00c8 1A49     	 ldr r1,.L62+4
 1195 00ca BA69     	 ldr r2,[r7,#24]
 1196 00cc 131C     	 mov r3,r2
 1197 00ce DB00     	 lsl r3,r3,#3
 1198 00d0 9B18     	 add r3,r3,r2
 1199 00d2 9B00     	 lsl r3,r3,#2
 1200 00d4 CB18     	 add r3,r1,r3
 1201 00d6 0833     	 add r3,r3,#8
 1202 00d8 7A68     	 ldr r2,[r7,#4]
 1203 00da 1A60     	 str r2,[r3]
 441:../Dave/Generated/SYSTIMER/systimer.c ****         g_timer_tbl[count].args = args;
 1204              	 .loc 2 441 0
 1205 00dc 1549     	 ldr r1,.L62+4
 1206 00de BA69     	 ldr r2,[r7,#24]
 1207 00e0 131C     	 mov r3,r2
 1208 00e2 DB00     	 lsl r3,r3,#3
 1209 00e4 9B18     	 add r3,r3,r2
 1210 00e6 9B00     	 lsl r3,r3,#2
 1211 00e8 CB18     	 add r3,r1,r3
 1212 00ea 1033     	 add r3,r3,#16
 1213 00ec 3A68     	 ldr r2,[r7]
 1214 00ee 1A60     	 str r2,[r3]
 442:../Dave/Generated/SYSTIMER/systimer.c ****         g_timer_tbl[count].prev   = NULL;
 1215              	 .loc 2 442 0
 1216 00f0 1049     	 ldr r1,.L62+4
 1217 00f2 BA69     	 ldr r2,[r7,#24]
 1218 00f4 131C     	 mov r3,r2
 1219 00f6 DB00     	 lsl r3,r3,#3
 1220 00f8 9B18     	 add r3,r3,r2
 1221 00fa 9B00     	 lsl r3,r3,#2
 1222 00fc CB18     	 add r3,r1,r3
 1223 00fe 0022     	 mov r2,#0
 1224 0100 5A60     	 str r2,[r3,#4]
 443:../Dave/Generated/SYSTIMER/systimer.c ****         g_timer_tbl[count].next   = NULL;
 1225              	 .loc 2 443 0
 1226 0102 0C49     	 ldr r1,.L62+4
 1227 0104 BA69     	 ldr r2,[r7,#24]
 1228 0106 131C     	 mov r3,r2
 1229 0108 DB00     	 lsl r3,r3,#3
 1230 010a 9B18     	 add r3,r3,r2
 1231 010c 9B00     	 lsl r3,r3,#2
 1232 010e 0022     	 mov r2,#0
 1233 0110 5A50     	 str r2,[r3,r1]
 444:../Dave/Generated/SYSTIMER/systimer.c ****         id = count + 1U;
 1234              	 .loc 2 444 0
 1235 0112 BB69     	 ldr r3,[r7,#24]
 1236 0114 0133     	 add r3,r3,#1
 1237 0116 FB61     	 str r3,[r7,#28]
 445:../Dave/Generated/SYSTIMER/systimer.c ****         break;
 1238              	 .loc 2 445 0
 1239 0118 05E0     	 b .L57
 1240              	.L59:
 426:../Dave/Generated/SYSTIMER/systimer.c ****     {
 1241              	 .loc 2 426 0 discriminator 2
 1242 011a BB69     	 ldr r3,[r7,#24]
 1243 011c 0133     	 add r3,r3,#1
 1244 011e BB61     	 str r3,[r7,#24]
 1245              	.L58:
 426:../Dave/Generated/SYSTIMER/systimer.c ****     {
 1246              	 .loc 2 426 0 is_stmt 0 discriminator 1
 1247 0120 BB69     	 ldr r3,[r7,#24]
 1248 0122 072B     	 cmp r3,#7
 1249 0124 85D9     	 bls .L60
 1250              	.L57:
 446:../Dave/Generated/SYSTIMER/systimer.c ****       }
 447:../Dave/Generated/SYSTIMER/systimer.c ****     }
 448:../Dave/Generated/SYSTIMER/systimer.c **** 
 449:../Dave/Generated/SYSTIMER/systimer.c ****   }
 450:../Dave/Generated/SYSTIMER/systimer.c **** 
 451:../Dave/Generated/SYSTIMER/systimer.c ****   return (id);
 1251              	 .loc 2 451 0 is_stmt 1
 1252 0126 FB69     	 ldr r3,[r7,#28]
 452:../Dave/Generated/SYSTIMER/systimer.c **** }  
 1253              	 .loc 2 452 0
 1254 0128 181C     	 mov r0,r3
 1255 012a BD46     	 mov sp,r7
 1256 012c 08B0     	 add sp,sp,#32
 1257              	 
 1258 012e 80BD     	 pop {r7,pc}
 1259              	.L63:
 1260              	 .align 2
 1261              	.L62:
 1262 0130 00000000 	 .word g_timer_tracker
 1263 0134 00000000 	 .word g_timer_tbl
 1264              	 .cfi_endproc
 1265              	.LFE48:
 1267              	 .section .text.SYSTIMER_StartTimer,"ax",%progbits
 1268              	 .align 2
 1269              	 .global SYSTIMER_StartTimer
 1270              	 .code 16
 1271              	 .thumb_func
 1273              	SYSTIMER_StartTimer:
 1274              	.LFB49:
 453:../Dave/Generated/SYSTIMER/systimer.c **** 
 454:../Dave/Generated/SYSTIMER/systimer.c **** /*
 455:../Dave/Generated/SYSTIMER/systimer.c ****  *  API to start the software timer.
 456:../Dave/Generated/SYSTIMER/systimer.c ****  */
 457:../Dave/Generated/SYSTIMER/systimer.c **** SYSTIMER_STATUS_t SYSTIMER_StartTimer(uint32_t id)
 458:../Dave/Generated/SYSTIMER/systimer.c **** {
 1275              	 .loc 2 458 0
 1276              	 .cfi_startproc
 1277 0000 80B5     	 push {r7,lr}
 1278              	.LCFI27:
 1279              	 .cfi_def_cfa_offset 8
 1280              	 .cfi_offset 7,-8
 1281              	 .cfi_offset 14,-4
 1282 0002 84B0     	 sub sp,sp,#16
 1283              	.LCFI28:
 1284              	 .cfi_def_cfa_offset 24
 1285 0004 00AF     	 add r7,sp,#0
 1286              	.LCFI29:
 1287              	 .cfi_def_cfa_register 7
 1288 0006 7860     	 str r0,[r7,#4]
 459:../Dave/Generated/SYSTIMER/systimer.c ****   SYSTIMER_STATUS_t status;
 460:../Dave/Generated/SYSTIMER/systimer.c ****   status = SYSTIMER_STATUS_FAILURE;
 1289              	 .loc 2 460 0
 1290 0008 0F23     	 mov r3,#15
 1291 000a FB18     	 add r3,r7,r3
 1292 000c 0122     	 mov r2,#1
 1293 000e 1A70     	 strb r2,[r3]
 461:../Dave/Generated/SYSTIMER/systimer.c **** 
 462:../Dave/Generated/SYSTIMER/systimer.c ****   XMC_ASSERT("SYSTIMER_StartTimer: Failure in timer restart operation due to invalid timer ID",
 463:../Dave/Generated/SYSTIMER/systimer.c ****             ((id <= SYSTIMER_CFG_MAX_TMR) && (id > 0U)));
 464:../Dave/Generated/SYSTIMER/systimer.c ****   XMC_ASSERT("SYSTIMER_StartTimer: Error during start of software timer", (0U != (g_timer_tracker &
 465:../Dave/Generated/SYSTIMER/systimer.c ****   
 466:../Dave/Generated/SYSTIMER/systimer.c ****   /* Check if timer is running */
 467:../Dave/Generated/SYSTIMER/systimer.c ****   if (SYSTIMER_STATE_STOPPED == g_timer_tbl[id - 1U].state)
 1294              	 .loc 2 467 0
 1295 0010 7B68     	 ldr r3,[r7,#4]
 1296 0012 5A1E     	 sub r2,r3,#1
 1297 0014 1C49     	 ldr r1,.L67
 1298 0016 131C     	 mov r3,r2
 1299 0018 DB00     	 lsl r3,r3,#3
 1300 001a 9B18     	 add r3,r3,r2
 1301 001c 9B00     	 lsl r3,r3,#2
 1302 001e CB18     	 add r3,r1,r3
 1303 0020 0833     	 add r3,r3,#8
 1304 0022 5B79     	 ldrb r3,[r3,#5]
 1305 0024 022B     	 cmp r3,#2
 1306 0026 28D1     	 bne .L65
 468:../Dave/Generated/SYSTIMER/systimer.c ****   {
 469:../Dave/Generated/SYSTIMER/systimer.c ****     g_timer_tbl[id - 1U].count = (g_timer_tbl[id - 1U].reload + HW_TIMER_ADDITIONAL_CNT);
 1307              	 .loc 2 469 0
 1308 0028 7B68     	 ldr r3,[r7,#4]
 1309 002a 5A1E     	 sub r2,r3,#1
 1310 002c 7B68     	 ldr r3,[r7,#4]
 1311 002e 591E     	 sub r1,r3,#1
 1312 0030 1548     	 ldr r0,.L67
 1313 0032 0B1C     	 mov r3,r1
 1314 0034 DB00     	 lsl r3,r3,#3
 1315 0036 5B18     	 add r3,r3,r1
 1316 0038 9B00     	 lsl r3,r3,#2
 1317 003a C318     	 add r3,r0,r3
 1318 003c 1833     	 add r3,r3,#24
 1319 003e 5B68     	 ldr r3,[r3,#4]
 1320 0040 591C     	 add r1,r3,#1
 1321 0042 1148     	 ldr r0,.L67
 1322 0044 131C     	 mov r3,r2
 1323 0046 DB00     	 lsl r3,r3,#3
 1324 0048 9B18     	 add r3,r3,r2
 1325 004a 9B00     	 lsl r3,r3,#2
 1326 004c C318     	 add r3,r0,r3
 1327 004e 1833     	 add r3,r3,#24
 1328 0050 1960     	 str r1,[r3]
 470:../Dave/Generated/SYSTIMER/systimer.c ****     /* set timer status as SYSTIMER_STATE_RUNNING */
 471:../Dave/Generated/SYSTIMER/systimer.c ****     g_timer_tbl[id - 1U].state = SYSTIMER_STATE_RUNNING;
 1329              	 .loc 2 471 0
 1330 0052 7B68     	 ldr r3,[r7,#4]
 1331 0054 5A1E     	 sub r2,r3,#1
 1332 0056 0C49     	 ldr r1,.L67
 1333 0058 131C     	 mov r3,r2
 1334 005a DB00     	 lsl r3,r3,#3
 1335 005c 9B18     	 add r3,r3,r2
 1336 005e 9B00     	 lsl r3,r3,#2
 1337 0060 CB18     	 add r3,r1,r3
 1338 0062 0833     	 add r3,r3,#8
 1339 0064 0122     	 mov r2,#1
 1340 0066 5A71     	 strb r2,[r3,#5]
 472:../Dave/Generated/SYSTIMER/systimer.c ****     /* Insert this timer into timer list */
 473:../Dave/Generated/SYSTIMER/systimer.c ****     SYSTIMER_lInsertTimerList((id - 1U));
 1341              	 .loc 2 473 0
 1342 0068 7B68     	 ldr r3,[r7,#4]
 1343 006a 013B     	 sub r3,r3,#1
 1344 006c 181C     	 mov r0,r3
 1345 006e FFF7FEFF 	 bl SYSTIMER_lInsertTimerList
 474:../Dave/Generated/SYSTIMER/systimer.c ****     status = SYSTIMER_STATUS_SUCCESS;
 1346              	 .loc 2 474 0
 1347 0072 0F23     	 mov r3,#15
 1348 0074 FB18     	 add r3,r7,r3
 1349 0076 0022     	 mov r2,#0
 1350 0078 1A70     	 strb r2,[r3]
 1351              	.L65:
 475:../Dave/Generated/SYSTIMER/systimer.c ****   }
 476:../Dave/Generated/SYSTIMER/systimer.c **** 
 477:../Dave/Generated/SYSTIMER/systimer.c ****   return (status);
 1352              	 .loc 2 477 0
 1353 007a 0F23     	 mov r3,#15
 1354 007c FB18     	 add r3,r7,r3
 1355 007e 1B78     	 ldrb r3,[r3]
 478:../Dave/Generated/SYSTIMER/systimer.c **** }
 1356              	 .loc 2 478 0
 1357 0080 181C     	 mov r0,r3
 1358 0082 BD46     	 mov sp,r7
 1359 0084 04B0     	 add sp,sp,#16
 1360              	 
 1361 0086 80BD     	 pop {r7,pc}
 1362              	.L68:
 1363              	 .align 2
 1364              	.L67:
 1365 0088 00000000 	 .word g_timer_tbl
 1366              	 .cfi_endproc
 1367              	.LFE49:
 1369              	 .section .text.SYSTIMER_StopTimer,"ax",%progbits
 1370              	 .align 2
 1371              	 .global SYSTIMER_StopTimer
 1372              	 .code 16
 1373              	 .thumb_func
 1375              	SYSTIMER_StopTimer:
 1376              	.LFB50:
 479:../Dave/Generated/SYSTIMER/systimer.c **** 
 480:../Dave/Generated/SYSTIMER/systimer.c **** /*
 481:../Dave/Generated/SYSTIMER/systimer.c ****  *  API to stop the software timer.
 482:../Dave/Generated/SYSTIMER/systimer.c ****  */
 483:../Dave/Generated/SYSTIMER/systimer.c **** SYSTIMER_STATUS_t SYSTIMER_StopTimer(uint32_t id)
 484:../Dave/Generated/SYSTIMER/systimer.c **** {
 1377              	 .loc 2 484 0
 1378              	 .cfi_startproc
 1379 0000 80B5     	 push {r7,lr}
 1380              	.LCFI30:
 1381              	 .cfi_def_cfa_offset 8
 1382              	 .cfi_offset 7,-8
 1383              	 .cfi_offset 14,-4
 1384 0002 84B0     	 sub sp,sp,#16
 1385              	.LCFI31:
 1386              	 .cfi_def_cfa_offset 24
 1387 0004 00AF     	 add r7,sp,#0
 1388              	.LCFI32:
 1389              	 .cfi_def_cfa_register 7
 1390 0006 7860     	 str r0,[r7,#4]
 485:../Dave/Generated/SYSTIMER/systimer.c ****   SYSTIMER_STATUS_t status;
 486:../Dave/Generated/SYSTIMER/systimer.c ****   status = SYSTIMER_STATUS_SUCCESS;
 1391              	 .loc 2 486 0
 1392 0008 0F23     	 mov r3,#15
 1393 000a FB18     	 add r3,r7,r3
 1394 000c 0022     	 mov r2,#0
 1395 000e 1A70     	 strb r2,[r3]
 487:../Dave/Generated/SYSTIMER/systimer.c **** 
 488:../Dave/Generated/SYSTIMER/systimer.c ****   XMC_ASSERT("SYSTIMER_StopTimer: Failure in timer restart operation due to invalid timer ID",
 489:../Dave/Generated/SYSTIMER/systimer.c ****             ((id <= SYSTIMER_CFG_MAX_TMR) && (id > 0U)));
 490:../Dave/Generated/SYSTIMER/systimer.c ****   XMC_ASSERT("SYSTIMER_StopTimer: Error during stop of software timer", (0U != (g_timer_tracker & (
 491:../Dave/Generated/SYSTIMER/systimer.c **** 
 492:../Dave/Generated/SYSTIMER/systimer.c ****   if (SYSTIMER_STATE_NOT_INITIALIZED == g_timer_tbl[id - 1U].state)
 1396              	 .loc 2 492 0
 1397 0010 7B68     	 ldr r3,[r7,#4]
 1398 0012 5A1E     	 sub r2,r3,#1
 1399 0014 1849     	 ldr r1,.L73
 1400 0016 131C     	 mov r3,r2
 1401 0018 DB00     	 lsl r3,r3,#3
 1402 001a 9B18     	 add r3,r3,r2
 1403 001c 9B00     	 lsl r3,r3,#2
 1404 001e CB18     	 add r3,r1,r3
 1405 0020 0833     	 add r3,r3,#8
 1406 0022 5B79     	 ldrb r3,[r3,#5]
 1407 0024 002B     	 cmp r3,#0
 1408 0026 04D1     	 bne .L70
 493:../Dave/Generated/SYSTIMER/systimer.c ****   {
 494:../Dave/Generated/SYSTIMER/systimer.c ****     status = SYSTIMER_STATUS_FAILURE;
 1409              	 .loc 2 494 0
 1410 0028 0F23     	 mov r3,#15
 1411 002a FB18     	 add r3,r7,r3
 1412 002c 0122     	 mov r2,#1
 1413 002e 1A70     	 strb r2,[r3]
 1414 0030 1BE0     	 b .L71
 1415              	.L70:
 495:../Dave/Generated/SYSTIMER/systimer.c ****   }
 496:../Dave/Generated/SYSTIMER/systimer.c ****   else
 497:../Dave/Generated/SYSTIMER/systimer.c ****   {
 498:../Dave/Generated/SYSTIMER/systimer.c ****     /* Check whether Timer is in Stop state */
 499:../Dave/Generated/SYSTIMER/systimer.c ****     if (SYSTIMER_STATE_RUNNING == g_timer_tbl[id - 1U].state)
 1416              	 .loc 2 499 0
 1417 0032 7B68     	 ldr r3,[r7,#4]
 1418 0034 5A1E     	 sub r2,r3,#1
 1419 0036 1049     	 ldr r1,.L73
 1420 0038 131C     	 mov r3,r2
 1421 003a DB00     	 lsl r3,r3,#3
 1422 003c 9B18     	 add r3,r3,r2
 1423 003e 9B00     	 lsl r3,r3,#2
 1424 0040 CB18     	 add r3,r1,r3
 1425 0042 0833     	 add r3,r3,#8
 1426 0044 5B79     	 ldrb r3,[r3,#5]
 1427 0046 012B     	 cmp r3,#1
 1428 0048 0FD1     	 bne .L71
 500:../Dave/Generated/SYSTIMER/systimer.c ****     {
 501:../Dave/Generated/SYSTIMER/systimer.c ****         /* Set timer status as SYSTIMER_STATE_STOPPED */
 502:../Dave/Generated/SYSTIMER/systimer.c ****         g_timer_tbl[id - 1U].state = SYSTIMER_STATE_STOPPED;
 1429              	 .loc 2 502 0
 1430 004a 7B68     	 ldr r3,[r7,#4]
 1431 004c 5A1E     	 sub r2,r3,#1
 1432 004e 0A49     	 ldr r1,.L73
 1433 0050 131C     	 mov r3,r2
 1434 0052 DB00     	 lsl r3,r3,#3
 1435 0054 9B18     	 add r3,r3,r2
 1436 0056 9B00     	 lsl r3,r3,#2
 1437 0058 CB18     	 add r3,r1,r3
 1438 005a 0833     	 add r3,r3,#8
 1439 005c 0222     	 mov r2,#2
 1440 005e 5A71     	 strb r2,[r3,#5]
 503:../Dave/Generated/SYSTIMER/systimer.c **** 
 504:../Dave/Generated/SYSTIMER/systimer.c ****         /* remove Timer from node list */
 505:../Dave/Generated/SYSTIMER/systimer.c ****         SYSTIMER_lRemoveTimerList(id - 1U);
 1441              	 .loc 2 505 0
 1442 0060 7B68     	 ldr r3,[r7,#4]
 1443 0062 013B     	 sub r3,r3,#1
 1444 0064 181C     	 mov r0,r3
 1445 0066 FFF7FEFF 	 bl SYSTIMER_lRemoveTimerList
 1446              	.L71:
 506:../Dave/Generated/SYSTIMER/systimer.c **** 
 507:../Dave/Generated/SYSTIMER/systimer.c ****     }
 508:../Dave/Generated/SYSTIMER/systimer.c ****   }
 509:../Dave/Generated/SYSTIMER/systimer.c **** 
 510:../Dave/Generated/SYSTIMER/systimer.c ****   return (status);
 1447              	 .loc 2 510 0
 1448 006a 0F23     	 mov r3,#15
 1449 006c FB18     	 add r3,r7,r3
 1450 006e 1B78     	 ldrb r3,[r3]
 511:../Dave/Generated/SYSTIMER/systimer.c **** }
 1451              	 .loc 2 511 0
 1452 0070 181C     	 mov r0,r3
 1453 0072 BD46     	 mov sp,r7
 1454 0074 04B0     	 add sp,sp,#16
 1455              	 
 1456 0076 80BD     	 pop {r7,pc}
 1457              	.L74:
 1458              	 .align 2
 1459              	.L73:
 1460 0078 00000000 	 .word g_timer_tbl
 1461              	 .cfi_endproc
 1462              	.LFE50:
 1464              	 .section .text.SYSTIMER_RestartTimer,"ax",%progbits
 1465              	 .align 2
 1466              	 .global SYSTIMER_RestartTimer
 1467              	 .code 16
 1468              	 .thumb_func
 1470              	SYSTIMER_RestartTimer:
 1471              	.LFB51:
 512:../Dave/Generated/SYSTIMER/systimer.c **** 
 513:../Dave/Generated/SYSTIMER/systimer.c **** /*
 514:../Dave/Generated/SYSTIMER/systimer.c ****  *  API to reinitialize the time interval and to start the timer.
 515:../Dave/Generated/SYSTIMER/systimer.c ****  */
 516:../Dave/Generated/SYSTIMER/systimer.c **** SYSTIMER_STATUS_t SYSTIMER_RestartTimer(uint32_t id, uint32_t microsec)
 517:../Dave/Generated/SYSTIMER/systimer.c **** {
 1472              	 .loc 2 517 0
 1473              	 .cfi_startproc
 1474 0000 90B5     	 push {r4,r7,lr}
 1475              	.LCFI33:
 1476              	 .cfi_def_cfa_offset 12
 1477              	 .cfi_offset 4,-12
 1478              	 .cfi_offset 7,-8
 1479              	 .cfi_offset 14,-4
 1480 0002 85B0     	 sub sp,sp,#20
 1481              	.LCFI34:
 1482              	 .cfi_def_cfa_offset 32
 1483 0004 00AF     	 add r7,sp,#0
 1484              	.LCFI35:
 1485              	 .cfi_def_cfa_register 7
 1486 0006 7860     	 str r0,[r7,#4]
 1487 0008 3960     	 str r1,[r7]
 518:../Dave/Generated/SYSTIMER/systimer.c ****   uint32_t period_ratio = 0U;
 1488              	 .loc 2 518 0
 1489 000a 0023     	 mov r3,#0
 1490 000c BB60     	 str r3,[r7,#8]
 519:../Dave/Generated/SYSTIMER/systimer.c ****   SYSTIMER_STATUS_t status;
 520:../Dave/Generated/SYSTIMER/systimer.c ****   status = SYSTIMER_STATUS_SUCCESS;
 1491              	 .loc 2 520 0
 1492 000e 0F23     	 mov r3,#15
 1493 0010 FB18     	 add r3,r7,r3
 1494 0012 0022     	 mov r2,#0
 1495 0014 1A70     	 strb r2,[r3]
 521:../Dave/Generated/SYSTIMER/systimer.c **** 
 522:../Dave/Generated/SYSTIMER/systimer.c ****   XMC_ASSERT("SYSTIMER_RestartTimer: Failure in timer restart operation due to invalid timer ID",
 523:../Dave/Generated/SYSTIMER/systimer.c ****             ((id <= SYSTIMER_CFG_MAX_TMR) && (id > 0U)));
 524:../Dave/Generated/SYSTIMER/systimer.c ****   XMC_ASSERT("SYSTIMER_RestartTimer: Error during restart of software timer", (0U != (g_timer_track
 525:../Dave/Generated/SYSTIMER/systimer.c ****   XMC_ASSERT("SYSTIMER_RestartTimer: Can not restart timer due to invalid period value",
 526:../Dave/Generated/SYSTIMER/systimer.c ****             (microsec >= SYSTIMER_TICK_PERIOD_US) && (microsec > 0U));
 527:../Dave/Generated/SYSTIMER/systimer.c **** 
 528:../Dave/Generated/SYSTIMER/systimer.c **** 
 529:../Dave/Generated/SYSTIMER/systimer.c ****   if (SYSTIMER_STATE_NOT_INITIALIZED == g_timer_tbl[id - 1U].state)
 1496              	 .loc 2 529 0
 1497 0016 7B68     	 ldr r3,[r7,#4]
 1498 0018 5A1E     	 sub r2,r3,#1
 1499 001a 2449     	 ldr r1,.L80
 1500 001c 131C     	 mov r3,r2
 1501 001e DB00     	 lsl r3,r3,#3
 1502 0020 9B18     	 add r3,r3,r2
 1503 0022 9B00     	 lsl r3,r3,#2
 1504 0024 CB18     	 add r3,r1,r3
 1505 0026 0833     	 add r3,r3,#8
 1506 0028 5B79     	 ldrb r3,[r3,#5]
 1507 002a 002B     	 cmp r3,#0
 1508 002c 04D1     	 bne .L76
 530:../Dave/Generated/SYSTIMER/systimer.c ****   {
 531:../Dave/Generated/SYSTIMER/systimer.c ****       status = SYSTIMER_STATUS_FAILURE;
 1509              	 .loc 2 531 0
 1510 002e 0F23     	 mov r3,#15
 1511 0030 FB18     	 add r3,r7,r3
 1512 0032 0122     	 mov r2,#1
 1513 0034 1A70     	 strb r2,[r3]
 1514 0036 32E0     	 b .L77
 1515              	.L76:
 532:../Dave/Generated/SYSTIMER/systimer.c ****   }
 533:../Dave/Generated/SYSTIMER/systimer.c ****   else
 534:../Dave/Generated/SYSTIMER/systimer.c ****   {
 535:../Dave/Generated/SYSTIMER/systimer.c ****     /* check whether timer is in run state */
 536:../Dave/Generated/SYSTIMER/systimer.c ****     if( SYSTIMER_STATE_STOPPED != g_timer_tbl[id - 1U].state)
 1516              	 .loc 2 536 0
 1517 0038 7B68     	 ldr r3,[r7,#4]
 1518 003a 5A1E     	 sub r2,r3,#1
 1519 003c 1B49     	 ldr r1,.L80
 1520 003e 131C     	 mov r3,r2
 1521 0040 DB00     	 lsl r3,r3,#3
 1522 0042 9B18     	 add r3,r3,r2
 1523 0044 9B00     	 lsl r3,r3,#2
 1524 0046 CB18     	 add r3,r1,r3
 1525 0048 0833     	 add r3,r3,#8
 1526 004a 5B79     	 ldrb r3,[r3,#5]
 1527 004c 022B     	 cmp r3,#2
 1528 004e 07D0     	 beq .L78
 537:../Dave/Generated/SYSTIMER/systimer.c ****     {
 538:../Dave/Generated/SYSTIMER/systimer.c ****          /* Stop the timer */
 539:../Dave/Generated/SYSTIMER/systimer.c ****          status = SYSTIMER_StopTimer(id);
 1529              	 .loc 2 539 0
 1530 0050 0F23     	 mov r3,#15
 1531 0052 FC18     	 add r4,r7,r3
 1532 0054 7B68     	 ldr r3,[r7,#4]
 1533 0056 181C     	 mov r0,r3
 1534 0058 FFF7FEFF 	 bl SYSTIMER_StopTimer
 1535 005c 031C     	 mov r3,r0
 1536 005e 2370     	 strb r3,[r4]
 1537              	.L78:
 540:../Dave/Generated/SYSTIMER/systimer.c ****     }
 541:../Dave/Generated/SYSTIMER/systimer.c ****     if (SYSTIMER_STATUS_SUCCESS == status)
 1538              	 .loc 2 541 0
 1539 0060 0F23     	 mov r3,#15
 1540 0062 FB18     	 add r3,r7,r3
 1541 0064 1B78     	 ldrb r3,[r3]
 1542 0066 002B     	 cmp r3,#0
 1543 0068 19D1     	 bne .L77
 542:../Dave/Generated/SYSTIMER/systimer.c ****     {
 543:../Dave/Generated/SYSTIMER/systimer.c ****       period_ratio = (uint32_t)(microsec / SYSTIMER_TICK_PERIOD_US);
 1544              	 .loc 2 543 0
 1545 006a 3B68     	 ldr r3,[r7]
 1546 006c 181C     	 mov r0,r3
 1547 006e 0A21     	 mov r1,#10
 1548 0070 FFF7FEFF 	 bl __aeabi_uidiv
 1549 0074 031C     	 mov r3,r0
 1550 0076 BB60     	 str r3,[r7,#8]
 544:../Dave/Generated/SYSTIMER/systimer.c ****       g_timer_tbl[id - 1U].reload = period_ratio;
 1551              	 .loc 2 544 0
 1552 0078 7B68     	 ldr r3,[r7,#4]
 1553 007a 5A1E     	 sub r2,r3,#1
 1554 007c 0B49     	 ldr r1,.L80
 1555 007e 131C     	 mov r3,r2
 1556 0080 DB00     	 lsl r3,r3,#3
 1557 0082 9B18     	 add r3,r3,r2
 1558 0084 9B00     	 lsl r3,r3,#2
 1559 0086 CB18     	 add r3,r1,r3
 1560 0088 1833     	 add r3,r3,#24
 1561 008a BA68     	 ldr r2,[r7,#8]
 1562 008c 5A60     	 str r2,[r3,#4]
 545:../Dave/Generated/SYSTIMER/systimer.c ****       /* Start the timer */
 546:../Dave/Generated/SYSTIMER/systimer.c ****       status = SYSTIMER_StartTimer(id);
 1563              	 .loc 2 546 0
 1564 008e 0F23     	 mov r3,#15
 1565 0090 FC18     	 add r4,r7,r3
 1566 0092 7B68     	 ldr r3,[r7,#4]
 1567 0094 181C     	 mov r0,r3
 1568 0096 FFF7FEFF 	 bl SYSTIMER_StartTimer
 1569 009a 031C     	 mov r3,r0
 1570 009c 2370     	 strb r3,[r4]
 1571              	.L77:
 547:../Dave/Generated/SYSTIMER/systimer.c ****     }
 548:../Dave/Generated/SYSTIMER/systimer.c ****   }
 549:../Dave/Generated/SYSTIMER/systimer.c **** 
 550:../Dave/Generated/SYSTIMER/systimer.c ****   return (status);
 1572              	 .loc 2 550 0
 1573 009e 0F23     	 mov r3,#15
 1574 00a0 FB18     	 add r3,r7,r3
 1575 00a2 1B78     	 ldrb r3,[r3]
 551:../Dave/Generated/SYSTIMER/systimer.c **** }
 1576              	 .loc 2 551 0
 1577 00a4 181C     	 mov r0,r3
 1578 00a6 BD46     	 mov sp,r7
 1579 00a8 05B0     	 add sp,sp,#20
 1580              	 
 1581 00aa 90BD     	 pop {r4,r7,pc}
 1582              	.L81:
 1583              	 .align 2
 1584              	.L80:
 1585 00ac 00000000 	 .word g_timer_tbl
 1586              	 .cfi_endproc
 1587              	.LFE51:
 1589              	 .section .text.SYSTIMER_DeleteTimer,"ax",%progbits
 1590              	 .align 2
 1591              	 .global SYSTIMER_DeleteTimer
 1592              	 .code 16
 1593              	 .thumb_func
 1595              	SYSTIMER_DeleteTimer:
 1596              	.LFB52:
 552:../Dave/Generated/SYSTIMER/systimer.c **** 
 553:../Dave/Generated/SYSTIMER/systimer.c **** /*
 554:../Dave/Generated/SYSTIMER/systimer.c ****  *  Function to delete the Timer instance.
 555:../Dave/Generated/SYSTIMER/systimer.c ****  */
 556:../Dave/Generated/SYSTIMER/systimer.c **** SYSTIMER_STATUS_t SYSTIMER_DeleteTimer(uint32_t id)
 557:../Dave/Generated/SYSTIMER/systimer.c **** {
 1597              	 .loc 2 557 0
 1598              	 .cfi_startproc
 1599 0000 80B5     	 push {r7,lr}
 1600              	.LCFI36:
 1601              	 .cfi_def_cfa_offset 8
 1602              	 .cfi_offset 7,-8
 1603              	 .cfi_offset 14,-4
 1604 0002 84B0     	 sub sp,sp,#16
 1605              	.LCFI37:
 1606              	 .cfi_def_cfa_offset 24
 1607 0004 00AF     	 add r7,sp,#0
 1608              	.LCFI38:
 1609              	 .cfi_def_cfa_register 7
 1610 0006 7860     	 str r0,[r7,#4]
 558:../Dave/Generated/SYSTIMER/systimer.c ****   SYSTIMER_STATUS_t status;
 559:../Dave/Generated/SYSTIMER/systimer.c ****   status = SYSTIMER_STATUS_SUCCESS;
 1611              	 .loc 2 559 0
 1612 0008 0F23     	 mov r3,#15
 1613 000a FB18     	 add r3,r7,r3
 1614 000c 0022     	 mov r2,#0
 1615 000e 1A70     	 strb r2,[r3]
 560:../Dave/Generated/SYSTIMER/systimer.c **** 
 561:../Dave/Generated/SYSTIMER/systimer.c ****   XMC_ASSERT("SYSTIMER_DeleteTimer: Failure in timer restart operation due to invalid timer ID",
 562:../Dave/Generated/SYSTIMER/systimer.c ****             ((id <= SYSTIMER_CFG_MAX_TMR) && (id > 0U)));
 563:../Dave/Generated/SYSTIMER/systimer.c ****   XMC_ASSERT("SYSTIMER_DeleteTimer: Error during deletion of software timer", (0U != (g_timer_track
 564:../Dave/Generated/SYSTIMER/systimer.c **** 
 565:../Dave/Generated/SYSTIMER/systimer.c ****   /* Check whether Timer is in delete state */
 566:../Dave/Generated/SYSTIMER/systimer.c ****   if (SYSTIMER_STATE_NOT_INITIALIZED == g_timer_tbl[id - 1U].state)
 1616              	 .loc 2 566 0
 1617 0010 7B68     	 ldr r3,[r7,#4]
 1618 0012 5A1E     	 sub r2,r3,#1
 1619 0014 2249     	 ldr r1,.L87
 1620 0016 131C     	 mov r3,r2
 1621 0018 DB00     	 lsl r3,r3,#3
 1622 001a 9B18     	 add r3,r3,r2
 1623 001c 9B00     	 lsl r3,r3,#2
 1624 001e CB18     	 add r3,r1,r3
 1625 0020 0833     	 add r3,r3,#8
 1626 0022 5B79     	 ldrb r3,[r3,#5]
 1627 0024 002B     	 cmp r3,#0
 1628 0026 04D1     	 bne .L83
 567:../Dave/Generated/SYSTIMER/systimer.c ****   {
 568:../Dave/Generated/SYSTIMER/systimer.c ****       status = SYSTIMER_STATUS_FAILURE;
 1629              	 .loc 2 568 0
 1630 0028 0F23     	 mov r3,#15
 1631 002a FB18     	 add r3,r7,r3
 1632 002c 0122     	 mov r2,#1
 1633 002e 1A70     	 strb r2,[r3]
 1634 0030 2EE0     	 b .L84
 1635              	.L83:
 569:../Dave/Generated/SYSTIMER/systimer.c ****   }
 570:../Dave/Generated/SYSTIMER/systimer.c ****   else
 571:../Dave/Generated/SYSTIMER/systimer.c ****   {
 572:../Dave/Generated/SYSTIMER/systimer.c ****     if (SYSTIMER_STATE_STOPPED == g_timer_tbl[id - 1U].state)
 1636              	 .loc 2 572 0
 1637 0032 7B68     	 ldr r3,[r7,#4]
 1638 0034 5A1E     	 sub r2,r3,#1
 1639 0036 1A49     	 ldr r1,.L87
 1640 0038 131C     	 mov r3,r2
 1641 003a DB00     	 lsl r3,r3,#3
 1642 003c 9B18     	 add r3,r3,r2
 1643 003e 9B00     	 lsl r3,r3,#2
 1644 0040 CB18     	 add r3,r1,r3
 1645 0042 0833     	 add r3,r3,#8
 1646 0044 5B79     	 ldrb r3,[r3,#5]
 1647 0046 022B     	 cmp r3,#2
 1648 0048 16D1     	 bne .L85
 573:../Dave/Generated/SYSTIMER/systimer.c ****     {
 574:../Dave/Generated/SYSTIMER/systimer.c ****       /* Set timer status as SYSTIMER_STATE_NOT_INITIALIZED */
 575:../Dave/Generated/SYSTIMER/systimer.c ****       g_timer_tbl[id - 1U].state = SYSTIMER_STATE_NOT_INITIALIZED;
 1649              	 .loc 2 575 0
 1650 004a 7B68     	 ldr r3,[r7,#4]
 1651 004c 5A1E     	 sub r2,r3,#1
 1652 004e 1449     	 ldr r1,.L87
 1653 0050 131C     	 mov r3,r2
 1654 0052 DB00     	 lsl r3,r3,#3
 1655 0054 9B18     	 add r3,r3,r2
 1656 0056 9B00     	 lsl r3,r3,#2
 1657 0058 CB18     	 add r3,r1,r3
 1658 005a 0833     	 add r3,r3,#8
 1659 005c 0022     	 mov r2,#0
 1660 005e 5A71     	 strb r2,[r3,#5]
 576:../Dave/Generated/SYSTIMER/systimer.c ****       /* Release resource which are hold by this timer */
 577:../Dave/Generated/SYSTIMER/systimer.c ****       g_timer_tracker &= ~(1U << (id - 1U));
 1661              	 .loc 2 577 0
 1662 0060 7B68     	 ldr r3,[r7,#4]
 1663 0062 013B     	 sub r3,r3,#1
 1664 0064 1A1C     	 mov r2,r3
 1665 0066 0123     	 mov r3,#1
 1666 0068 9340     	 lsl r3,r3,r2
 1667 006a DA43     	 mvn r2,r3
 1668 006c 0D4B     	 ldr r3,.L87+4
 1669 006e 1B68     	 ldr r3,[r3]
 1670 0070 1A40     	 and r2,r3
 1671 0072 0C4B     	 ldr r3,.L87+4
 1672 0074 1A60     	 str r2,[r3]
 1673 0076 0BE0     	 b .L84
 1674              	.L85:
 578:../Dave/Generated/SYSTIMER/systimer.c ****     }
 579:../Dave/Generated/SYSTIMER/systimer.c ****     else
 580:../Dave/Generated/SYSTIMER/systimer.c ****     {
 581:../Dave/Generated/SYSTIMER/systimer.c ****       /* Yes, remove this timer from timer list during ISR execution */
 582:../Dave/Generated/SYSTIMER/systimer.c ****       g_timer_tbl[id - 1U].delete_swtmr = true;
 1675              	 .loc 2 582 0
 1676 0078 7B68     	 ldr r3,[r7,#4]
 1677 007a 5A1E     	 sub r2,r3,#1
 1678 007c 0849     	 ldr r1,.L87
 1679 007e 2020     	 mov r0,#32
 1680 0080 131C     	 mov r3,r2
 1681 0082 DB00     	 lsl r3,r3,#3
 1682 0084 9B18     	 add r3,r3,r2
 1683 0086 9B00     	 lsl r3,r3,#2
 1684 0088 CB18     	 add r3,r1,r3
 1685 008a 1B18     	 add r3,r3,r0
 1686 008c 0122     	 mov r2,#1
 1687 008e 1A70     	 strb r2,[r3]
 1688              	.L84:
 583:../Dave/Generated/SYSTIMER/systimer.c ****     }
 584:../Dave/Generated/SYSTIMER/systimer.c ****   }
 585:../Dave/Generated/SYSTIMER/systimer.c **** 
 586:../Dave/Generated/SYSTIMER/systimer.c ****   return (status);
 1689              	 .loc 2 586 0
 1690 0090 0F23     	 mov r3,#15
 1691 0092 FB18     	 add r3,r7,r3
 1692 0094 1B78     	 ldrb r3,[r3]
 587:../Dave/Generated/SYSTIMER/systimer.c **** }
 1693              	 .loc 2 587 0
 1694 0096 181C     	 mov r0,r3
 1695 0098 BD46     	 mov sp,r7
 1696 009a 04B0     	 add sp,sp,#16
 1697              	 
 1698 009c 80BD     	 pop {r7,pc}
 1699              	.L88:
 1700 009e C046     	 .align 2
 1701              	.L87:
 1702 00a0 00000000 	 .word g_timer_tbl
 1703 00a4 00000000 	 .word g_timer_tracker
 1704              	 .cfi_endproc
 1705              	.LFE52:
 1707              	 .section .text.SYSTIMER_GetTime,"ax",%progbits
 1708              	 .align 2
 1709              	 .global SYSTIMER_GetTime
 1710              	 .code 16
 1711              	 .thumb_func
 1713              	SYSTIMER_GetTime:
 1714              	.LFB53:
 588:../Dave/Generated/SYSTIMER/systimer.c **** 
 589:../Dave/Generated/SYSTIMER/systimer.c **** /*
 590:../Dave/Generated/SYSTIMER/systimer.c ****  *  API to get the current SysTick time in microsecond.
 591:../Dave/Generated/SYSTIMER/systimer.c ****  */
 592:../Dave/Generated/SYSTIMER/systimer.c **** uint32_t SYSTIMER_GetTime(void)
 593:../Dave/Generated/SYSTIMER/systimer.c **** {
 1715              	 .loc 2 593 0
 1716              	 .cfi_startproc
 1717 0000 80B5     	 push {r7,lr}
 1718              	.LCFI39:
 1719              	 .cfi_def_cfa_offset 8
 1720              	 .cfi_offset 7,-8
 1721              	 .cfi_offset 14,-4
 1722 0002 00AF     	 add r7,sp,#0
 1723              	.LCFI40:
 1724              	 .cfi_def_cfa_register 7
 594:../Dave/Generated/SYSTIMER/systimer.c ****   return (g_systick_count * SYSTIMER_TICK_PERIOD_US);
 1725              	 .loc 2 594 0
 1726 0004 044B     	 ldr r3,.L91
 1727 0006 1A68     	 ldr r2,[r3]
 1728 0008 131C     	 mov r3,r2
 1729 000a 9B00     	 lsl r3,r3,#2
 1730 000c 9B18     	 add r3,r3,r2
 1731 000e 5B00     	 lsl r3,r3,#1
 595:../Dave/Generated/SYSTIMER/systimer.c **** }
 1732              	 .loc 2 595 0
 1733 0010 181C     	 mov r0,r3
 1734 0012 BD46     	 mov sp,r7
 1735              	 
 1736 0014 80BD     	 pop {r7,pc}
 1737              	.L92:
 1738 0016 C046     	 .align 2
 1739              	.L91:
 1740 0018 00000000 	 .word g_systick_count
 1741              	 .cfi_endproc
 1742              	.LFE53:
 1744              	 .section .text.SYSTIMER_GetTickCount,"ax",%progbits
 1745              	 .align 2
 1746              	 .global SYSTIMER_GetTickCount
 1747              	 .code 16
 1748              	 .thumb_func
 1750              	SYSTIMER_GetTickCount:
 1751              	.LFB54:
 596:../Dave/Generated/SYSTIMER/systimer.c **** 
 597:../Dave/Generated/SYSTIMER/systimer.c **** /*
 598:../Dave/Generated/SYSTIMER/systimer.c ****  *  API to get the SysTick count.
 599:../Dave/Generated/SYSTIMER/systimer.c ****  */
 600:../Dave/Generated/SYSTIMER/systimer.c **** uint32_t SYSTIMER_GetTickCount(void)
 601:../Dave/Generated/SYSTIMER/systimer.c **** {
 1752              	 .loc 2 601 0
 1753              	 .cfi_startproc
 1754 0000 80B5     	 push {r7,lr}
 1755              	.LCFI41:
 1756              	 .cfi_def_cfa_offset 8
 1757              	 .cfi_offset 7,-8
 1758              	 .cfi_offset 14,-4
 1759 0002 00AF     	 add r7,sp,#0
 1760              	.LCFI42:
 1761              	 .cfi_def_cfa_register 7
 602:../Dave/Generated/SYSTIMER/systimer.c ****   return (g_systick_count);
 1762              	 .loc 2 602 0
 1763 0004 024B     	 ldr r3,.L95
 1764 0006 1B68     	 ldr r3,[r3]
 603:../Dave/Generated/SYSTIMER/systimer.c **** }
 1765              	 .loc 2 603 0
 1766 0008 181C     	 mov r0,r3
 1767 000a BD46     	 mov sp,r7
 1768              	 
 1769 000c 80BD     	 pop {r7,pc}
 1770              	.L96:
 1771 000e C046     	 .align 2
 1772              	.L95:
 1773 0010 00000000 	 .word g_systick_count
 1774              	 .cfi_endproc
 1775              	.LFE54:
 1777              	 .section .text.SYSTIMER_GetTimerState,"ax",%progbits
 1778              	 .align 2
 1779              	 .global SYSTIMER_GetTimerState
 1780              	 .code 16
 1781              	 .thumb_func
 1783              	SYSTIMER_GetTimerState:
 1784              	.LFB55:
 604:../Dave/Generated/SYSTIMER/systimer.c **** 
 605:../Dave/Generated/SYSTIMER/systimer.c **** /*
 606:../Dave/Generated/SYSTIMER/systimer.c ****  *  API to get the current state of software timer.
 607:../Dave/Generated/SYSTIMER/systimer.c ****  */
 608:../Dave/Generated/SYSTIMER/systimer.c **** SYSTIMER_STATE_t SYSTIMER_GetTimerState(uint32_t id)
 609:../Dave/Generated/SYSTIMER/systimer.c **** {
 1785              	 .loc 2 609 0
 1786              	 .cfi_startproc
 1787 0000 80B5     	 push {r7,lr}
 1788              	.LCFI43:
 1789              	 .cfi_def_cfa_offset 8
 1790              	 .cfi_offset 7,-8
 1791              	 .cfi_offset 14,-4
 1792 0002 82B0     	 sub sp,sp,#8
 1793              	.LCFI44:
 1794              	 .cfi_def_cfa_offset 16
 1795 0004 00AF     	 add r7,sp,#0
 1796              	.LCFI45:
 1797              	 .cfi_def_cfa_register 7
 1798 0006 7860     	 str r0,[r7,#4]
 610:../Dave/Generated/SYSTIMER/systimer.c ****   return (g_timer_tbl[id - 1U].state);
 1799              	 .loc 2 610 0
 1800 0008 7B68     	 ldr r3,[r7,#4]
 1801 000a 5A1E     	 sub r2,r3,#1
 1802 000c 0549     	 ldr r1,.L99
 1803 000e 131C     	 mov r3,r2
 1804 0010 DB00     	 lsl r3,r3,#3
 1805 0012 9B18     	 add r3,r3,r2
 1806 0014 9B00     	 lsl r3,r3,#2
 1807 0016 CB18     	 add r3,r1,r3
 1808 0018 0833     	 add r3,r3,#8
 1809 001a 5B79     	 ldrb r3,[r3,#5]
 611:../Dave/Generated/SYSTIMER/systimer.c **** }
 1810              	 .loc 2 611 0
 1811 001c 181C     	 mov r0,r3
 1812 001e BD46     	 mov sp,r7
 1813 0020 02B0     	 add sp,sp,#8
 1814              	 
 1815 0022 80BD     	 pop {r7,pc}
 1816              	.L100:
 1817              	 .align 2
 1818              	.L99:
 1819 0024 00000000 	 .word g_timer_tbl
 1820              	 .cfi_endproc
 1821              	.LFE55:
 1823              	 .section .text.SYSTIMER_Start,"ax",%progbits
 1824              	 .align 2
 1825              	 .global SYSTIMER_Start
 1826              	 .code 16
 1827              	 .thumb_func
 1829              	SYSTIMER_Start:
 1830              	.LFB58:
 612:../Dave/Generated/SYSTIMER/systimer.c **** 
 613:../Dave/Generated/SYSTIMER/systimer.c **** __attribute__((always_inline)) __STATIC_INLINE uint32_t critical_section_enter(void)
 614:../Dave/Generated/SYSTIMER/systimer.c **** {
 615:../Dave/Generated/SYSTIMER/systimer.c ****   uint32_t status;
 616:../Dave/Generated/SYSTIMER/systimer.c ****   status = __get_PRIMASK();
 617:../Dave/Generated/SYSTIMER/systimer.c ****   __disable_irq ();
 618:../Dave/Generated/SYSTIMER/systimer.c ****   return status;
 619:../Dave/Generated/SYSTIMER/systimer.c **** }
 620:../Dave/Generated/SYSTIMER/systimer.c **** 
 621:../Dave/Generated/SYSTIMER/systimer.c **** __attribute__((always_inline)) __STATIC_INLINE void critical_section_exit(uint32_t status)
 622:../Dave/Generated/SYSTIMER/systimer.c **** {
 623:../Dave/Generated/SYSTIMER/systimer.c ****   __set_PRIMASK(status);
 624:../Dave/Generated/SYSTIMER/systimer.c **** }
 625:../Dave/Generated/SYSTIMER/systimer.c **** 
 626:../Dave/Generated/SYSTIMER/systimer.c **** void SYSTIMER_Start(void)
 627:../Dave/Generated/SYSTIMER/systimer.c **** {
 1831              	 .loc 2 627 0
 1832              	 .cfi_startproc
 1833 0000 80B5     	 push {r7,lr}
 1834              	.LCFI46:
 1835              	 .cfi_def_cfa_offset 8
 1836              	 .cfi_offset 7,-8
 1837              	 .cfi_offset 14,-4
 1838 0002 00AF     	 add r7,sp,#0
 1839              	.LCFI47:
 1840              	 .cfi_def_cfa_register 7
 628:../Dave/Generated/SYSTIMER/systimer.c ****   SysTick->CTRL |= SysTick_CTRL_ENABLE_Msk;
 1841              	 .loc 2 628 0
 1842 0004 034B     	 ldr r3,.L102
 1843 0006 034A     	 ldr r2,.L102
 1844 0008 1268     	 ldr r2,[r2]
 1845 000a 0121     	 mov r1,#1
 1846 000c 0A43     	 orr r2,r1
 1847 000e 1A60     	 str r2,[r3]
 629:../Dave/Generated/SYSTIMER/systimer.c **** }
 1848              	 .loc 2 629 0
 1849 0010 BD46     	 mov sp,r7
 1850              	 
 1851 0012 80BD     	 pop {r7,pc}
 1852              	.L103:
 1853              	 .align 2
 1854              	.L102:
 1855 0014 10E000E0 	 .word -536813552
 1856              	 .cfi_endproc
 1857              	.LFE58:
 1859              	 .section .text.SYSTIMER_Stop,"ax",%progbits
 1860              	 .align 2
 1861              	 .global SYSTIMER_Stop
 1862              	 .code 16
 1863              	 .thumb_func
 1865              	SYSTIMER_Stop:
 1866              	.LFB59:
 630:../Dave/Generated/SYSTIMER/systimer.c **** 
 631:../Dave/Generated/SYSTIMER/systimer.c **** void SYSTIMER_Stop(void)
 632:../Dave/Generated/SYSTIMER/systimer.c **** {
 1867              	 .loc 2 632 0
 1868              	 .cfi_startproc
 1869 0000 80B5     	 push {r7,lr}
 1870              	.LCFI48:
 1871              	 .cfi_def_cfa_offset 8
 1872              	 .cfi_offset 7,-8
 1873              	 .cfi_offset 14,-4
 1874 0002 00AF     	 add r7,sp,#0
 1875              	.LCFI49:
 1876              	 .cfi_def_cfa_register 7
 633:../Dave/Generated/SYSTIMER/systimer.c ****   SysTick->CTRL &= ~SysTick_CTRL_ENABLE_Msk;
 1877              	 .loc 2 633 0
 1878 0004 034B     	 ldr r3,.L105
 1879 0006 034A     	 ldr r2,.L105
 1880 0008 1268     	 ldr r2,[r2]
 1881 000a 0121     	 mov r1,#1
 1882 000c 8A43     	 bic r2,r1
 1883 000e 1A60     	 str r2,[r3]
 634:../Dave/Generated/SYSTIMER/systimer.c **** }
 1884              	 .loc 2 634 0
 1885 0010 BD46     	 mov sp,r7
 1886              	 
 1887 0012 80BD     	 pop {r7,pc}
 1888              	.L106:
 1889              	 .align 2
 1890              	.L105:
 1891 0014 10E000E0 	 .word -536813552
 1892              	 .cfi_endproc
 1893              	.LFE59:
 1895              	 .section .text.SYSTIMER_CreateTimerFromISR,"ax",%progbits
 1896              	 .align 2
 1897              	 .global SYSTIMER_CreateTimerFromISR
 1898              	 .code 16
 1899              	 .thumb_func
 1901              	SYSTIMER_CreateTimerFromISR:
 1902              	.LFB60:
 635:../Dave/Generated/SYSTIMER/systimer.c **** 
 636:../Dave/Generated/SYSTIMER/systimer.c **** uint32_t SYSTIMER_CreateTimerFromISR
 637:../Dave/Generated/SYSTIMER/systimer.c **** (
 638:../Dave/Generated/SYSTIMER/systimer.c ****   uint32_t period,
 639:../Dave/Generated/SYSTIMER/systimer.c ****   SYSTIMER_MODE_t mode,
 640:../Dave/Generated/SYSTIMER/systimer.c ****   SYSTIMER_CALLBACK_t callback,
 641:../Dave/Generated/SYSTIMER/systimer.c ****   void  *args
 642:../Dave/Generated/SYSTIMER/systimer.c **** )
 643:../Dave/Generated/SYSTIMER/systimer.c **** {
 1903              	 .loc 2 643 0
 1904              	 .cfi_startproc
 1905 0000 80B5     	 push {r7,lr}
 1906              	.LCFI50:
 1907              	 .cfi_def_cfa_offset 8
 1908              	 .cfi_offset 7,-8
 1909              	 .cfi_offset 14,-4
 1910 0002 8AB0     	 sub sp,sp,#40
 1911              	.LCFI51:
 1912              	 .cfi_def_cfa_offset 48
 1913 0004 00AF     	 add r7,sp,#0
 1914              	.LCFI52:
 1915              	 .cfi_def_cfa_register 7
 1916 0006 F860     	 str r0,[r7,#12]
 1917 0008 7A60     	 str r2,[r7,#4]
 1918 000a 3B60     	 str r3,[r7]
 1919 000c 0B23     	 mov r3,#11
 1920 000e FB18     	 add r3,r7,r3
 1921 0010 0A1C     	 add r2,r1,#0
 1922 0012 1A70     	 strb r2,[r3]
 1923              	.LBB58:
 1924              	.LBB59:
 1925              	.LBB60:
 1926              	.LBB61:
 1927              	 .file 3 "D:/DAVE IDE/4.5.0.202105191637/eclipse/workspace/bldcmotor/Libraries/CMSIS/Include/cmsis_gcc.h"
   1:D:/DAVE IDE/4.5.0.202105191637/eclipse/workspace/bldcmotor/Libraries/CMSIS/Include\cmsis_gcc.h **** /**************************************************************************//**
   2:D:/DAVE IDE/4.5.0.202105191637/eclipse/workspace/bldcmotor/Libraries/CMSIS/Include\cmsis_gcc.h ****  * @file     cmsis_gcc.h
   3:D:/DAVE IDE/4.5.0.202105191637/eclipse/workspace/bldcmotor/Libraries/CMSIS/Include\cmsis_gcc.h ****  * @brief    CMSIS compiler GCC header file
   4:D:/DAVE IDE/4.5.0.202105191637/eclipse/workspace/bldcmotor/Libraries/CMSIS/Include\cmsis_gcc.h ****  * @version  V5.3.0
   5:D:/DAVE IDE/4.5.0.202105191637/eclipse/workspace/bldcmotor/Libraries/CMSIS/Include\cmsis_gcc.h ****  * @date     26. March 2020
   6:D:/DAVE IDE/4.5.0.202105191637/eclipse/workspace/bldcmotor/Libraries/CMSIS/Include\cmsis_gcc.h ****  ******************************************************************************/
   7:D:/DAVE IDE/4.5.0.202105191637/eclipse/workspace/bldcmotor/Libraries/CMSIS/Include\cmsis_gcc.h **** /*
   8:D:/DAVE IDE/4.5.0.202105191637/eclipse/workspace/bldcmotor/Libraries/CMSIS/Include\cmsis_gcc.h ****  * Copyright (c) 2009-2020 Arm Limited. All rights reserved.
   9:D:/DAVE IDE/4.5.0.202105191637/eclipse/workspace/bldcmotor/Libraries/CMSIS/Include\cmsis_gcc.h ****  *
  10:D:/DAVE IDE/4.5.0.202105191637/eclipse/workspace/bldcmotor/Libraries/CMSIS/Include\cmsis_gcc.h ****  * SPDX-License-Identifier: Apache-2.0
  11:D:/DAVE IDE/4.5.0.202105191637/eclipse/workspace/bldcmotor/Libraries/CMSIS/Include\cmsis_gcc.h ****  *
  12:D:/DAVE IDE/4.5.0.202105191637/eclipse/workspace/bldcmotor/Libraries/CMSIS/Include\cmsis_gcc.h ****  * Licensed under the Apache License, Version 2.0 (the License); you may
  13:D:/DAVE IDE/4.5.0.202105191637/eclipse/workspace/bldcmotor/Libraries/CMSIS/Include\cmsis_gcc.h ****  * not use this file except in compliance with the License.
  14:D:/DAVE IDE/4.5.0.202105191637/eclipse/workspace/bldcmotor/Libraries/CMSIS/Include\cmsis_gcc.h ****  * You may obtain a copy of the License at
  15:D:/DAVE IDE/4.5.0.202105191637/eclipse/workspace/bldcmotor/Libraries/CMSIS/Include\cmsis_gcc.h ****  *
  16:D:/DAVE IDE/4.5.0.202105191637/eclipse/workspace/bldcmotor/Libraries/CMSIS/Include\cmsis_gcc.h ****  * www.apache.org/licenses/LICENSE-2.0
  17:D:/DAVE IDE/4.5.0.202105191637/eclipse/workspace/bldcmotor/Libraries/CMSIS/Include\cmsis_gcc.h ****  *
  18:D:/DAVE IDE/4.5.0.202105191637/eclipse/workspace/bldcmotor/Libraries/CMSIS/Include\cmsis_gcc.h ****  * Unless required by applicable law or agreed to in writing, software
  19:D:/DAVE IDE/4.5.0.202105191637/eclipse/workspace/bldcmotor/Libraries/CMSIS/Include\cmsis_gcc.h ****  * distributed under the License is distributed on an AS IS BASIS, WITHOUT
  20:D:/DAVE IDE/4.5.0.202105191637/eclipse/workspace/bldcmotor/Libraries/CMSIS/Include\cmsis_gcc.h ****  * WARRANTIES OR CONDITIONS OF ANY KIND, either express or implied.
  21:D:/DAVE IDE/4.5.0.202105191637/eclipse/workspace/bldcmotor/Libraries/CMSIS/Include\cmsis_gcc.h ****  * See the License for the specific language governing permissions and
  22:D:/DAVE IDE/4.5.0.202105191637/eclipse/workspace/bldcmotor/Libraries/CMSIS/Include\cmsis_gcc.h ****  * limitations under the License.
  23:D:/DAVE IDE/4.5.0.202105191637/eclipse/workspace/bldcmotor/Libraries/CMSIS/Include\cmsis_gcc.h ****  */
  24:D:/DAVE IDE/4.5.0.202105191637/eclipse/workspace/bldcmotor/Libraries/CMSIS/Include\cmsis_gcc.h **** 
  25:D:/DAVE IDE/4.5.0.202105191637/eclipse/workspace/bldcmotor/Libraries/CMSIS/Include\cmsis_gcc.h **** #ifndef __CMSIS_GCC_H
  26:D:/DAVE IDE/4.5.0.202105191637/eclipse/workspace/bldcmotor/Libraries/CMSIS/Include\cmsis_gcc.h **** #define __CMSIS_GCC_H
  27:D:/DAVE IDE/4.5.0.202105191637/eclipse/workspace/bldcmotor/Libraries/CMSIS/Include\cmsis_gcc.h **** 
  28:D:/DAVE IDE/4.5.0.202105191637/eclipse/workspace/bldcmotor/Libraries/CMSIS/Include\cmsis_gcc.h **** /* ignore some GCC warnings */
  29:D:/DAVE IDE/4.5.0.202105191637/eclipse/workspace/bldcmotor/Libraries/CMSIS/Include\cmsis_gcc.h **** #pragma GCC diagnostic push
  30:D:/DAVE IDE/4.5.0.202105191637/eclipse/workspace/bldcmotor/Libraries/CMSIS/Include\cmsis_gcc.h **** #pragma GCC diagnostic ignored "-Wsign-conversion"
  31:D:/DAVE IDE/4.5.0.202105191637/eclipse/workspace/bldcmotor/Libraries/CMSIS/Include\cmsis_gcc.h **** #pragma GCC diagnostic ignored "-Wconversion"
  32:D:/DAVE IDE/4.5.0.202105191637/eclipse/workspace/bldcmotor/Libraries/CMSIS/Include\cmsis_gcc.h **** #pragma GCC diagnostic ignored "-Wunused-parameter"
  33:D:/DAVE IDE/4.5.0.202105191637/eclipse/workspace/bldcmotor/Libraries/CMSIS/Include\cmsis_gcc.h **** 
  34:D:/DAVE IDE/4.5.0.202105191637/eclipse/workspace/bldcmotor/Libraries/CMSIS/Include\cmsis_gcc.h **** /* Fallback for __has_builtin */
  35:D:/DAVE IDE/4.5.0.202105191637/eclipse/workspace/bldcmotor/Libraries/CMSIS/Include\cmsis_gcc.h **** #ifndef __has_builtin
  36:D:/DAVE IDE/4.5.0.202105191637/eclipse/workspace/bldcmotor/Libraries/CMSIS/Include\cmsis_gcc.h ****   #define __has_builtin(x) (0)
  37:D:/DAVE IDE/4.5.0.202105191637/eclipse/workspace/bldcmotor/Libraries/CMSIS/Include\cmsis_gcc.h **** #endif
  38:D:/DAVE IDE/4.5.0.202105191637/eclipse/workspace/bldcmotor/Libraries/CMSIS/Include\cmsis_gcc.h **** 
  39:D:/DAVE IDE/4.5.0.202105191637/eclipse/workspace/bldcmotor/Libraries/CMSIS/Include\cmsis_gcc.h **** /* CMSIS compiler specific defines */
  40:D:/DAVE IDE/4.5.0.202105191637/eclipse/workspace/bldcmotor/Libraries/CMSIS/Include\cmsis_gcc.h **** #ifndef   __ASM
  41:D:/DAVE IDE/4.5.0.202105191637/eclipse/workspace/bldcmotor/Libraries/CMSIS/Include\cmsis_gcc.h ****   #define __ASM                                  __asm
  42:D:/DAVE IDE/4.5.0.202105191637/eclipse/workspace/bldcmotor/Libraries/CMSIS/Include\cmsis_gcc.h **** #endif
  43:D:/DAVE IDE/4.5.0.202105191637/eclipse/workspace/bldcmotor/Libraries/CMSIS/Include\cmsis_gcc.h **** #ifndef   __INLINE
  44:D:/DAVE IDE/4.5.0.202105191637/eclipse/workspace/bldcmotor/Libraries/CMSIS/Include\cmsis_gcc.h ****   #define __INLINE                               inline
  45:D:/DAVE IDE/4.5.0.202105191637/eclipse/workspace/bldcmotor/Libraries/CMSIS/Include\cmsis_gcc.h **** #endif
  46:D:/DAVE IDE/4.5.0.202105191637/eclipse/workspace/bldcmotor/Libraries/CMSIS/Include\cmsis_gcc.h **** #ifndef   __STATIC_INLINE
  47:D:/DAVE IDE/4.5.0.202105191637/eclipse/workspace/bldcmotor/Libraries/CMSIS/Include\cmsis_gcc.h ****   #define __STATIC_INLINE                        static inline
  48:D:/DAVE IDE/4.5.0.202105191637/eclipse/workspace/bldcmotor/Libraries/CMSIS/Include\cmsis_gcc.h **** #endif
  49:D:/DAVE IDE/4.5.0.202105191637/eclipse/workspace/bldcmotor/Libraries/CMSIS/Include\cmsis_gcc.h **** #ifndef   __STATIC_FORCEINLINE                 
  50:D:/DAVE IDE/4.5.0.202105191637/eclipse/workspace/bldcmotor/Libraries/CMSIS/Include\cmsis_gcc.h ****   #define __STATIC_FORCEINLINE                   __attribute__((always_inline)) static inline
  51:D:/DAVE IDE/4.5.0.202105191637/eclipse/workspace/bldcmotor/Libraries/CMSIS/Include\cmsis_gcc.h **** #endif                                           
  52:D:/DAVE IDE/4.5.0.202105191637/eclipse/workspace/bldcmotor/Libraries/CMSIS/Include\cmsis_gcc.h **** #ifndef   __NO_RETURN
  53:D:/DAVE IDE/4.5.0.202105191637/eclipse/workspace/bldcmotor/Libraries/CMSIS/Include\cmsis_gcc.h ****   #define __NO_RETURN                            __attribute__((__noreturn__))
  54:D:/DAVE IDE/4.5.0.202105191637/eclipse/workspace/bldcmotor/Libraries/CMSIS/Include\cmsis_gcc.h **** #endif
  55:D:/DAVE IDE/4.5.0.202105191637/eclipse/workspace/bldcmotor/Libraries/CMSIS/Include\cmsis_gcc.h **** #ifndef   __USED
  56:D:/DAVE IDE/4.5.0.202105191637/eclipse/workspace/bldcmotor/Libraries/CMSIS/Include\cmsis_gcc.h ****   #define __USED                                 __attribute__((used))
  57:D:/DAVE IDE/4.5.0.202105191637/eclipse/workspace/bldcmotor/Libraries/CMSIS/Include\cmsis_gcc.h **** #endif
  58:D:/DAVE IDE/4.5.0.202105191637/eclipse/workspace/bldcmotor/Libraries/CMSIS/Include\cmsis_gcc.h **** #ifndef   __WEAK
  59:D:/DAVE IDE/4.5.0.202105191637/eclipse/workspace/bldcmotor/Libraries/CMSIS/Include\cmsis_gcc.h ****   #define __WEAK                                 __attribute__((weak))
  60:D:/DAVE IDE/4.5.0.202105191637/eclipse/workspace/bldcmotor/Libraries/CMSIS/Include\cmsis_gcc.h **** #endif
  61:D:/DAVE IDE/4.5.0.202105191637/eclipse/workspace/bldcmotor/Libraries/CMSIS/Include\cmsis_gcc.h **** #ifndef   __PACKED
  62:D:/DAVE IDE/4.5.0.202105191637/eclipse/workspace/bldcmotor/Libraries/CMSIS/Include\cmsis_gcc.h ****   #define __PACKED                               __attribute__((packed, aligned(1)))
  63:D:/DAVE IDE/4.5.0.202105191637/eclipse/workspace/bldcmotor/Libraries/CMSIS/Include\cmsis_gcc.h **** #endif
  64:D:/DAVE IDE/4.5.0.202105191637/eclipse/workspace/bldcmotor/Libraries/CMSIS/Include\cmsis_gcc.h **** #ifndef   __PACKED_STRUCT
  65:D:/DAVE IDE/4.5.0.202105191637/eclipse/workspace/bldcmotor/Libraries/CMSIS/Include\cmsis_gcc.h ****   #define __PACKED_STRUCT                        struct __attribute__((packed, aligned(1)))
  66:D:/DAVE IDE/4.5.0.202105191637/eclipse/workspace/bldcmotor/Libraries/CMSIS/Include\cmsis_gcc.h **** #endif
  67:D:/DAVE IDE/4.5.0.202105191637/eclipse/workspace/bldcmotor/Libraries/CMSIS/Include\cmsis_gcc.h **** #ifndef   __PACKED_UNION
  68:D:/DAVE IDE/4.5.0.202105191637/eclipse/workspace/bldcmotor/Libraries/CMSIS/Include\cmsis_gcc.h ****   #define __PACKED_UNION                         union __attribute__((packed, aligned(1)))
  69:D:/DAVE IDE/4.5.0.202105191637/eclipse/workspace/bldcmotor/Libraries/CMSIS/Include\cmsis_gcc.h **** #endif
  70:D:/DAVE IDE/4.5.0.202105191637/eclipse/workspace/bldcmotor/Libraries/CMSIS/Include\cmsis_gcc.h **** #ifndef   __UNALIGNED_UINT32        /* deprecated */
  71:D:/DAVE IDE/4.5.0.202105191637/eclipse/workspace/bldcmotor/Libraries/CMSIS/Include\cmsis_gcc.h ****   #pragma GCC diagnostic push
  72:D:/DAVE IDE/4.5.0.202105191637/eclipse/workspace/bldcmotor/Libraries/CMSIS/Include\cmsis_gcc.h ****   #pragma GCC diagnostic ignored "-Wpacked"
  73:D:/DAVE IDE/4.5.0.202105191637/eclipse/workspace/bldcmotor/Libraries/CMSIS/Include\cmsis_gcc.h ****   #pragma GCC diagnostic ignored "-Wattributes"
  74:D:/DAVE IDE/4.5.0.202105191637/eclipse/workspace/bldcmotor/Libraries/CMSIS/Include\cmsis_gcc.h ****   struct __attribute__((packed)) T_UINT32 { uint32_t v; };
  75:D:/DAVE IDE/4.5.0.202105191637/eclipse/workspace/bldcmotor/Libraries/CMSIS/Include\cmsis_gcc.h ****   #pragma GCC diagnostic pop
  76:D:/DAVE IDE/4.5.0.202105191637/eclipse/workspace/bldcmotor/Libraries/CMSIS/Include\cmsis_gcc.h ****   #define __UNALIGNED_UINT32(x)                  (((struct T_UINT32 *)(x))->v)
  77:D:/DAVE IDE/4.5.0.202105191637/eclipse/workspace/bldcmotor/Libraries/CMSIS/Include\cmsis_gcc.h **** #endif
  78:D:/DAVE IDE/4.5.0.202105191637/eclipse/workspace/bldcmotor/Libraries/CMSIS/Include\cmsis_gcc.h **** #ifndef   __UNALIGNED_UINT16_WRITE
  79:D:/DAVE IDE/4.5.0.202105191637/eclipse/workspace/bldcmotor/Libraries/CMSIS/Include\cmsis_gcc.h ****   #pragma GCC diagnostic push
  80:D:/DAVE IDE/4.5.0.202105191637/eclipse/workspace/bldcmotor/Libraries/CMSIS/Include\cmsis_gcc.h ****   #pragma GCC diagnostic ignored "-Wpacked"
  81:D:/DAVE IDE/4.5.0.202105191637/eclipse/workspace/bldcmotor/Libraries/CMSIS/Include\cmsis_gcc.h ****   #pragma GCC diagnostic ignored "-Wattributes"
  82:D:/DAVE IDE/4.5.0.202105191637/eclipse/workspace/bldcmotor/Libraries/CMSIS/Include\cmsis_gcc.h ****   __PACKED_STRUCT T_UINT16_WRITE { uint16_t v; };
  83:D:/DAVE IDE/4.5.0.202105191637/eclipse/workspace/bldcmotor/Libraries/CMSIS/Include\cmsis_gcc.h ****   #pragma GCC diagnostic pop
  84:D:/DAVE IDE/4.5.0.202105191637/eclipse/workspace/bldcmotor/Libraries/CMSIS/Include\cmsis_gcc.h ****   #define __UNALIGNED_UINT16_WRITE(addr, val)    (void)((((struct T_UINT16_WRITE *)(void *)(addr))-
  85:D:/DAVE IDE/4.5.0.202105191637/eclipse/workspace/bldcmotor/Libraries/CMSIS/Include\cmsis_gcc.h **** #endif
  86:D:/DAVE IDE/4.5.0.202105191637/eclipse/workspace/bldcmotor/Libraries/CMSIS/Include\cmsis_gcc.h **** #ifndef   __UNALIGNED_UINT16_READ
  87:D:/DAVE IDE/4.5.0.202105191637/eclipse/workspace/bldcmotor/Libraries/CMSIS/Include\cmsis_gcc.h ****   #pragma GCC diagnostic push
  88:D:/DAVE IDE/4.5.0.202105191637/eclipse/workspace/bldcmotor/Libraries/CMSIS/Include\cmsis_gcc.h ****   #pragma GCC diagnostic ignored "-Wpacked"
  89:D:/DAVE IDE/4.5.0.202105191637/eclipse/workspace/bldcmotor/Libraries/CMSIS/Include\cmsis_gcc.h ****   #pragma GCC diagnostic ignored "-Wattributes"
  90:D:/DAVE IDE/4.5.0.202105191637/eclipse/workspace/bldcmotor/Libraries/CMSIS/Include\cmsis_gcc.h ****   __PACKED_STRUCT T_UINT16_READ { uint16_t v; };
  91:D:/DAVE IDE/4.5.0.202105191637/eclipse/workspace/bldcmotor/Libraries/CMSIS/Include\cmsis_gcc.h ****   #pragma GCC diagnostic pop
  92:D:/DAVE IDE/4.5.0.202105191637/eclipse/workspace/bldcmotor/Libraries/CMSIS/Include\cmsis_gcc.h ****   #define __UNALIGNED_UINT16_READ(addr)          (((const struct T_UINT16_READ *)(const void *)(add
  93:D:/DAVE IDE/4.5.0.202105191637/eclipse/workspace/bldcmotor/Libraries/CMSIS/Include\cmsis_gcc.h **** #endif
  94:D:/DAVE IDE/4.5.0.202105191637/eclipse/workspace/bldcmotor/Libraries/CMSIS/Include\cmsis_gcc.h **** #ifndef   __UNALIGNED_UINT32_WRITE
  95:D:/DAVE IDE/4.5.0.202105191637/eclipse/workspace/bldcmotor/Libraries/CMSIS/Include\cmsis_gcc.h ****   #pragma GCC diagnostic push
  96:D:/DAVE IDE/4.5.0.202105191637/eclipse/workspace/bldcmotor/Libraries/CMSIS/Include\cmsis_gcc.h ****   #pragma GCC diagnostic ignored "-Wpacked"
  97:D:/DAVE IDE/4.5.0.202105191637/eclipse/workspace/bldcmotor/Libraries/CMSIS/Include\cmsis_gcc.h ****   #pragma GCC diagnostic ignored "-Wattributes"
  98:D:/DAVE IDE/4.5.0.202105191637/eclipse/workspace/bldcmotor/Libraries/CMSIS/Include\cmsis_gcc.h ****   __PACKED_STRUCT T_UINT32_WRITE { uint32_t v; };
  99:D:/DAVE IDE/4.5.0.202105191637/eclipse/workspace/bldcmotor/Libraries/CMSIS/Include\cmsis_gcc.h ****   #pragma GCC diagnostic pop
 100:D:/DAVE IDE/4.5.0.202105191637/eclipse/workspace/bldcmotor/Libraries/CMSIS/Include\cmsis_gcc.h ****   #define __UNALIGNED_UINT32_WRITE(addr, val)    (void)((((struct T_UINT32_WRITE *)(void *)(addr))-
 101:D:/DAVE IDE/4.5.0.202105191637/eclipse/workspace/bldcmotor/Libraries/CMSIS/Include\cmsis_gcc.h **** #endif
 102:D:/DAVE IDE/4.5.0.202105191637/eclipse/workspace/bldcmotor/Libraries/CMSIS/Include\cmsis_gcc.h **** #ifndef   __UNALIGNED_UINT32_READ
 103:D:/DAVE IDE/4.5.0.202105191637/eclipse/workspace/bldcmotor/Libraries/CMSIS/Include\cmsis_gcc.h ****   #pragma GCC diagnostic push
 104:D:/DAVE IDE/4.5.0.202105191637/eclipse/workspace/bldcmotor/Libraries/CMSIS/Include\cmsis_gcc.h ****   #pragma GCC diagnostic ignored "-Wpacked"
 105:D:/DAVE IDE/4.5.0.202105191637/eclipse/workspace/bldcmotor/Libraries/CMSIS/Include\cmsis_gcc.h ****   #pragma GCC diagnostic ignored "-Wattributes"
 106:D:/DAVE IDE/4.5.0.202105191637/eclipse/workspace/bldcmotor/Libraries/CMSIS/Include\cmsis_gcc.h ****   __PACKED_STRUCT T_UINT32_READ { uint32_t v; };
 107:D:/DAVE IDE/4.5.0.202105191637/eclipse/workspace/bldcmotor/Libraries/CMSIS/Include\cmsis_gcc.h ****   #pragma GCC diagnostic pop
 108:D:/DAVE IDE/4.5.0.202105191637/eclipse/workspace/bldcmotor/Libraries/CMSIS/Include\cmsis_gcc.h ****   #define __UNALIGNED_UINT32_READ(addr)          (((const struct T_UINT32_READ *)(const void *)(add
 109:D:/DAVE IDE/4.5.0.202105191637/eclipse/workspace/bldcmotor/Libraries/CMSIS/Include\cmsis_gcc.h **** #endif
 110:D:/DAVE IDE/4.5.0.202105191637/eclipse/workspace/bldcmotor/Libraries/CMSIS/Include\cmsis_gcc.h **** #ifndef   __ALIGNED
 111:D:/DAVE IDE/4.5.0.202105191637/eclipse/workspace/bldcmotor/Libraries/CMSIS/Include\cmsis_gcc.h ****   #define __ALIGNED(x)                           __attribute__((aligned(x)))
 112:D:/DAVE IDE/4.5.0.202105191637/eclipse/workspace/bldcmotor/Libraries/CMSIS/Include\cmsis_gcc.h **** #endif
 113:D:/DAVE IDE/4.5.0.202105191637/eclipse/workspace/bldcmotor/Libraries/CMSIS/Include\cmsis_gcc.h **** #ifndef   __RESTRICT
 114:D:/DAVE IDE/4.5.0.202105191637/eclipse/workspace/bldcmotor/Libraries/CMSIS/Include\cmsis_gcc.h ****   #define __RESTRICT                             __restrict
 115:D:/DAVE IDE/4.5.0.202105191637/eclipse/workspace/bldcmotor/Libraries/CMSIS/Include\cmsis_gcc.h **** #endif
 116:D:/DAVE IDE/4.5.0.202105191637/eclipse/workspace/bldcmotor/Libraries/CMSIS/Include\cmsis_gcc.h **** #ifndef   __COMPILER_BARRIER
 117:D:/DAVE IDE/4.5.0.202105191637/eclipse/workspace/bldcmotor/Libraries/CMSIS/Include\cmsis_gcc.h ****   #define __COMPILER_BARRIER()                   __ASM volatile("":::"memory")
 118:D:/DAVE IDE/4.5.0.202105191637/eclipse/workspace/bldcmotor/Libraries/CMSIS/Include\cmsis_gcc.h **** #endif
 119:D:/DAVE IDE/4.5.0.202105191637/eclipse/workspace/bldcmotor/Libraries/CMSIS/Include\cmsis_gcc.h **** 
 120:D:/DAVE IDE/4.5.0.202105191637/eclipse/workspace/bldcmotor/Libraries/CMSIS/Include\cmsis_gcc.h **** /* #########################  Startup and Lowlevel Init  ######################## */
 121:D:/DAVE IDE/4.5.0.202105191637/eclipse/workspace/bldcmotor/Libraries/CMSIS/Include\cmsis_gcc.h **** 
 122:D:/DAVE IDE/4.5.0.202105191637/eclipse/workspace/bldcmotor/Libraries/CMSIS/Include\cmsis_gcc.h **** #ifndef __PROGRAM_START
 123:D:/DAVE IDE/4.5.0.202105191637/eclipse/workspace/bldcmotor/Libraries/CMSIS/Include\cmsis_gcc.h **** 
 124:D:/DAVE IDE/4.5.0.202105191637/eclipse/workspace/bldcmotor/Libraries/CMSIS/Include\cmsis_gcc.h **** /**
 125:D:/DAVE IDE/4.5.0.202105191637/eclipse/workspace/bldcmotor/Libraries/CMSIS/Include\cmsis_gcc.h ****   \brief   Initializes data and bss sections
 126:D:/DAVE IDE/4.5.0.202105191637/eclipse/workspace/bldcmotor/Libraries/CMSIS/Include\cmsis_gcc.h ****   \details This default implementations initialized all data and additional bss
 127:D:/DAVE IDE/4.5.0.202105191637/eclipse/workspace/bldcmotor/Libraries/CMSIS/Include\cmsis_gcc.h ****            sections relying on .copy.table and .zero.table specified properly
 128:D:/DAVE IDE/4.5.0.202105191637/eclipse/workspace/bldcmotor/Libraries/CMSIS/Include\cmsis_gcc.h ****            in the used linker script.
 129:D:/DAVE IDE/4.5.0.202105191637/eclipse/workspace/bldcmotor/Libraries/CMSIS/Include\cmsis_gcc.h ****   
 130:D:/DAVE IDE/4.5.0.202105191637/eclipse/workspace/bldcmotor/Libraries/CMSIS/Include\cmsis_gcc.h ****  */
 131:D:/DAVE IDE/4.5.0.202105191637/eclipse/workspace/bldcmotor/Libraries/CMSIS/Include\cmsis_gcc.h **** __STATIC_FORCEINLINE __NO_RETURN void __cmsis_start(void)
 132:D:/DAVE IDE/4.5.0.202105191637/eclipse/workspace/bldcmotor/Libraries/CMSIS/Include\cmsis_gcc.h **** {
 133:D:/DAVE IDE/4.5.0.202105191637/eclipse/workspace/bldcmotor/Libraries/CMSIS/Include\cmsis_gcc.h ****   extern void _start(void) __NO_RETURN;
 134:D:/DAVE IDE/4.5.0.202105191637/eclipse/workspace/bldcmotor/Libraries/CMSIS/Include\cmsis_gcc.h ****   
 135:D:/DAVE IDE/4.5.0.202105191637/eclipse/workspace/bldcmotor/Libraries/CMSIS/Include\cmsis_gcc.h ****   typedef struct {
 136:D:/DAVE IDE/4.5.0.202105191637/eclipse/workspace/bldcmotor/Libraries/CMSIS/Include\cmsis_gcc.h ****     uint32_t const* src;
 137:D:/DAVE IDE/4.5.0.202105191637/eclipse/workspace/bldcmotor/Libraries/CMSIS/Include\cmsis_gcc.h ****     uint32_t* dest;
 138:D:/DAVE IDE/4.5.0.202105191637/eclipse/workspace/bldcmotor/Libraries/CMSIS/Include\cmsis_gcc.h ****     uint32_t  wlen;
 139:D:/DAVE IDE/4.5.0.202105191637/eclipse/workspace/bldcmotor/Libraries/CMSIS/Include\cmsis_gcc.h ****   } __copy_table_t;
 140:D:/DAVE IDE/4.5.0.202105191637/eclipse/workspace/bldcmotor/Libraries/CMSIS/Include\cmsis_gcc.h ****   
 141:D:/DAVE IDE/4.5.0.202105191637/eclipse/workspace/bldcmotor/Libraries/CMSIS/Include\cmsis_gcc.h ****   typedef struct {
 142:D:/DAVE IDE/4.5.0.202105191637/eclipse/workspace/bldcmotor/Libraries/CMSIS/Include\cmsis_gcc.h ****     uint32_t* dest;
 143:D:/DAVE IDE/4.5.0.202105191637/eclipse/workspace/bldcmotor/Libraries/CMSIS/Include\cmsis_gcc.h ****     uint32_t  wlen;
 144:D:/DAVE IDE/4.5.0.202105191637/eclipse/workspace/bldcmotor/Libraries/CMSIS/Include\cmsis_gcc.h ****   } __zero_table_t;
 145:D:/DAVE IDE/4.5.0.202105191637/eclipse/workspace/bldcmotor/Libraries/CMSIS/Include\cmsis_gcc.h ****   
 146:D:/DAVE IDE/4.5.0.202105191637/eclipse/workspace/bldcmotor/Libraries/CMSIS/Include\cmsis_gcc.h ****   extern const __copy_table_t __copy_table_start__;
 147:D:/DAVE IDE/4.5.0.202105191637/eclipse/workspace/bldcmotor/Libraries/CMSIS/Include\cmsis_gcc.h ****   extern const __copy_table_t __copy_table_end__;
 148:D:/DAVE IDE/4.5.0.202105191637/eclipse/workspace/bldcmotor/Libraries/CMSIS/Include\cmsis_gcc.h ****   extern const __zero_table_t __zero_table_start__;
 149:D:/DAVE IDE/4.5.0.202105191637/eclipse/workspace/bldcmotor/Libraries/CMSIS/Include\cmsis_gcc.h ****   extern const __zero_table_t __zero_table_end__;
 150:D:/DAVE IDE/4.5.0.202105191637/eclipse/workspace/bldcmotor/Libraries/CMSIS/Include\cmsis_gcc.h **** 
 151:D:/DAVE IDE/4.5.0.202105191637/eclipse/workspace/bldcmotor/Libraries/CMSIS/Include\cmsis_gcc.h ****   for (__copy_table_t const* pTable = &__copy_table_start__; pTable < &__copy_table_end__; ++pTable
 152:D:/DAVE IDE/4.5.0.202105191637/eclipse/workspace/bldcmotor/Libraries/CMSIS/Include\cmsis_gcc.h ****     for(uint32_t i=0u; i<pTable->wlen; ++i) {
 153:D:/DAVE IDE/4.5.0.202105191637/eclipse/workspace/bldcmotor/Libraries/CMSIS/Include\cmsis_gcc.h ****       pTable->dest[i] = pTable->src[i];
 154:D:/DAVE IDE/4.5.0.202105191637/eclipse/workspace/bldcmotor/Libraries/CMSIS/Include\cmsis_gcc.h ****     }
 155:D:/DAVE IDE/4.5.0.202105191637/eclipse/workspace/bldcmotor/Libraries/CMSIS/Include\cmsis_gcc.h ****   }
 156:D:/DAVE IDE/4.5.0.202105191637/eclipse/workspace/bldcmotor/Libraries/CMSIS/Include\cmsis_gcc.h ****  
 157:D:/DAVE IDE/4.5.0.202105191637/eclipse/workspace/bldcmotor/Libraries/CMSIS/Include\cmsis_gcc.h ****   for (__zero_table_t const* pTable = &__zero_table_start__; pTable < &__zero_table_end__; ++pTable
 158:D:/DAVE IDE/4.5.0.202105191637/eclipse/workspace/bldcmotor/Libraries/CMSIS/Include\cmsis_gcc.h ****     for(uint32_t i=0u; i<pTable->wlen; ++i) {
 159:D:/DAVE IDE/4.5.0.202105191637/eclipse/workspace/bldcmotor/Libraries/CMSIS/Include\cmsis_gcc.h ****       pTable->dest[i] = 0u;
 160:D:/DAVE IDE/4.5.0.202105191637/eclipse/workspace/bldcmotor/Libraries/CMSIS/Include\cmsis_gcc.h ****     }
 161:D:/DAVE IDE/4.5.0.202105191637/eclipse/workspace/bldcmotor/Libraries/CMSIS/Include\cmsis_gcc.h ****   }
 162:D:/DAVE IDE/4.5.0.202105191637/eclipse/workspace/bldcmotor/Libraries/CMSIS/Include\cmsis_gcc.h ****  
 163:D:/DAVE IDE/4.5.0.202105191637/eclipse/workspace/bldcmotor/Libraries/CMSIS/Include\cmsis_gcc.h ****   _start();
 164:D:/DAVE IDE/4.5.0.202105191637/eclipse/workspace/bldcmotor/Libraries/CMSIS/Include\cmsis_gcc.h **** }
 165:D:/DAVE IDE/4.5.0.202105191637/eclipse/workspace/bldcmotor/Libraries/CMSIS/Include\cmsis_gcc.h ****   
 166:D:/DAVE IDE/4.5.0.202105191637/eclipse/workspace/bldcmotor/Libraries/CMSIS/Include\cmsis_gcc.h **** #define __PROGRAM_START           __cmsis_start
 167:D:/DAVE IDE/4.5.0.202105191637/eclipse/workspace/bldcmotor/Libraries/CMSIS/Include\cmsis_gcc.h **** #endif
 168:D:/DAVE IDE/4.5.0.202105191637/eclipse/workspace/bldcmotor/Libraries/CMSIS/Include\cmsis_gcc.h **** 
 169:D:/DAVE IDE/4.5.0.202105191637/eclipse/workspace/bldcmotor/Libraries/CMSIS/Include\cmsis_gcc.h **** #ifndef __INITIAL_SP
 170:D:/DAVE IDE/4.5.0.202105191637/eclipse/workspace/bldcmotor/Libraries/CMSIS/Include\cmsis_gcc.h **** #define __INITIAL_SP              __StackTop
 171:D:/DAVE IDE/4.5.0.202105191637/eclipse/workspace/bldcmotor/Libraries/CMSIS/Include\cmsis_gcc.h **** #endif
 172:D:/DAVE IDE/4.5.0.202105191637/eclipse/workspace/bldcmotor/Libraries/CMSIS/Include\cmsis_gcc.h **** 
 173:D:/DAVE IDE/4.5.0.202105191637/eclipse/workspace/bldcmotor/Libraries/CMSIS/Include\cmsis_gcc.h **** #ifndef __STACK_LIMIT
 174:D:/DAVE IDE/4.5.0.202105191637/eclipse/workspace/bldcmotor/Libraries/CMSIS/Include\cmsis_gcc.h **** #define __STACK_LIMIT             __StackLimit
 175:D:/DAVE IDE/4.5.0.202105191637/eclipse/workspace/bldcmotor/Libraries/CMSIS/Include\cmsis_gcc.h **** #endif
 176:D:/DAVE IDE/4.5.0.202105191637/eclipse/workspace/bldcmotor/Libraries/CMSIS/Include\cmsis_gcc.h **** 
 177:D:/DAVE IDE/4.5.0.202105191637/eclipse/workspace/bldcmotor/Libraries/CMSIS/Include\cmsis_gcc.h **** #ifndef __VECTOR_TABLE
 178:D:/DAVE IDE/4.5.0.202105191637/eclipse/workspace/bldcmotor/Libraries/CMSIS/Include\cmsis_gcc.h **** #define __VECTOR_TABLE            __Vectors
 179:D:/DAVE IDE/4.5.0.202105191637/eclipse/workspace/bldcmotor/Libraries/CMSIS/Include\cmsis_gcc.h **** #endif
 180:D:/DAVE IDE/4.5.0.202105191637/eclipse/workspace/bldcmotor/Libraries/CMSIS/Include\cmsis_gcc.h **** 
 181:D:/DAVE IDE/4.5.0.202105191637/eclipse/workspace/bldcmotor/Libraries/CMSIS/Include\cmsis_gcc.h **** #ifndef __VECTOR_TABLE_ATTRIBUTE
 182:D:/DAVE IDE/4.5.0.202105191637/eclipse/workspace/bldcmotor/Libraries/CMSIS/Include\cmsis_gcc.h **** #define __VECTOR_TABLE_ATTRIBUTE  __attribute__((used, section(".vectors")))
 183:D:/DAVE IDE/4.5.0.202105191637/eclipse/workspace/bldcmotor/Libraries/CMSIS/Include\cmsis_gcc.h **** #endif
 184:D:/DAVE IDE/4.5.0.202105191637/eclipse/workspace/bldcmotor/Libraries/CMSIS/Include\cmsis_gcc.h **** 
 185:D:/DAVE IDE/4.5.0.202105191637/eclipse/workspace/bldcmotor/Libraries/CMSIS/Include\cmsis_gcc.h **** /* ###########################  Core Function Access  ########################### */
 186:D:/DAVE IDE/4.5.0.202105191637/eclipse/workspace/bldcmotor/Libraries/CMSIS/Include\cmsis_gcc.h **** /** \ingroup  CMSIS_Core_FunctionInterface
 187:D:/DAVE IDE/4.5.0.202105191637/eclipse/workspace/bldcmotor/Libraries/CMSIS/Include\cmsis_gcc.h ****     \defgroup CMSIS_Core_RegAccFunctions CMSIS Core Register Access Functions
 188:D:/DAVE IDE/4.5.0.202105191637/eclipse/workspace/bldcmotor/Libraries/CMSIS/Include\cmsis_gcc.h ****   @{
 189:D:/DAVE IDE/4.5.0.202105191637/eclipse/workspace/bldcmotor/Libraries/CMSIS/Include\cmsis_gcc.h ****  */
 190:D:/DAVE IDE/4.5.0.202105191637/eclipse/workspace/bldcmotor/Libraries/CMSIS/Include\cmsis_gcc.h **** 
 191:D:/DAVE IDE/4.5.0.202105191637/eclipse/workspace/bldcmotor/Libraries/CMSIS/Include\cmsis_gcc.h **** /**
 192:D:/DAVE IDE/4.5.0.202105191637/eclipse/workspace/bldcmotor/Libraries/CMSIS/Include\cmsis_gcc.h ****   \brief   Enable IRQ Interrupts
 193:D:/DAVE IDE/4.5.0.202105191637/eclipse/workspace/bldcmotor/Libraries/CMSIS/Include\cmsis_gcc.h ****   \details Enables IRQ interrupts by clearing the I-bit in the CPSR.
 194:D:/DAVE IDE/4.5.0.202105191637/eclipse/workspace/bldcmotor/Libraries/CMSIS/Include\cmsis_gcc.h ****            Can only be executed in Privileged modes.
 195:D:/DAVE IDE/4.5.0.202105191637/eclipse/workspace/bldcmotor/Libraries/CMSIS/Include\cmsis_gcc.h ****  */
 196:D:/DAVE IDE/4.5.0.202105191637/eclipse/workspace/bldcmotor/Libraries/CMSIS/Include\cmsis_gcc.h **** __STATIC_FORCEINLINE void __enable_irq(void)
 197:D:/DAVE IDE/4.5.0.202105191637/eclipse/workspace/bldcmotor/Libraries/CMSIS/Include\cmsis_gcc.h **** {
 198:D:/DAVE IDE/4.5.0.202105191637/eclipse/workspace/bldcmotor/Libraries/CMSIS/Include\cmsis_gcc.h ****   __ASM volatile ("cpsie i" : : : "memory");
 199:D:/DAVE IDE/4.5.0.202105191637/eclipse/workspace/bldcmotor/Libraries/CMSIS/Include\cmsis_gcc.h **** }
 200:D:/DAVE IDE/4.5.0.202105191637/eclipse/workspace/bldcmotor/Libraries/CMSIS/Include\cmsis_gcc.h **** 
 201:D:/DAVE IDE/4.5.0.202105191637/eclipse/workspace/bldcmotor/Libraries/CMSIS/Include\cmsis_gcc.h **** 
 202:D:/DAVE IDE/4.5.0.202105191637/eclipse/workspace/bldcmotor/Libraries/CMSIS/Include\cmsis_gcc.h **** /**
 203:D:/DAVE IDE/4.5.0.202105191637/eclipse/workspace/bldcmotor/Libraries/CMSIS/Include\cmsis_gcc.h ****   \brief   Disable IRQ Interrupts
 204:D:/DAVE IDE/4.5.0.202105191637/eclipse/workspace/bldcmotor/Libraries/CMSIS/Include\cmsis_gcc.h ****   \details Disables IRQ interrupts by setting the I-bit in the CPSR.
 205:D:/DAVE IDE/4.5.0.202105191637/eclipse/workspace/bldcmotor/Libraries/CMSIS/Include\cmsis_gcc.h ****            Can only be executed in Privileged modes.
 206:D:/DAVE IDE/4.5.0.202105191637/eclipse/workspace/bldcmotor/Libraries/CMSIS/Include\cmsis_gcc.h ****  */
 207:D:/DAVE IDE/4.5.0.202105191637/eclipse/workspace/bldcmotor/Libraries/CMSIS/Include\cmsis_gcc.h **** __STATIC_FORCEINLINE void __disable_irq(void)
 208:D:/DAVE IDE/4.5.0.202105191637/eclipse/workspace/bldcmotor/Libraries/CMSIS/Include\cmsis_gcc.h **** {
 209:D:/DAVE IDE/4.5.0.202105191637/eclipse/workspace/bldcmotor/Libraries/CMSIS/Include\cmsis_gcc.h ****   __ASM volatile ("cpsid i" : : : "memory");
 210:D:/DAVE IDE/4.5.0.202105191637/eclipse/workspace/bldcmotor/Libraries/CMSIS/Include\cmsis_gcc.h **** }
 211:D:/DAVE IDE/4.5.0.202105191637/eclipse/workspace/bldcmotor/Libraries/CMSIS/Include\cmsis_gcc.h **** 
 212:D:/DAVE IDE/4.5.0.202105191637/eclipse/workspace/bldcmotor/Libraries/CMSIS/Include\cmsis_gcc.h **** 
 213:D:/DAVE IDE/4.5.0.202105191637/eclipse/workspace/bldcmotor/Libraries/CMSIS/Include\cmsis_gcc.h **** /**
 214:D:/DAVE IDE/4.5.0.202105191637/eclipse/workspace/bldcmotor/Libraries/CMSIS/Include\cmsis_gcc.h ****   \brief   Get Control Register
 215:D:/DAVE IDE/4.5.0.202105191637/eclipse/workspace/bldcmotor/Libraries/CMSIS/Include\cmsis_gcc.h ****   \details Returns the content of the Control Register.
 216:D:/DAVE IDE/4.5.0.202105191637/eclipse/workspace/bldcmotor/Libraries/CMSIS/Include\cmsis_gcc.h ****   \return               Control Register value
 217:D:/DAVE IDE/4.5.0.202105191637/eclipse/workspace/bldcmotor/Libraries/CMSIS/Include\cmsis_gcc.h ****  */
 218:D:/DAVE IDE/4.5.0.202105191637/eclipse/workspace/bldcmotor/Libraries/CMSIS/Include\cmsis_gcc.h **** __STATIC_FORCEINLINE uint32_t __get_CONTROL(void)
 219:D:/DAVE IDE/4.5.0.202105191637/eclipse/workspace/bldcmotor/Libraries/CMSIS/Include\cmsis_gcc.h **** {
 220:D:/DAVE IDE/4.5.0.202105191637/eclipse/workspace/bldcmotor/Libraries/CMSIS/Include\cmsis_gcc.h ****   uint32_t result;
 221:D:/DAVE IDE/4.5.0.202105191637/eclipse/workspace/bldcmotor/Libraries/CMSIS/Include\cmsis_gcc.h **** 
 222:D:/DAVE IDE/4.5.0.202105191637/eclipse/workspace/bldcmotor/Libraries/CMSIS/Include\cmsis_gcc.h ****   __ASM volatile ("MRS %0, control" : "=r" (result) );
 223:D:/DAVE IDE/4.5.0.202105191637/eclipse/workspace/bldcmotor/Libraries/CMSIS/Include\cmsis_gcc.h ****   return(result);
 224:D:/DAVE IDE/4.5.0.202105191637/eclipse/workspace/bldcmotor/Libraries/CMSIS/Include\cmsis_gcc.h **** }
 225:D:/DAVE IDE/4.5.0.202105191637/eclipse/workspace/bldcmotor/Libraries/CMSIS/Include\cmsis_gcc.h **** 
 226:D:/DAVE IDE/4.5.0.202105191637/eclipse/workspace/bldcmotor/Libraries/CMSIS/Include\cmsis_gcc.h **** 
 227:D:/DAVE IDE/4.5.0.202105191637/eclipse/workspace/bldcmotor/Libraries/CMSIS/Include\cmsis_gcc.h **** #if (defined (__ARM_FEATURE_CMSE ) && (__ARM_FEATURE_CMSE == 3))
 228:D:/DAVE IDE/4.5.0.202105191637/eclipse/workspace/bldcmotor/Libraries/CMSIS/Include\cmsis_gcc.h **** /**
 229:D:/DAVE IDE/4.5.0.202105191637/eclipse/workspace/bldcmotor/Libraries/CMSIS/Include\cmsis_gcc.h ****   \brief   Get Control Register (non-secure)
 230:D:/DAVE IDE/4.5.0.202105191637/eclipse/workspace/bldcmotor/Libraries/CMSIS/Include\cmsis_gcc.h ****   \details Returns the content of the non-secure Control Register when in secure mode.
 231:D:/DAVE IDE/4.5.0.202105191637/eclipse/workspace/bldcmotor/Libraries/CMSIS/Include\cmsis_gcc.h ****   \return               non-secure Control Register value
 232:D:/DAVE IDE/4.5.0.202105191637/eclipse/workspace/bldcmotor/Libraries/CMSIS/Include\cmsis_gcc.h ****  */
 233:D:/DAVE IDE/4.5.0.202105191637/eclipse/workspace/bldcmotor/Libraries/CMSIS/Include\cmsis_gcc.h **** __STATIC_FORCEINLINE uint32_t __TZ_get_CONTROL_NS(void)
 234:D:/DAVE IDE/4.5.0.202105191637/eclipse/workspace/bldcmotor/Libraries/CMSIS/Include\cmsis_gcc.h **** {
 235:D:/DAVE IDE/4.5.0.202105191637/eclipse/workspace/bldcmotor/Libraries/CMSIS/Include\cmsis_gcc.h ****   uint32_t result;
 236:D:/DAVE IDE/4.5.0.202105191637/eclipse/workspace/bldcmotor/Libraries/CMSIS/Include\cmsis_gcc.h **** 
 237:D:/DAVE IDE/4.5.0.202105191637/eclipse/workspace/bldcmotor/Libraries/CMSIS/Include\cmsis_gcc.h ****   __ASM volatile ("MRS %0, control_ns" : "=r" (result) );
 238:D:/DAVE IDE/4.5.0.202105191637/eclipse/workspace/bldcmotor/Libraries/CMSIS/Include\cmsis_gcc.h ****   return(result);
 239:D:/DAVE IDE/4.5.0.202105191637/eclipse/workspace/bldcmotor/Libraries/CMSIS/Include\cmsis_gcc.h **** }
 240:D:/DAVE IDE/4.5.0.202105191637/eclipse/workspace/bldcmotor/Libraries/CMSIS/Include\cmsis_gcc.h **** #endif
 241:D:/DAVE IDE/4.5.0.202105191637/eclipse/workspace/bldcmotor/Libraries/CMSIS/Include\cmsis_gcc.h **** 
 242:D:/DAVE IDE/4.5.0.202105191637/eclipse/workspace/bldcmotor/Libraries/CMSIS/Include\cmsis_gcc.h **** 
 243:D:/DAVE IDE/4.5.0.202105191637/eclipse/workspace/bldcmotor/Libraries/CMSIS/Include\cmsis_gcc.h **** /**
 244:D:/DAVE IDE/4.5.0.202105191637/eclipse/workspace/bldcmotor/Libraries/CMSIS/Include\cmsis_gcc.h ****   \brief   Set Control Register
 245:D:/DAVE IDE/4.5.0.202105191637/eclipse/workspace/bldcmotor/Libraries/CMSIS/Include\cmsis_gcc.h ****   \details Writes the given value to the Control Register.
 246:D:/DAVE IDE/4.5.0.202105191637/eclipse/workspace/bldcmotor/Libraries/CMSIS/Include\cmsis_gcc.h ****   \param [in]    control  Control Register value to set
 247:D:/DAVE IDE/4.5.0.202105191637/eclipse/workspace/bldcmotor/Libraries/CMSIS/Include\cmsis_gcc.h ****  */
 248:D:/DAVE IDE/4.5.0.202105191637/eclipse/workspace/bldcmotor/Libraries/CMSIS/Include\cmsis_gcc.h **** __STATIC_FORCEINLINE void __set_CONTROL(uint32_t control)
 249:D:/DAVE IDE/4.5.0.202105191637/eclipse/workspace/bldcmotor/Libraries/CMSIS/Include\cmsis_gcc.h **** {
 250:D:/DAVE IDE/4.5.0.202105191637/eclipse/workspace/bldcmotor/Libraries/CMSIS/Include\cmsis_gcc.h ****   __ASM volatile ("MSR control, %0" : : "r" (control) : "memory");
 251:D:/DAVE IDE/4.5.0.202105191637/eclipse/workspace/bldcmotor/Libraries/CMSIS/Include\cmsis_gcc.h **** }
 252:D:/DAVE IDE/4.5.0.202105191637/eclipse/workspace/bldcmotor/Libraries/CMSIS/Include\cmsis_gcc.h **** 
 253:D:/DAVE IDE/4.5.0.202105191637/eclipse/workspace/bldcmotor/Libraries/CMSIS/Include\cmsis_gcc.h **** 
 254:D:/DAVE IDE/4.5.0.202105191637/eclipse/workspace/bldcmotor/Libraries/CMSIS/Include\cmsis_gcc.h **** #if (defined (__ARM_FEATURE_CMSE ) && (__ARM_FEATURE_CMSE == 3))
 255:D:/DAVE IDE/4.5.0.202105191637/eclipse/workspace/bldcmotor/Libraries/CMSIS/Include\cmsis_gcc.h **** /**
 256:D:/DAVE IDE/4.5.0.202105191637/eclipse/workspace/bldcmotor/Libraries/CMSIS/Include\cmsis_gcc.h ****   \brief   Set Control Register (non-secure)
 257:D:/DAVE IDE/4.5.0.202105191637/eclipse/workspace/bldcmotor/Libraries/CMSIS/Include\cmsis_gcc.h ****   \details Writes the given value to the non-secure Control Register when in secure state.
 258:D:/DAVE IDE/4.5.0.202105191637/eclipse/workspace/bldcmotor/Libraries/CMSIS/Include\cmsis_gcc.h ****   \param [in]    control  Control Register value to set
 259:D:/DAVE IDE/4.5.0.202105191637/eclipse/workspace/bldcmotor/Libraries/CMSIS/Include\cmsis_gcc.h ****  */
 260:D:/DAVE IDE/4.5.0.202105191637/eclipse/workspace/bldcmotor/Libraries/CMSIS/Include\cmsis_gcc.h **** __STATIC_FORCEINLINE void __TZ_set_CONTROL_NS(uint32_t control)
 261:D:/DAVE IDE/4.5.0.202105191637/eclipse/workspace/bldcmotor/Libraries/CMSIS/Include\cmsis_gcc.h **** {
 262:D:/DAVE IDE/4.5.0.202105191637/eclipse/workspace/bldcmotor/Libraries/CMSIS/Include\cmsis_gcc.h ****   __ASM volatile ("MSR control_ns, %0" : : "r" (control) : "memory");
 263:D:/DAVE IDE/4.5.0.202105191637/eclipse/workspace/bldcmotor/Libraries/CMSIS/Include\cmsis_gcc.h **** }
 264:D:/DAVE IDE/4.5.0.202105191637/eclipse/workspace/bldcmotor/Libraries/CMSIS/Include\cmsis_gcc.h **** #endif
 265:D:/DAVE IDE/4.5.0.202105191637/eclipse/workspace/bldcmotor/Libraries/CMSIS/Include\cmsis_gcc.h **** 
 266:D:/DAVE IDE/4.5.0.202105191637/eclipse/workspace/bldcmotor/Libraries/CMSIS/Include\cmsis_gcc.h **** 
 267:D:/DAVE IDE/4.5.0.202105191637/eclipse/workspace/bldcmotor/Libraries/CMSIS/Include\cmsis_gcc.h **** /**
 268:D:/DAVE IDE/4.5.0.202105191637/eclipse/workspace/bldcmotor/Libraries/CMSIS/Include\cmsis_gcc.h ****   \brief   Get IPSR Register
 269:D:/DAVE IDE/4.5.0.202105191637/eclipse/workspace/bldcmotor/Libraries/CMSIS/Include\cmsis_gcc.h ****   \details Returns the content of the IPSR Register.
 270:D:/DAVE IDE/4.5.0.202105191637/eclipse/workspace/bldcmotor/Libraries/CMSIS/Include\cmsis_gcc.h ****   \return               IPSR Register value
 271:D:/DAVE IDE/4.5.0.202105191637/eclipse/workspace/bldcmotor/Libraries/CMSIS/Include\cmsis_gcc.h ****  */
 272:D:/DAVE IDE/4.5.0.202105191637/eclipse/workspace/bldcmotor/Libraries/CMSIS/Include\cmsis_gcc.h **** __STATIC_FORCEINLINE uint32_t __get_IPSR(void)
 273:D:/DAVE IDE/4.5.0.202105191637/eclipse/workspace/bldcmotor/Libraries/CMSIS/Include\cmsis_gcc.h **** {
 274:D:/DAVE IDE/4.5.0.202105191637/eclipse/workspace/bldcmotor/Libraries/CMSIS/Include\cmsis_gcc.h ****   uint32_t result;
 275:D:/DAVE IDE/4.5.0.202105191637/eclipse/workspace/bldcmotor/Libraries/CMSIS/Include\cmsis_gcc.h **** 
 276:D:/DAVE IDE/4.5.0.202105191637/eclipse/workspace/bldcmotor/Libraries/CMSIS/Include\cmsis_gcc.h ****   __ASM volatile ("MRS %0, ipsr" : "=r" (result) );
 277:D:/DAVE IDE/4.5.0.202105191637/eclipse/workspace/bldcmotor/Libraries/CMSIS/Include\cmsis_gcc.h ****   return(result);
 278:D:/DAVE IDE/4.5.0.202105191637/eclipse/workspace/bldcmotor/Libraries/CMSIS/Include\cmsis_gcc.h **** }
 279:D:/DAVE IDE/4.5.0.202105191637/eclipse/workspace/bldcmotor/Libraries/CMSIS/Include\cmsis_gcc.h **** 
 280:D:/DAVE IDE/4.5.0.202105191637/eclipse/workspace/bldcmotor/Libraries/CMSIS/Include\cmsis_gcc.h **** 
 281:D:/DAVE IDE/4.5.0.202105191637/eclipse/workspace/bldcmotor/Libraries/CMSIS/Include\cmsis_gcc.h **** /**
 282:D:/DAVE IDE/4.5.0.202105191637/eclipse/workspace/bldcmotor/Libraries/CMSIS/Include\cmsis_gcc.h ****   \brief   Get APSR Register
 283:D:/DAVE IDE/4.5.0.202105191637/eclipse/workspace/bldcmotor/Libraries/CMSIS/Include\cmsis_gcc.h ****   \details Returns the content of the APSR Register.
 284:D:/DAVE IDE/4.5.0.202105191637/eclipse/workspace/bldcmotor/Libraries/CMSIS/Include\cmsis_gcc.h ****   \return               APSR Register value
 285:D:/DAVE IDE/4.5.0.202105191637/eclipse/workspace/bldcmotor/Libraries/CMSIS/Include\cmsis_gcc.h ****  */
 286:D:/DAVE IDE/4.5.0.202105191637/eclipse/workspace/bldcmotor/Libraries/CMSIS/Include\cmsis_gcc.h **** __STATIC_FORCEINLINE uint32_t __get_APSR(void)
 287:D:/DAVE IDE/4.5.0.202105191637/eclipse/workspace/bldcmotor/Libraries/CMSIS/Include\cmsis_gcc.h **** {
 288:D:/DAVE IDE/4.5.0.202105191637/eclipse/workspace/bldcmotor/Libraries/CMSIS/Include\cmsis_gcc.h ****   uint32_t result;
 289:D:/DAVE IDE/4.5.0.202105191637/eclipse/workspace/bldcmotor/Libraries/CMSIS/Include\cmsis_gcc.h **** 
 290:D:/DAVE IDE/4.5.0.202105191637/eclipse/workspace/bldcmotor/Libraries/CMSIS/Include\cmsis_gcc.h ****   __ASM volatile ("MRS %0, apsr" : "=r" (result) );
 291:D:/DAVE IDE/4.5.0.202105191637/eclipse/workspace/bldcmotor/Libraries/CMSIS/Include\cmsis_gcc.h ****   return(result);
 292:D:/DAVE IDE/4.5.0.202105191637/eclipse/workspace/bldcmotor/Libraries/CMSIS/Include\cmsis_gcc.h **** }
 293:D:/DAVE IDE/4.5.0.202105191637/eclipse/workspace/bldcmotor/Libraries/CMSIS/Include\cmsis_gcc.h **** 
 294:D:/DAVE IDE/4.5.0.202105191637/eclipse/workspace/bldcmotor/Libraries/CMSIS/Include\cmsis_gcc.h **** 
 295:D:/DAVE IDE/4.5.0.202105191637/eclipse/workspace/bldcmotor/Libraries/CMSIS/Include\cmsis_gcc.h **** /**
 296:D:/DAVE IDE/4.5.0.202105191637/eclipse/workspace/bldcmotor/Libraries/CMSIS/Include\cmsis_gcc.h ****   \brief   Get xPSR Register
 297:D:/DAVE IDE/4.5.0.202105191637/eclipse/workspace/bldcmotor/Libraries/CMSIS/Include\cmsis_gcc.h ****   \details Returns the content of the xPSR Register.
 298:D:/DAVE IDE/4.5.0.202105191637/eclipse/workspace/bldcmotor/Libraries/CMSIS/Include\cmsis_gcc.h ****   \return               xPSR Register value
 299:D:/DAVE IDE/4.5.0.202105191637/eclipse/workspace/bldcmotor/Libraries/CMSIS/Include\cmsis_gcc.h ****  */
 300:D:/DAVE IDE/4.5.0.202105191637/eclipse/workspace/bldcmotor/Libraries/CMSIS/Include\cmsis_gcc.h **** __STATIC_FORCEINLINE uint32_t __get_xPSR(void)
 301:D:/DAVE IDE/4.5.0.202105191637/eclipse/workspace/bldcmotor/Libraries/CMSIS/Include\cmsis_gcc.h **** {
 302:D:/DAVE IDE/4.5.0.202105191637/eclipse/workspace/bldcmotor/Libraries/CMSIS/Include\cmsis_gcc.h ****   uint32_t result;
 303:D:/DAVE IDE/4.5.0.202105191637/eclipse/workspace/bldcmotor/Libraries/CMSIS/Include\cmsis_gcc.h **** 
 304:D:/DAVE IDE/4.5.0.202105191637/eclipse/workspace/bldcmotor/Libraries/CMSIS/Include\cmsis_gcc.h ****   __ASM volatile ("MRS %0, xpsr" : "=r" (result) );
 305:D:/DAVE IDE/4.5.0.202105191637/eclipse/workspace/bldcmotor/Libraries/CMSIS/Include\cmsis_gcc.h ****   return(result);
 306:D:/DAVE IDE/4.5.0.202105191637/eclipse/workspace/bldcmotor/Libraries/CMSIS/Include\cmsis_gcc.h **** }
 307:D:/DAVE IDE/4.5.0.202105191637/eclipse/workspace/bldcmotor/Libraries/CMSIS/Include\cmsis_gcc.h **** 
 308:D:/DAVE IDE/4.5.0.202105191637/eclipse/workspace/bldcmotor/Libraries/CMSIS/Include\cmsis_gcc.h **** 
 309:D:/DAVE IDE/4.5.0.202105191637/eclipse/workspace/bldcmotor/Libraries/CMSIS/Include\cmsis_gcc.h **** /**
 310:D:/DAVE IDE/4.5.0.202105191637/eclipse/workspace/bldcmotor/Libraries/CMSIS/Include\cmsis_gcc.h ****   \brief   Get Process Stack Pointer
 311:D:/DAVE IDE/4.5.0.202105191637/eclipse/workspace/bldcmotor/Libraries/CMSIS/Include\cmsis_gcc.h ****   \details Returns the current value of the Process Stack Pointer (PSP).
 312:D:/DAVE IDE/4.5.0.202105191637/eclipse/workspace/bldcmotor/Libraries/CMSIS/Include\cmsis_gcc.h ****   \return               PSP Register value
 313:D:/DAVE IDE/4.5.0.202105191637/eclipse/workspace/bldcmotor/Libraries/CMSIS/Include\cmsis_gcc.h ****  */
 314:D:/DAVE IDE/4.5.0.202105191637/eclipse/workspace/bldcmotor/Libraries/CMSIS/Include\cmsis_gcc.h **** __STATIC_FORCEINLINE uint32_t __get_PSP(void)
 315:D:/DAVE IDE/4.5.0.202105191637/eclipse/workspace/bldcmotor/Libraries/CMSIS/Include\cmsis_gcc.h **** {
 316:D:/DAVE IDE/4.5.0.202105191637/eclipse/workspace/bldcmotor/Libraries/CMSIS/Include\cmsis_gcc.h ****   uint32_t result;
 317:D:/DAVE IDE/4.5.0.202105191637/eclipse/workspace/bldcmotor/Libraries/CMSIS/Include\cmsis_gcc.h **** 
 318:D:/DAVE IDE/4.5.0.202105191637/eclipse/workspace/bldcmotor/Libraries/CMSIS/Include\cmsis_gcc.h ****   __ASM volatile ("MRS %0, psp"  : "=r" (result) );
 319:D:/DAVE IDE/4.5.0.202105191637/eclipse/workspace/bldcmotor/Libraries/CMSIS/Include\cmsis_gcc.h ****   return(result);
 320:D:/DAVE IDE/4.5.0.202105191637/eclipse/workspace/bldcmotor/Libraries/CMSIS/Include\cmsis_gcc.h **** }
 321:D:/DAVE IDE/4.5.0.202105191637/eclipse/workspace/bldcmotor/Libraries/CMSIS/Include\cmsis_gcc.h **** 
 322:D:/DAVE IDE/4.5.0.202105191637/eclipse/workspace/bldcmotor/Libraries/CMSIS/Include\cmsis_gcc.h **** 
 323:D:/DAVE IDE/4.5.0.202105191637/eclipse/workspace/bldcmotor/Libraries/CMSIS/Include\cmsis_gcc.h **** #if (defined (__ARM_FEATURE_CMSE ) && (__ARM_FEATURE_CMSE == 3))
 324:D:/DAVE IDE/4.5.0.202105191637/eclipse/workspace/bldcmotor/Libraries/CMSIS/Include\cmsis_gcc.h **** /**
 325:D:/DAVE IDE/4.5.0.202105191637/eclipse/workspace/bldcmotor/Libraries/CMSIS/Include\cmsis_gcc.h ****   \brief   Get Process Stack Pointer (non-secure)
 326:D:/DAVE IDE/4.5.0.202105191637/eclipse/workspace/bldcmotor/Libraries/CMSIS/Include\cmsis_gcc.h ****   \details Returns the current value of the non-secure Process Stack Pointer (PSP) when in secure s
 327:D:/DAVE IDE/4.5.0.202105191637/eclipse/workspace/bldcmotor/Libraries/CMSIS/Include\cmsis_gcc.h ****   \return               PSP Register value
 328:D:/DAVE IDE/4.5.0.202105191637/eclipse/workspace/bldcmotor/Libraries/CMSIS/Include\cmsis_gcc.h ****  */
 329:D:/DAVE IDE/4.5.0.202105191637/eclipse/workspace/bldcmotor/Libraries/CMSIS/Include\cmsis_gcc.h **** __STATIC_FORCEINLINE uint32_t __TZ_get_PSP_NS(void)
 330:D:/DAVE IDE/4.5.0.202105191637/eclipse/workspace/bldcmotor/Libraries/CMSIS/Include\cmsis_gcc.h **** {
 331:D:/DAVE IDE/4.5.0.202105191637/eclipse/workspace/bldcmotor/Libraries/CMSIS/Include\cmsis_gcc.h ****   uint32_t result;
 332:D:/DAVE IDE/4.5.0.202105191637/eclipse/workspace/bldcmotor/Libraries/CMSIS/Include\cmsis_gcc.h **** 
 333:D:/DAVE IDE/4.5.0.202105191637/eclipse/workspace/bldcmotor/Libraries/CMSIS/Include\cmsis_gcc.h ****   __ASM volatile ("MRS %0, psp_ns"  : "=r" (result) );
 334:D:/DAVE IDE/4.5.0.202105191637/eclipse/workspace/bldcmotor/Libraries/CMSIS/Include\cmsis_gcc.h ****   return(result);
 335:D:/DAVE IDE/4.5.0.202105191637/eclipse/workspace/bldcmotor/Libraries/CMSIS/Include\cmsis_gcc.h **** }
 336:D:/DAVE IDE/4.5.0.202105191637/eclipse/workspace/bldcmotor/Libraries/CMSIS/Include\cmsis_gcc.h **** #endif
 337:D:/DAVE IDE/4.5.0.202105191637/eclipse/workspace/bldcmotor/Libraries/CMSIS/Include\cmsis_gcc.h **** 
 338:D:/DAVE IDE/4.5.0.202105191637/eclipse/workspace/bldcmotor/Libraries/CMSIS/Include\cmsis_gcc.h **** 
 339:D:/DAVE IDE/4.5.0.202105191637/eclipse/workspace/bldcmotor/Libraries/CMSIS/Include\cmsis_gcc.h **** /**
 340:D:/DAVE IDE/4.5.0.202105191637/eclipse/workspace/bldcmotor/Libraries/CMSIS/Include\cmsis_gcc.h ****   \brief   Set Process Stack Pointer
 341:D:/DAVE IDE/4.5.0.202105191637/eclipse/workspace/bldcmotor/Libraries/CMSIS/Include\cmsis_gcc.h ****   \details Assigns the given value to the Process Stack Pointer (PSP).
 342:D:/DAVE IDE/4.5.0.202105191637/eclipse/workspace/bldcmotor/Libraries/CMSIS/Include\cmsis_gcc.h ****   \param [in]    topOfProcStack  Process Stack Pointer value to set
 343:D:/DAVE IDE/4.5.0.202105191637/eclipse/workspace/bldcmotor/Libraries/CMSIS/Include\cmsis_gcc.h ****  */
 344:D:/DAVE IDE/4.5.0.202105191637/eclipse/workspace/bldcmotor/Libraries/CMSIS/Include\cmsis_gcc.h **** __STATIC_FORCEINLINE void __set_PSP(uint32_t topOfProcStack)
 345:D:/DAVE IDE/4.5.0.202105191637/eclipse/workspace/bldcmotor/Libraries/CMSIS/Include\cmsis_gcc.h **** {
 346:D:/DAVE IDE/4.5.0.202105191637/eclipse/workspace/bldcmotor/Libraries/CMSIS/Include\cmsis_gcc.h ****   __ASM volatile ("MSR psp, %0" : : "r" (topOfProcStack) : );
 347:D:/DAVE IDE/4.5.0.202105191637/eclipse/workspace/bldcmotor/Libraries/CMSIS/Include\cmsis_gcc.h **** }
 348:D:/DAVE IDE/4.5.0.202105191637/eclipse/workspace/bldcmotor/Libraries/CMSIS/Include\cmsis_gcc.h **** 
 349:D:/DAVE IDE/4.5.0.202105191637/eclipse/workspace/bldcmotor/Libraries/CMSIS/Include\cmsis_gcc.h **** 
 350:D:/DAVE IDE/4.5.0.202105191637/eclipse/workspace/bldcmotor/Libraries/CMSIS/Include\cmsis_gcc.h **** #if (defined (__ARM_FEATURE_CMSE ) && (__ARM_FEATURE_CMSE == 3))
 351:D:/DAVE IDE/4.5.0.202105191637/eclipse/workspace/bldcmotor/Libraries/CMSIS/Include\cmsis_gcc.h **** /**
 352:D:/DAVE IDE/4.5.0.202105191637/eclipse/workspace/bldcmotor/Libraries/CMSIS/Include\cmsis_gcc.h ****   \brief   Set Process Stack Pointer (non-secure)
 353:D:/DAVE IDE/4.5.0.202105191637/eclipse/workspace/bldcmotor/Libraries/CMSIS/Include\cmsis_gcc.h ****   \details Assigns the given value to the non-secure Process Stack Pointer (PSP) when in secure sta
 354:D:/DAVE IDE/4.5.0.202105191637/eclipse/workspace/bldcmotor/Libraries/CMSIS/Include\cmsis_gcc.h ****   \param [in]    topOfProcStack  Process Stack Pointer value to set
 355:D:/DAVE IDE/4.5.0.202105191637/eclipse/workspace/bldcmotor/Libraries/CMSIS/Include\cmsis_gcc.h ****  */
 356:D:/DAVE IDE/4.5.0.202105191637/eclipse/workspace/bldcmotor/Libraries/CMSIS/Include\cmsis_gcc.h **** __STATIC_FORCEINLINE void __TZ_set_PSP_NS(uint32_t topOfProcStack)
 357:D:/DAVE IDE/4.5.0.202105191637/eclipse/workspace/bldcmotor/Libraries/CMSIS/Include\cmsis_gcc.h **** {
 358:D:/DAVE IDE/4.5.0.202105191637/eclipse/workspace/bldcmotor/Libraries/CMSIS/Include\cmsis_gcc.h ****   __ASM volatile ("MSR psp_ns, %0" : : "r" (topOfProcStack) : );
 359:D:/DAVE IDE/4.5.0.202105191637/eclipse/workspace/bldcmotor/Libraries/CMSIS/Include\cmsis_gcc.h **** }
 360:D:/DAVE IDE/4.5.0.202105191637/eclipse/workspace/bldcmotor/Libraries/CMSIS/Include\cmsis_gcc.h **** #endif
 361:D:/DAVE IDE/4.5.0.202105191637/eclipse/workspace/bldcmotor/Libraries/CMSIS/Include\cmsis_gcc.h **** 
 362:D:/DAVE IDE/4.5.0.202105191637/eclipse/workspace/bldcmotor/Libraries/CMSIS/Include\cmsis_gcc.h **** 
 363:D:/DAVE IDE/4.5.0.202105191637/eclipse/workspace/bldcmotor/Libraries/CMSIS/Include\cmsis_gcc.h **** /**
 364:D:/DAVE IDE/4.5.0.202105191637/eclipse/workspace/bldcmotor/Libraries/CMSIS/Include\cmsis_gcc.h ****   \brief   Get Main Stack Pointer
 365:D:/DAVE IDE/4.5.0.202105191637/eclipse/workspace/bldcmotor/Libraries/CMSIS/Include\cmsis_gcc.h ****   \details Returns the current value of the Main Stack Pointer (MSP).
 366:D:/DAVE IDE/4.5.0.202105191637/eclipse/workspace/bldcmotor/Libraries/CMSIS/Include\cmsis_gcc.h ****   \return               MSP Register value
 367:D:/DAVE IDE/4.5.0.202105191637/eclipse/workspace/bldcmotor/Libraries/CMSIS/Include\cmsis_gcc.h ****  */
 368:D:/DAVE IDE/4.5.0.202105191637/eclipse/workspace/bldcmotor/Libraries/CMSIS/Include\cmsis_gcc.h **** __STATIC_FORCEINLINE uint32_t __get_MSP(void)
 369:D:/DAVE IDE/4.5.0.202105191637/eclipse/workspace/bldcmotor/Libraries/CMSIS/Include\cmsis_gcc.h **** {
 370:D:/DAVE IDE/4.5.0.202105191637/eclipse/workspace/bldcmotor/Libraries/CMSIS/Include\cmsis_gcc.h ****   uint32_t result;
 371:D:/DAVE IDE/4.5.0.202105191637/eclipse/workspace/bldcmotor/Libraries/CMSIS/Include\cmsis_gcc.h **** 
 372:D:/DAVE IDE/4.5.0.202105191637/eclipse/workspace/bldcmotor/Libraries/CMSIS/Include\cmsis_gcc.h ****   __ASM volatile ("MRS %0, msp" : "=r" (result) );
 373:D:/DAVE IDE/4.5.0.202105191637/eclipse/workspace/bldcmotor/Libraries/CMSIS/Include\cmsis_gcc.h ****   return(result);
 374:D:/DAVE IDE/4.5.0.202105191637/eclipse/workspace/bldcmotor/Libraries/CMSIS/Include\cmsis_gcc.h **** }
 375:D:/DAVE IDE/4.5.0.202105191637/eclipse/workspace/bldcmotor/Libraries/CMSIS/Include\cmsis_gcc.h **** 
 376:D:/DAVE IDE/4.5.0.202105191637/eclipse/workspace/bldcmotor/Libraries/CMSIS/Include\cmsis_gcc.h **** 
 377:D:/DAVE IDE/4.5.0.202105191637/eclipse/workspace/bldcmotor/Libraries/CMSIS/Include\cmsis_gcc.h **** #if (defined (__ARM_FEATURE_CMSE ) && (__ARM_FEATURE_CMSE == 3))
 378:D:/DAVE IDE/4.5.0.202105191637/eclipse/workspace/bldcmotor/Libraries/CMSIS/Include\cmsis_gcc.h **** /**
 379:D:/DAVE IDE/4.5.0.202105191637/eclipse/workspace/bldcmotor/Libraries/CMSIS/Include\cmsis_gcc.h ****   \brief   Get Main Stack Pointer (non-secure)
 380:D:/DAVE IDE/4.5.0.202105191637/eclipse/workspace/bldcmotor/Libraries/CMSIS/Include\cmsis_gcc.h ****   \details Returns the current value of the non-secure Main Stack Pointer (MSP) when in secure stat
 381:D:/DAVE IDE/4.5.0.202105191637/eclipse/workspace/bldcmotor/Libraries/CMSIS/Include\cmsis_gcc.h ****   \return               MSP Register value
 382:D:/DAVE IDE/4.5.0.202105191637/eclipse/workspace/bldcmotor/Libraries/CMSIS/Include\cmsis_gcc.h ****  */
 383:D:/DAVE IDE/4.5.0.202105191637/eclipse/workspace/bldcmotor/Libraries/CMSIS/Include\cmsis_gcc.h **** __STATIC_FORCEINLINE uint32_t __TZ_get_MSP_NS(void)
 384:D:/DAVE IDE/4.5.0.202105191637/eclipse/workspace/bldcmotor/Libraries/CMSIS/Include\cmsis_gcc.h **** {
 385:D:/DAVE IDE/4.5.0.202105191637/eclipse/workspace/bldcmotor/Libraries/CMSIS/Include\cmsis_gcc.h ****   uint32_t result;
 386:D:/DAVE IDE/4.5.0.202105191637/eclipse/workspace/bldcmotor/Libraries/CMSIS/Include\cmsis_gcc.h **** 
 387:D:/DAVE IDE/4.5.0.202105191637/eclipse/workspace/bldcmotor/Libraries/CMSIS/Include\cmsis_gcc.h ****   __ASM volatile ("MRS %0, msp_ns" : "=r" (result) );
 388:D:/DAVE IDE/4.5.0.202105191637/eclipse/workspace/bldcmotor/Libraries/CMSIS/Include\cmsis_gcc.h ****   return(result);
 389:D:/DAVE IDE/4.5.0.202105191637/eclipse/workspace/bldcmotor/Libraries/CMSIS/Include\cmsis_gcc.h **** }
 390:D:/DAVE IDE/4.5.0.202105191637/eclipse/workspace/bldcmotor/Libraries/CMSIS/Include\cmsis_gcc.h **** #endif
 391:D:/DAVE IDE/4.5.0.202105191637/eclipse/workspace/bldcmotor/Libraries/CMSIS/Include\cmsis_gcc.h **** 
 392:D:/DAVE IDE/4.5.0.202105191637/eclipse/workspace/bldcmotor/Libraries/CMSIS/Include\cmsis_gcc.h **** 
 393:D:/DAVE IDE/4.5.0.202105191637/eclipse/workspace/bldcmotor/Libraries/CMSIS/Include\cmsis_gcc.h **** /**
 394:D:/DAVE IDE/4.5.0.202105191637/eclipse/workspace/bldcmotor/Libraries/CMSIS/Include\cmsis_gcc.h ****   \brief   Set Main Stack Pointer
 395:D:/DAVE IDE/4.5.0.202105191637/eclipse/workspace/bldcmotor/Libraries/CMSIS/Include\cmsis_gcc.h ****   \details Assigns the given value to the Main Stack Pointer (MSP).
 396:D:/DAVE IDE/4.5.0.202105191637/eclipse/workspace/bldcmotor/Libraries/CMSIS/Include\cmsis_gcc.h ****   \param [in]    topOfMainStack  Main Stack Pointer value to set
 397:D:/DAVE IDE/4.5.0.202105191637/eclipse/workspace/bldcmotor/Libraries/CMSIS/Include\cmsis_gcc.h ****  */
 398:D:/DAVE IDE/4.5.0.202105191637/eclipse/workspace/bldcmotor/Libraries/CMSIS/Include\cmsis_gcc.h **** __STATIC_FORCEINLINE void __set_MSP(uint32_t topOfMainStack)
 399:D:/DAVE IDE/4.5.0.202105191637/eclipse/workspace/bldcmotor/Libraries/CMSIS/Include\cmsis_gcc.h **** {
 400:D:/DAVE IDE/4.5.0.202105191637/eclipse/workspace/bldcmotor/Libraries/CMSIS/Include\cmsis_gcc.h ****   __ASM volatile ("MSR msp, %0" : : "r" (topOfMainStack) : );
 401:D:/DAVE IDE/4.5.0.202105191637/eclipse/workspace/bldcmotor/Libraries/CMSIS/Include\cmsis_gcc.h **** }
 402:D:/DAVE IDE/4.5.0.202105191637/eclipse/workspace/bldcmotor/Libraries/CMSIS/Include\cmsis_gcc.h **** 
 403:D:/DAVE IDE/4.5.0.202105191637/eclipse/workspace/bldcmotor/Libraries/CMSIS/Include\cmsis_gcc.h **** 
 404:D:/DAVE IDE/4.5.0.202105191637/eclipse/workspace/bldcmotor/Libraries/CMSIS/Include\cmsis_gcc.h **** #if (defined (__ARM_FEATURE_CMSE ) && (__ARM_FEATURE_CMSE == 3))
 405:D:/DAVE IDE/4.5.0.202105191637/eclipse/workspace/bldcmotor/Libraries/CMSIS/Include\cmsis_gcc.h **** /**
 406:D:/DAVE IDE/4.5.0.202105191637/eclipse/workspace/bldcmotor/Libraries/CMSIS/Include\cmsis_gcc.h ****   \brief   Set Main Stack Pointer (non-secure)
 407:D:/DAVE IDE/4.5.0.202105191637/eclipse/workspace/bldcmotor/Libraries/CMSIS/Include\cmsis_gcc.h ****   \details Assigns the given value to the non-secure Main Stack Pointer (MSP) when in secure state.
 408:D:/DAVE IDE/4.5.0.202105191637/eclipse/workspace/bldcmotor/Libraries/CMSIS/Include\cmsis_gcc.h ****   \param [in]    topOfMainStack  Main Stack Pointer value to set
 409:D:/DAVE IDE/4.5.0.202105191637/eclipse/workspace/bldcmotor/Libraries/CMSIS/Include\cmsis_gcc.h ****  */
 410:D:/DAVE IDE/4.5.0.202105191637/eclipse/workspace/bldcmotor/Libraries/CMSIS/Include\cmsis_gcc.h **** __STATIC_FORCEINLINE void __TZ_set_MSP_NS(uint32_t topOfMainStack)
 411:D:/DAVE IDE/4.5.0.202105191637/eclipse/workspace/bldcmotor/Libraries/CMSIS/Include\cmsis_gcc.h **** {
 412:D:/DAVE IDE/4.5.0.202105191637/eclipse/workspace/bldcmotor/Libraries/CMSIS/Include\cmsis_gcc.h ****   __ASM volatile ("MSR msp_ns, %0" : : "r" (topOfMainStack) : );
 413:D:/DAVE IDE/4.5.0.202105191637/eclipse/workspace/bldcmotor/Libraries/CMSIS/Include\cmsis_gcc.h **** }
 414:D:/DAVE IDE/4.5.0.202105191637/eclipse/workspace/bldcmotor/Libraries/CMSIS/Include\cmsis_gcc.h **** #endif
 415:D:/DAVE IDE/4.5.0.202105191637/eclipse/workspace/bldcmotor/Libraries/CMSIS/Include\cmsis_gcc.h **** 
 416:D:/DAVE IDE/4.5.0.202105191637/eclipse/workspace/bldcmotor/Libraries/CMSIS/Include\cmsis_gcc.h **** 
 417:D:/DAVE IDE/4.5.0.202105191637/eclipse/workspace/bldcmotor/Libraries/CMSIS/Include\cmsis_gcc.h **** #if (defined (__ARM_FEATURE_CMSE ) && (__ARM_FEATURE_CMSE == 3))
 418:D:/DAVE IDE/4.5.0.202105191637/eclipse/workspace/bldcmotor/Libraries/CMSIS/Include\cmsis_gcc.h **** /**
 419:D:/DAVE IDE/4.5.0.202105191637/eclipse/workspace/bldcmotor/Libraries/CMSIS/Include\cmsis_gcc.h ****   \brief   Get Stack Pointer (non-secure)
 420:D:/DAVE IDE/4.5.0.202105191637/eclipse/workspace/bldcmotor/Libraries/CMSIS/Include\cmsis_gcc.h ****   \details Returns the current value of the non-secure Stack Pointer (SP) when in secure state.
 421:D:/DAVE IDE/4.5.0.202105191637/eclipse/workspace/bldcmotor/Libraries/CMSIS/Include\cmsis_gcc.h ****   \return               SP Register value
 422:D:/DAVE IDE/4.5.0.202105191637/eclipse/workspace/bldcmotor/Libraries/CMSIS/Include\cmsis_gcc.h ****  */
 423:D:/DAVE IDE/4.5.0.202105191637/eclipse/workspace/bldcmotor/Libraries/CMSIS/Include\cmsis_gcc.h **** __STATIC_FORCEINLINE uint32_t __TZ_get_SP_NS(void)
 424:D:/DAVE IDE/4.5.0.202105191637/eclipse/workspace/bldcmotor/Libraries/CMSIS/Include\cmsis_gcc.h **** {
 425:D:/DAVE IDE/4.5.0.202105191637/eclipse/workspace/bldcmotor/Libraries/CMSIS/Include\cmsis_gcc.h ****   uint32_t result;
 426:D:/DAVE IDE/4.5.0.202105191637/eclipse/workspace/bldcmotor/Libraries/CMSIS/Include\cmsis_gcc.h **** 
 427:D:/DAVE IDE/4.5.0.202105191637/eclipse/workspace/bldcmotor/Libraries/CMSIS/Include\cmsis_gcc.h ****   __ASM volatile ("MRS %0, sp_ns" : "=r" (result) );
 428:D:/DAVE IDE/4.5.0.202105191637/eclipse/workspace/bldcmotor/Libraries/CMSIS/Include\cmsis_gcc.h ****   return(result);
 429:D:/DAVE IDE/4.5.0.202105191637/eclipse/workspace/bldcmotor/Libraries/CMSIS/Include\cmsis_gcc.h **** }
 430:D:/DAVE IDE/4.5.0.202105191637/eclipse/workspace/bldcmotor/Libraries/CMSIS/Include\cmsis_gcc.h **** 
 431:D:/DAVE IDE/4.5.0.202105191637/eclipse/workspace/bldcmotor/Libraries/CMSIS/Include\cmsis_gcc.h **** 
 432:D:/DAVE IDE/4.5.0.202105191637/eclipse/workspace/bldcmotor/Libraries/CMSIS/Include\cmsis_gcc.h **** /**
 433:D:/DAVE IDE/4.5.0.202105191637/eclipse/workspace/bldcmotor/Libraries/CMSIS/Include\cmsis_gcc.h ****   \brief   Set Stack Pointer (non-secure)
 434:D:/DAVE IDE/4.5.0.202105191637/eclipse/workspace/bldcmotor/Libraries/CMSIS/Include\cmsis_gcc.h ****   \details Assigns the given value to the non-secure Stack Pointer (SP) when in secure state.
 435:D:/DAVE IDE/4.5.0.202105191637/eclipse/workspace/bldcmotor/Libraries/CMSIS/Include\cmsis_gcc.h ****   \param [in]    topOfStack  Stack Pointer value to set
 436:D:/DAVE IDE/4.5.0.202105191637/eclipse/workspace/bldcmotor/Libraries/CMSIS/Include\cmsis_gcc.h ****  */
 437:D:/DAVE IDE/4.5.0.202105191637/eclipse/workspace/bldcmotor/Libraries/CMSIS/Include\cmsis_gcc.h **** __STATIC_FORCEINLINE void __TZ_set_SP_NS(uint32_t topOfStack)
 438:D:/DAVE IDE/4.5.0.202105191637/eclipse/workspace/bldcmotor/Libraries/CMSIS/Include\cmsis_gcc.h **** {
 439:D:/DAVE IDE/4.5.0.202105191637/eclipse/workspace/bldcmotor/Libraries/CMSIS/Include\cmsis_gcc.h ****   __ASM volatile ("MSR sp_ns, %0" : : "r" (topOfStack) : );
 440:D:/DAVE IDE/4.5.0.202105191637/eclipse/workspace/bldcmotor/Libraries/CMSIS/Include\cmsis_gcc.h **** }
 441:D:/DAVE IDE/4.5.0.202105191637/eclipse/workspace/bldcmotor/Libraries/CMSIS/Include\cmsis_gcc.h **** #endif
 442:D:/DAVE IDE/4.5.0.202105191637/eclipse/workspace/bldcmotor/Libraries/CMSIS/Include\cmsis_gcc.h **** 
 443:D:/DAVE IDE/4.5.0.202105191637/eclipse/workspace/bldcmotor/Libraries/CMSIS/Include\cmsis_gcc.h **** 
 444:D:/DAVE IDE/4.5.0.202105191637/eclipse/workspace/bldcmotor/Libraries/CMSIS/Include\cmsis_gcc.h **** /**
 445:D:/DAVE IDE/4.5.0.202105191637/eclipse/workspace/bldcmotor/Libraries/CMSIS/Include\cmsis_gcc.h ****   \brief   Get Priority Mask
 446:D:/DAVE IDE/4.5.0.202105191637/eclipse/workspace/bldcmotor/Libraries/CMSIS/Include\cmsis_gcc.h ****   \details Returns the current state of the priority mask bit from the Priority Mask Register.
 447:D:/DAVE IDE/4.5.0.202105191637/eclipse/workspace/bldcmotor/Libraries/CMSIS/Include\cmsis_gcc.h ****   \return               Priority Mask value
 448:D:/DAVE IDE/4.5.0.202105191637/eclipse/workspace/bldcmotor/Libraries/CMSIS/Include\cmsis_gcc.h ****  */
 449:D:/DAVE IDE/4.5.0.202105191637/eclipse/workspace/bldcmotor/Libraries/CMSIS/Include\cmsis_gcc.h **** __STATIC_FORCEINLINE uint32_t __get_PRIMASK(void)
 450:D:/DAVE IDE/4.5.0.202105191637/eclipse/workspace/bldcmotor/Libraries/CMSIS/Include\cmsis_gcc.h **** {
 451:D:/DAVE IDE/4.5.0.202105191637/eclipse/workspace/bldcmotor/Libraries/CMSIS/Include\cmsis_gcc.h ****   uint32_t result;
 452:D:/DAVE IDE/4.5.0.202105191637/eclipse/workspace/bldcmotor/Libraries/CMSIS/Include\cmsis_gcc.h **** 
 453:D:/DAVE IDE/4.5.0.202105191637/eclipse/workspace/bldcmotor/Libraries/CMSIS/Include\cmsis_gcc.h ****   __ASM volatile ("MRS %0, primask" : "=r" (result) );
 1928              	 .loc 3 453 0
 1929              	
 1930 0014 EFF31083 	 MRS r3,primask
 1931              	
 1932              	 .code 16
 1933 0018 FB61     	 str r3,[r7,#28]
 454:D:/DAVE IDE/4.5.0.202105191637/eclipse/workspace/bldcmotor/Libraries/CMSIS/Include\cmsis_gcc.h ****   return(result);
 1934              	 .loc 3 454 0
 1935 001a FB69     	 ldr r3,[r7,#28]
 1936              	.LBE61:
 1937              	.LBE60:
 616:../Dave/Generated/SYSTIMER/systimer.c ****   __disable_irq ();
 1938              	 .loc 2 616 0
 1939 001c BB61     	 str r3,[r7,#24]
 1940              	.LBB62:
 1941              	.LBB63:
 209:D:/DAVE IDE/4.5.0.202105191637/eclipse/workspace/bldcmotor/Libraries/CMSIS/Include\cmsis_gcc.h **** }
 1942              	 .loc 3 209 0
 1943              	
 1944 001e 72B6     	 cpsid i
 1945              	
 1946              	 .code 16
 1947              	.LBE63:
 1948              	.LBE62:
 618:../Dave/Generated/SYSTIMER/systimer.c **** }
 1949              	 .loc 2 618 0
 1950 0020 BB69     	 ldr r3,[r7,#24]
 1951              	.LBE59:
 1952              	.LBE58:
 644:../Dave/Generated/SYSTIMER/systimer.c ****   uint32_t id;
 645:../Dave/Generated/SYSTIMER/systimer.c **** 
 646:../Dave/Generated/SYSTIMER/systimer.c ****   uint32_t ics;
 647:../Dave/Generated/SYSTIMER/systimer.c ****   ics = critical_section_enter();
 1953              	 .loc 2 647 0
 1954 0022 7B62     	 str r3,[r7,#36]
 648:../Dave/Generated/SYSTIMER/systimer.c **** 
 649:../Dave/Generated/SYSTIMER/systimer.c ****   id = SYSTIMER_CreateTimer(period, mode, callback, args);
 1955              	 .loc 2 649 0
 1956 0024 F868     	 ldr r0,[r7,#12]
 1957 0026 0B23     	 mov r3,#11
 1958 0028 FB18     	 add r3,r7,r3
 1959 002a 1978     	 ldrb r1,[r3]
 1960 002c 7A68     	 ldr r2,[r7,#4]
 1961 002e 3B68     	 ldr r3,[r7]
 1962 0030 FFF7FEFF 	 bl SYSTIMER_CreateTimer
 1963 0034 031C     	 mov r3,r0
 1964 0036 3B62     	 str r3,[r7,#32]
 1965 0038 7B6A     	 ldr r3,[r7,#36]
 1966 003a 7B61     	 str r3,[r7,#20]
 1967 003c 7B69     	 ldr r3,[r7,#20]
 1968 003e 3B61     	 str r3,[r7,#16]
 1969              	.LBB64:
 1970              	.LBB65:
 1971              	.LBB66:
 1972              	.LBB67:
 455:D:/DAVE IDE/4.5.0.202105191637/eclipse/workspace/bldcmotor/Libraries/CMSIS/Include\cmsis_gcc.h **** }
 456:D:/DAVE IDE/4.5.0.202105191637/eclipse/workspace/bldcmotor/Libraries/CMSIS/Include\cmsis_gcc.h **** 
 457:D:/DAVE IDE/4.5.0.202105191637/eclipse/workspace/bldcmotor/Libraries/CMSIS/Include\cmsis_gcc.h **** 
 458:D:/DAVE IDE/4.5.0.202105191637/eclipse/workspace/bldcmotor/Libraries/CMSIS/Include\cmsis_gcc.h **** #if (defined (__ARM_FEATURE_CMSE ) && (__ARM_FEATURE_CMSE == 3))
 459:D:/DAVE IDE/4.5.0.202105191637/eclipse/workspace/bldcmotor/Libraries/CMSIS/Include\cmsis_gcc.h **** /**
 460:D:/DAVE IDE/4.5.0.202105191637/eclipse/workspace/bldcmotor/Libraries/CMSIS/Include\cmsis_gcc.h ****   \brief   Get Priority Mask (non-secure)
 461:D:/DAVE IDE/4.5.0.202105191637/eclipse/workspace/bldcmotor/Libraries/CMSIS/Include\cmsis_gcc.h ****   \details Returns the current state of the non-secure priority mask bit from the Priority Mask Reg
 462:D:/DAVE IDE/4.5.0.202105191637/eclipse/workspace/bldcmotor/Libraries/CMSIS/Include\cmsis_gcc.h ****   \return               Priority Mask value
 463:D:/DAVE IDE/4.5.0.202105191637/eclipse/workspace/bldcmotor/Libraries/CMSIS/Include\cmsis_gcc.h ****  */
 464:D:/DAVE IDE/4.5.0.202105191637/eclipse/workspace/bldcmotor/Libraries/CMSIS/Include\cmsis_gcc.h **** __STATIC_FORCEINLINE uint32_t __TZ_get_PRIMASK_NS(void)
 465:D:/DAVE IDE/4.5.0.202105191637/eclipse/workspace/bldcmotor/Libraries/CMSIS/Include\cmsis_gcc.h **** {
 466:D:/DAVE IDE/4.5.0.202105191637/eclipse/workspace/bldcmotor/Libraries/CMSIS/Include\cmsis_gcc.h ****   uint32_t result;
 467:D:/DAVE IDE/4.5.0.202105191637/eclipse/workspace/bldcmotor/Libraries/CMSIS/Include\cmsis_gcc.h **** 
 468:D:/DAVE IDE/4.5.0.202105191637/eclipse/workspace/bldcmotor/Libraries/CMSIS/Include\cmsis_gcc.h ****   __ASM volatile ("MRS %0, primask_ns" : "=r" (result) );
 469:D:/DAVE IDE/4.5.0.202105191637/eclipse/workspace/bldcmotor/Libraries/CMSIS/Include\cmsis_gcc.h ****   return(result);
 470:D:/DAVE IDE/4.5.0.202105191637/eclipse/workspace/bldcmotor/Libraries/CMSIS/Include\cmsis_gcc.h **** }
 471:D:/DAVE IDE/4.5.0.202105191637/eclipse/workspace/bldcmotor/Libraries/CMSIS/Include\cmsis_gcc.h **** #endif
 472:D:/DAVE IDE/4.5.0.202105191637/eclipse/workspace/bldcmotor/Libraries/CMSIS/Include\cmsis_gcc.h **** 
 473:D:/DAVE IDE/4.5.0.202105191637/eclipse/workspace/bldcmotor/Libraries/CMSIS/Include\cmsis_gcc.h **** 
 474:D:/DAVE IDE/4.5.0.202105191637/eclipse/workspace/bldcmotor/Libraries/CMSIS/Include\cmsis_gcc.h **** /**
 475:D:/DAVE IDE/4.5.0.202105191637/eclipse/workspace/bldcmotor/Libraries/CMSIS/Include\cmsis_gcc.h ****   \brief   Set Priority Mask
 476:D:/DAVE IDE/4.5.0.202105191637/eclipse/workspace/bldcmotor/Libraries/CMSIS/Include\cmsis_gcc.h ****   \details Assigns the given value to the Priority Mask Register.
 477:D:/DAVE IDE/4.5.0.202105191637/eclipse/workspace/bldcmotor/Libraries/CMSIS/Include\cmsis_gcc.h ****   \param [in]    priMask  Priority Mask
 478:D:/DAVE IDE/4.5.0.202105191637/eclipse/workspace/bldcmotor/Libraries/CMSIS/Include\cmsis_gcc.h ****  */
 479:D:/DAVE IDE/4.5.0.202105191637/eclipse/workspace/bldcmotor/Libraries/CMSIS/Include\cmsis_gcc.h **** __STATIC_FORCEINLINE void __set_PRIMASK(uint32_t priMask)
 480:D:/DAVE IDE/4.5.0.202105191637/eclipse/workspace/bldcmotor/Libraries/CMSIS/Include\cmsis_gcc.h **** {
 481:D:/DAVE IDE/4.5.0.202105191637/eclipse/workspace/bldcmotor/Libraries/CMSIS/Include\cmsis_gcc.h ****   __ASM volatile ("MSR primask, %0" : : "r" (priMask) : "memory");
 1973              	 .loc 3 481 0
 1974 0040 3B69     	 ldr r3,[r7,#16]
 1975              	
 1976 0042 83F31088 	 MSR primask,r3
 1977              	
 1978              	 .code 16
 1979              	.LBE67:
 1980              	.LBE66:
 1981              	.LBE65:
 1982              	.LBE64:
 650:../Dave/Generated/SYSTIMER/systimer.c **** 
 651:../Dave/Generated/SYSTIMER/systimer.c ****   critical_section_exit(ics);
 652:../Dave/Generated/SYSTIMER/systimer.c **** 
 653:../Dave/Generated/SYSTIMER/systimer.c ****   return (id);
 1983              	 .loc 2 653 0
 1984 0046 3B6A     	 ldr r3,[r7,#32]
 654:../Dave/Generated/SYSTIMER/systimer.c **** }
 1985              	 .loc 2 654 0
 1986 0048 181C     	 mov r0,r3
 1987 004a BD46     	 mov sp,r7
 1988 004c 0AB0     	 add sp,sp,#40
 1989              	 
 1990 004e 80BD     	 pop {r7,pc}
 1991              	 .cfi_endproc
 1992              	.LFE60:
 1994              	 .section .text.SYSTIMER_StartTimerFromISR,"ax",%progbits
 1995              	 .align 2
 1996              	 .global SYSTIMER_StartTimerFromISR
 1997              	 .code 16
 1998              	 .thumb_func
 2000              	SYSTIMER_StartTimerFromISR:
 2001              	.LFB61:
 655:../Dave/Generated/SYSTIMER/systimer.c **** 
 656:../Dave/Generated/SYSTIMER/systimer.c **** SYSTIMER_STATUS_t SYSTIMER_StartTimerFromISR(uint32_t id)
 657:../Dave/Generated/SYSTIMER/systimer.c **** {
 2002              	 .loc 2 657 0
 2003              	 .cfi_startproc
 2004 0000 90B5     	 push {r4,r7,lr}
 2005              	.LCFI53:
 2006              	 .cfi_def_cfa_offset 12
 2007              	 .cfi_offset 4,-12
 2008              	 .cfi_offset 7,-8
 2009              	 .cfi_offset 14,-4
 2010 0002 89B0     	 sub sp,sp,#36
 2011              	.LCFI54:
 2012              	 .cfi_def_cfa_offset 48
 2013 0004 00AF     	 add r7,sp,#0
 2014              	.LCFI55:
 2015              	 .cfi_def_cfa_register 7
 2016 0006 7860     	 str r0,[r7,#4]
 2017              	.LBB68:
 2018              	.LBB69:
 2019              	.LBB70:
 2020              	.LBB71:
 453:D:/DAVE IDE/4.5.0.202105191637/eclipse/workspace/bldcmotor/Libraries/CMSIS/Include\cmsis_gcc.h ****   return(result);
 2021              	 .loc 3 453 0
 2022              	
 2023 0008 EFF31083 	 MRS r3,primask
 2024              	
 2025              	 .code 16
 2026 000c 7B61     	 str r3,[r7,#20]
 454:D:/DAVE IDE/4.5.0.202105191637/eclipse/workspace/bldcmotor/Libraries/CMSIS/Include\cmsis_gcc.h **** }
 2027              	 .loc 3 454 0
 2028 000e 7B69     	 ldr r3,[r7,#20]
 2029              	.LBE71:
 2030              	.LBE70:
 616:../Dave/Generated/SYSTIMER/systimer.c ****   __disable_irq ();
 2031              	 .loc 2 616 0
 2032 0010 3B61     	 str r3,[r7,#16]
 2033              	.LBB72:
 2034              	.LBB73:
 209:D:/DAVE IDE/4.5.0.202105191637/eclipse/workspace/bldcmotor/Libraries/CMSIS/Include\cmsis_gcc.h **** }
 2035              	 .loc 3 209 0
 2036              	
 2037 0012 72B6     	 cpsid i
 2038              	
 2039              	 .code 16
 2040              	.LBE73:
 2041              	.LBE72:
 618:../Dave/Generated/SYSTIMER/systimer.c **** }
 2042              	 .loc 2 618 0
 2043 0014 3B69     	 ldr r3,[r7,#16]
 2044              	.LBE69:
 2045              	.LBE68:
 658:../Dave/Generated/SYSTIMER/systimer.c ****   SYSTIMER_STATUS_t status;
 659:../Dave/Generated/SYSTIMER/systimer.c **** 
 660:../Dave/Generated/SYSTIMER/systimer.c ****   uint32_t ics;
 661:../Dave/Generated/SYSTIMER/systimer.c ****   ics = critical_section_enter();
 2046              	 .loc 2 661 0
 2047 0016 FB61     	 str r3,[r7,#28]
 662:../Dave/Generated/SYSTIMER/systimer.c **** 
 663:../Dave/Generated/SYSTIMER/systimer.c ****   status = SYSTIMER_StartTimer(id);
 2048              	 .loc 2 663 0
 2049 0018 1B23     	 mov r3,#27
 2050 001a FC18     	 add r4,r7,r3
 2051 001c 7B68     	 ldr r3,[r7,#4]
 2052 001e 181C     	 mov r0,r3
 2053 0020 FFF7FEFF 	 bl SYSTIMER_StartTimer
 2054 0024 031C     	 mov r3,r0
 2055 0026 2370     	 strb r3,[r4]
 2056 0028 FB69     	 ldr r3,[r7,#28]
 2057 002a FB60     	 str r3,[r7,#12]
 2058 002c FB68     	 ldr r3,[r7,#12]
 2059 002e BB60     	 str r3,[r7,#8]
 2060              	.LBB74:
 2061              	.LBB75:
 2062              	.LBB76:
 2063              	.LBB77:
 2064              	 .loc 3 481 0
 2065 0030 BB68     	 ldr r3,[r7,#8]
 2066              	
 2067 0032 83F31088 	 MSR primask,r3
 2068              	
 2069              	 .code 16
 2070              	.LBE77:
 2071              	.LBE76:
 2072              	.LBE75:
 2073              	.LBE74:
 664:../Dave/Generated/SYSTIMER/systimer.c **** 
 665:../Dave/Generated/SYSTIMER/systimer.c ****   critical_section_exit(ics);
 666:../Dave/Generated/SYSTIMER/systimer.c **** 
 667:../Dave/Generated/SYSTIMER/systimer.c ****   return (status);
 2074              	 .loc 2 667 0
 2075 0036 1B23     	 mov r3,#27
 2076 0038 FB18     	 add r3,r7,r3
 2077 003a 1B78     	 ldrb r3,[r3]
 668:../Dave/Generated/SYSTIMER/systimer.c **** }
 2078              	 .loc 2 668 0
 2079 003c 181C     	 mov r0,r3
 2080 003e BD46     	 mov sp,r7
 2081 0040 09B0     	 add sp,sp,#36
 2082              	 
 2083 0042 90BD     	 pop {r4,r7,pc}
 2084              	 .cfi_endproc
 2085              	.LFE61:
 2087              	 .section .text.SYSTIMER_StopTimerFromISR,"ax",%progbits
 2088              	 .align 2
 2089              	 .global SYSTIMER_StopTimerFromISR
 2090              	 .code 16
 2091              	 .thumb_func
 2093              	SYSTIMER_StopTimerFromISR:
 2094              	.LFB62:
 669:../Dave/Generated/SYSTIMER/systimer.c **** 
 670:../Dave/Generated/SYSTIMER/systimer.c **** SYSTIMER_STATUS_t SYSTIMER_StopTimerFromISR(uint32_t id)
 671:../Dave/Generated/SYSTIMER/systimer.c **** {
 2095              	 .loc 2 671 0
 2096              	 .cfi_startproc
 2097 0000 90B5     	 push {r4,r7,lr}
 2098              	.LCFI56:
 2099              	 .cfi_def_cfa_offset 12
 2100              	 .cfi_offset 4,-12
 2101              	 .cfi_offset 7,-8
 2102              	 .cfi_offset 14,-4
 2103 0002 89B0     	 sub sp,sp,#36
 2104              	.LCFI57:
 2105              	 .cfi_def_cfa_offset 48
 2106 0004 00AF     	 add r7,sp,#0
 2107              	.LCFI58:
 2108              	 .cfi_def_cfa_register 7
 2109 0006 7860     	 str r0,[r7,#4]
 2110              	.LBB78:
 2111              	.LBB79:
 2112              	.LBB80:
 2113              	.LBB81:
 453:D:/DAVE IDE/4.5.0.202105191637/eclipse/workspace/bldcmotor/Libraries/CMSIS/Include\cmsis_gcc.h ****   return(result);
 2114              	 .loc 3 453 0
 2115              	
 2116 0008 EFF31083 	 MRS r3,primask
 2117              	
 2118              	 .code 16
 2119 000c 7B61     	 str r3,[r7,#20]
 454:D:/DAVE IDE/4.5.0.202105191637/eclipse/workspace/bldcmotor/Libraries/CMSIS/Include\cmsis_gcc.h **** }
 2120              	 .loc 3 454 0
 2121 000e 7B69     	 ldr r3,[r7,#20]
 2122              	.LBE81:
 2123              	.LBE80:
 616:../Dave/Generated/SYSTIMER/systimer.c ****   __disable_irq ();
 2124              	 .loc 2 616 0
 2125 0010 3B61     	 str r3,[r7,#16]
 2126              	.LBB82:
 2127              	.LBB83:
 209:D:/DAVE IDE/4.5.0.202105191637/eclipse/workspace/bldcmotor/Libraries/CMSIS/Include\cmsis_gcc.h **** }
 2128              	 .loc 3 209 0
 2129              	
 2130 0012 72B6     	 cpsid i
 2131              	
 2132              	 .code 16
 2133              	.LBE83:
 2134              	.LBE82:
 618:../Dave/Generated/SYSTIMER/systimer.c **** }
 2135              	 .loc 2 618 0
 2136 0014 3B69     	 ldr r3,[r7,#16]
 2137              	.LBE79:
 2138              	.LBE78:
 672:../Dave/Generated/SYSTIMER/systimer.c ****   SYSTIMER_STATUS_t status;
 673:../Dave/Generated/SYSTIMER/systimer.c **** 
 674:../Dave/Generated/SYSTIMER/systimer.c ****   uint32_t ics;
 675:../Dave/Generated/SYSTIMER/systimer.c ****   ics = critical_section_enter();
 2139              	 .loc 2 675 0
 2140 0016 FB61     	 str r3,[r7,#28]
 676:../Dave/Generated/SYSTIMER/systimer.c **** 
 677:../Dave/Generated/SYSTIMER/systimer.c ****   status = SYSTIMER_StopTimer(id);
 2141              	 .loc 2 677 0
 2142 0018 1B23     	 mov r3,#27
 2143 001a FC18     	 add r4,r7,r3
 2144 001c 7B68     	 ldr r3,[r7,#4]
 2145 001e 181C     	 mov r0,r3
 2146 0020 FFF7FEFF 	 bl SYSTIMER_StopTimer
 2147 0024 031C     	 mov r3,r0
 2148 0026 2370     	 strb r3,[r4]
 2149 0028 FB69     	 ldr r3,[r7,#28]
 2150 002a FB60     	 str r3,[r7,#12]
 2151 002c FB68     	 ldr r3,[r7,#12]
 2152 002e BB60     	 str r3,[r7,#8]
 2153              	.LBB84:
 2154              	.LBB85:
 2155              	.LBB86:
 2156              	.LBB87:
 2157              	 .loc 3 481 0
 2158 0030 BB68     	 ldr r3,[r7,#8]
 2159              	
 2160 0032 83F31088 	 MSR primask,r3
 2161              	
 2162              	 .code 16
 2163              	.LBE87:
 2164              	.LBE86:
 2165              	.LBE85:
 2166              	.LBE84:
 678:../Dave/Generated/SYSTIMER/systimer.c **** 
 679:../Dave/Generated/SYSTIMER/systimer.c ****   critical_section_exit(ics);
 680:../Dave/Generated/SYSTIMER/systimer.c **** 
 681:../Dave/Generated/SYSTIMER/systimer.c ****   return (status);
 2167              	 .loc 2 681 0
 2168 0036 1B23     	 mov r3,#27
 2169 0038 FB18     	 add r3,r7,r3
 2170 003a 1B78     	 ldrb r3,[r3]
 682:../Dave/Generated/SYSTIMER/systimer.c **** }
 2171              	 .loc 2 682 0
 2172 003c 181C     	 mov r0,r3
 2173 003e BD46     	 mov sp,r7
 2174 0040 09B0     	 add sp,sp,#36
 2175              	 
 2176 0042 90BD     	 pop {r4,r7,pc}
 2177              	 .cfi_endproc
 2178              	.LFE62:
 2180              	 .section .text.SYSTIMER_RestartTimerFromISR,"ax",%progbits
 2181              	 .align 2
 2182              	 .global SYSTIMER_RestartTimerFromISR
 2183              	 .code 16
 2184              	 .thumb_func
 2186              	SYSTIMER_RestartTimerFromISR:
 2187              	.LFB63:
 683:../Dave/Generated/SYSTIMER/systimer.c **** 
 684:../Dave/Generated/SYSTIMER/systimer.c **** SYSTIMER_STATUS_t SYSTIMER_RestartTimerFromISR(uint32_t id, uint32_t microsec)
 685:../Dave/Generated/SYSTIMER/systimer.c **** {
 2188              	 .loc 2 685 0
 2189              	 .cfi_startproc
 2190 0000 90B5     	 push {r4,r7,lr}
 2191              	.LCFI59:
 2192              	 .cfi_def_cfa_offset 12
 2193              	 .cfi_offset 4,-12
 2194              	 .cfi_offset 7,-8
 2195              	 .cfi_offset 14,-4
 2196 0002 89B0     	 sub sp,sp,#36
 2197              	.LCFI60:
 2198              	 .cfi_def_cfa_offset 48
 2199 0004 00AF     	 add r7,sp,#0
 2200              	.LCFI61:
 2201              	 .cfi_def_cfa_register 7
 2202 0006 7860     	 str r0,[r7,#4]
 2203 0008 3960     	 str r1,[r7]
 2204              	.LBB88:
 2205              	.LBB89:
 2206              	.LBB90:
 2207              	.LBB91:
 453:D:/DAVE IDE/4.5.0.202105191637/eclipse/workspace/bldcmotor/Libraries/CMSIS/Include\cmsis_gcc.h ****   return(result);
 2208              	 .loc 3 453 0
 2209              	
 2210 000a EFF31083 	 MRS r3,primask
 2211              	
 2212              	 .code 16
 2213 000e 7B61     	 str r3,[r7,#20]
 454:D:/DAVE IDE/4.5.0.202105191637/eclipse/workspace/bldcmotor/Libraries/CMSIS/Include\cmsis_gcc.h **** }
 2214              	 .loc 3 454 0
 2215 0010 7B69     	 ldr r3,[r7,#20]
 2216              	.LBE91:
 2217              	.LBE90:
 616:../Dave/Generated/SYSTIMER/systimer.c ****   __disable_irq ();
 2218              	 .loc 2 616 0
 2219 0012 3B61     	 str r3,[r7,#16]
 2220              	.LBB92:
 2221              	.LBB93:
 209:D:/DAVE IDE/4.5.0.202105191637/eclipse/workspace/bldcmotor/Libraries/CMSIS/Include\cmsis_gcc.h **** }
 2222              	 .loc 3 209 0
 2223              	
 2224 0014 72B6     	 cpsid i
 2225              	
 2226              	 .code 16
 2227              	.LBE93:
 2228              	.LBE92:
 618:../Dave/Generated/SYSTIMER/systimer.c **** }
 2229              	 .loc 2 618 0
 2230 0016 3B69     	 ldr r3,[r7,#16]
 2231              	.LBE89:
 2232              	.LBE88:
 686:../Dave/Generated/SYSTIMER/systimer.c ****   SYSTIMER_STATUS_t status;
 687:../Dave/Generated/SYSTIMER/systimer.c **** 
 688:../Dave/Generated/SYSTIMER/systimer.c ****   uint32_t ics;
 689:../Dave/Generated/SYSTIMER/systimer.c ****   ics = critical_section_enter();
 2233              	 .loc 2 689 0
 2234 0018 FB61     	 str r3,[r7,#28]
 690:../Dave/Generated/SYSTIMER/systimer.c **** 
 691:../Dave/Generated/SYSTIMER/systimer.c ****   status = SYSTIMER_RestartTimer(id, microsec);
 2235              	 .loc 2 691 0
 2236 001a 1B23     	 mov r3,#27
 2237 001c FC18     	 add r4,r7,r3
 2238 001e 7A68     	 ldr r2,[r7,#4]
 2239 0020 3B68     	 ldr r3,[r7]
 2240 0022 101C     	 mov r0,r2
 2241 0024 191C     	 mov r1,r3
 2242 0026 FFF7FEFF 	 bl SYSTIMER_RestartTimer
 2243 002a 031C     	 mov r3,r0
 2244 002c 2370     	 strb r3,[r4]
 2245 002e FB69     	 ldr r3,[r7,#28]
 2246 0030 FB60     	 str r3,[r7,#12]
 2247 0032 FB68     	 ldr r3,[r7,#12]
 2248 0034 BB60     	 str r3,[r7,#8]
 2249              	.LBB94:
 2250              	.LBB95:
 2251              	.LBB96:
 2252              	.LBB97:
 2253              	 .loc 3 481 0
 2254 0036 BB68     	 ldr r3,[r7,#8]
 2255              	
 2256 0038 83F31088 	 MSR primask,r3
 2257              	
 2258              	 .code 16
 2259              	.LBE97:
 2260              	.LBE96:
 2261              	.LBE95:
 2262              	.LBE94:
 692:../Dave/Generated/SYSTIMER/systimer.c **** 
 693:../Dave/Generated/SYSTIMER/systimer.c ****   critical_section_exit(ics);
 694:../Dave/Generated/SYSTIMER/systimer.c **** 
 695:../Dave/Generated/SYSTIMER/systimer.c ****   return (status);
 2263              	 .loc 2 695 0
 2264 003c 1B23     	 mov r3,#27
 2265 003e FB18     	 add r3,r7,r3
 2266 0040 1B78     	 ldrb r3,[r3]
 696:../Dave/Generated/SYSTIMER/systimer.c **** }
 2267              	 .loc 2 696 0
 2268 0042 181C     	 mov r0,r3
 2269 0044 BD46     	 mov sp,r7
 2270 0046 09B0     	 add sp,sp,#36
 2271              	 
 2272 0048 90BD     	 pop {r4,r7,pc}
 2273              	 .cfi_endproc
 2274              	.LFE63:
 2276 004a C046     	 .section .text.SYSTIMER_DeleteTimerFromISR,"ax",%progbits
 2277              	 .align 2
 2278              	 .global SYSTIMER_DeleteTimerFromISR
 2279              	 .code 16
 2280              	 .thumb_func
 2282              	SYSTIMER_DeleteTimerFromISR:
 2283              	.LFB64:
 697:../Dave/Generated/SYSTIMER/systimer.c **** 
 698:../Dave/Generated/SYSTIMER/systimer.c **** SYSTIMER_STATUS_t SYSTIMER_DeleteTimerFromISR(uint32_t id)
 699:../Dave/Generated/SYSTIMER/systimer.c **** {
 2284              	 .loc 2 699 0
 2285              	 .cfi_startproc
 2286 0000 90B5     	 push {r4,r7,lr}
 2287              	.LCFI62:
 2288              	 .cfi_def_cfa_offset 12
 2289              	 .cfi_offset 4,-12
 2290              	 .cfi_offset 7,-8
 2291              	 .cfi_offset 14,-4
 2292 0002 89B0     	 sub sp,sp,#36
 2293              	.LCFI63:
 2294              	 .cfi_def_cfa_offset 48
 2295 0004 00AF     	 add r7,sp,#0
 2296              	.LCFI64:
 2297              	 .cfi_def_cfa_register 7
 2298 0006 7860     	 str r0,[r7,#4]
 2299              	.LBB98:
 2300              	.LBB99:
 2301              	.LBB100:
 2302              	.LBB101:
 453:D:/DAVE IDE/4.5.0.202105191637/eclipse/workspace/bldcmotor/Libraries/CMSIS/Include\cmsis_gcc.h ****   return(result);
 2303              	 .loc 3 453 0
 2304              	
 2305 0008 EFF31083 	 MRS r3,primask
 2306              	
 2307              	 .code 16
 2308 000c 7B61     	 str r3,[r7,#20]
 454:D:/DAVE IDE/4.5.0.202105191637/eclipse/workspace/bldcmotor/Libraries/CMSIS/Include\cmsis_gcc.h **** }
 2309              	 .loc 3 454 0
 2310 000e 7B69     	 ldr r3,[r7,#20]
 2311              	.LBE101:
 2312              	.LBE100:
 616:../Dave/Generated/SYSTIMER/systimer.c ****   __disable_irq ();
 2313              	 .loc 2 616 0
 2314 0010 3B61     	 str r3,[r7,#16]
 2315              	.LBB102:
 2316              	.LBB103:
 209:D:/DAVE IDE/4.5.0.202105191637/eclipse/workspace/bldcmotor/Libraries/CMSIS/Include\cmsis_gcc.h **** }
 2317              	 .loc 3 209 0
 2318              	
 2319 0012 72B6     	 cpsid i
 2320              	
 2321              	 .code 16
 2322              	.LBE103:
 2323              	.LBE102:
 618:../Dave/Generated/SYSTIMER/systimer.c **** }
 2324              	 .loc 2 618 0
 2325 0014 3B69     	 ldr r3,[r7,#16]
 2326              	.LBE99:
 2327              	.LBE98:
 700:../Dave/Generated/SYSTIMER/systimer.c ****   SYSTIMER_STATUS_t status;
 701:../Dave/Generated/SYSTIMER/systimer.c **** 
 702:../Dave/Generated/SYSTIMER/systimer.c ****   uint32_t ics;
 703:../Dave/Generated/SYSTIMER/systimer.c ****   ics = critical_section_enter();
 2328              	 .loc 2 703 0
 2329 0016 FB61     	 str r3,[r7,#28]
 704:../Dave/Generated/SYSTIMER/systimer.c **** 
 705:../Dave/Generated/SYSTIMER/systimer.c ****   status = SYSTIMER_DeleteTimer(id);
 2330              	 .loc 2 705 0
 2331 0018 1B23     	 mov r3,#27
 2332 001a FC18     	 add r4,r7,r3
 2333 001c 7B68     	 ldr r3,[r7,#4]
 2334 001e 181C     	 mov r0,r3
 2335 0020 FFF7FEFF 	 bl SYSTIMER_DeleteTimer
 2336 0024 031C     	 mov r3,r0
 2337 0026 2370     	 strb r3,[r4]
 2338 0028 FB69     	 ldr r3,[r7,#28]
 2339 002a FB60     	 str r3,[r7,#12]
 2340 002c FB68     	 ldr r3,[r7,#12]
 2341 002e BB60     	 str r3,[r7,#8]
 2342              	.LBB104:
 2343              	.LBB105:
 2344              	.LBB106:
 2345              	.LBB107:
 2346              	 .loc 3 481 0
 2347 0030 BB68     	 ldr r3,[r7,#8]
 2348              	
 2349 0032 83F31088 	 MSR primask,r3
 2350              	
 2351              	 .code 16
 2352              	.LBE107:
 2353              	.LBE106:
 2354              	.LBE105:
 2355              	.LBE104:
 706:../Dave/Generated/SYSTIMER/systimer.c **** 
 707:../Dave/Generated/SYSTIMER/systimer.c ****   critical_section_exit(ics);
 708:../Dave/Generated/SYSTIMER/systimer.c **** 
 709:../Dave/Generated/SYSTIMER/systimer.c ****   return (status);
 2356              	 .loc 2 709 0
 2357 0036 1B23     	 mov r3,#27
 2358 0038 FB18     	 add r3,r7,r3
 2359 003a 1B78     	 ldrb r3,[r3]
 710:../Dave/Generated/SYSTIMER/systimer.c **** }
 2360              	 .loc 2 710 0
 2361 003c 181C     	 mov r0,r3
 2362 003e BD46     	 mov sp,r7
 2363 0040 09B0     	 add sp,sp,#36
 2364              	 
 2365 0042 90BD     	 pop {r4,r7,pc}
 2366              	 .cfi_endproc
 2367              	.LFE64:
 2369              	 .text
 2370              	.Letext0:
 2371              	 .file 4 "d:\\dave ide\\4.5.0.202105191637\\eclipse\\arm-gcc-49\\arm-none-eabi\\include\\machine\\_default_types.h"
 2372              	 .file 5 "d:\\dave ide\\4.5.0.202105191637\\eclipse\\arm-gcc-49\\arm-none-eabi\\include\\stdint.h"
 2373              	 .file 6 "D:/DAVE IDE/4.5.0.202105191637/eclipse/workspace/bldcmotor/Libraries/CMSIS/Infineon/XMC1400_series/Include/XMC1400.h"
 2374              	 .file 7 "D:/DAVE IDE/4.5.0.202105191637/eclipse/workspace/bldcmotor/Dave/Generated/DAVE_Common.h"
 2375              	 .file 8 "../Dave/Generated/SYSTIMER/systimer.h"
DEFINED SYMBOLS
                            *ABS*:00000000 systimer.c
    {standard input}:18     .text.__NVIC_SetPriority:00000000 $t
    {standard input}:22     .text.__NVIC_SetPriority:00000000 __NVIC_SetPriority
    {standard input}:152    .text.__NVIC_SetPriority:000000cc $d
    {standard input}:158    .text.SysTick_Config:00000000 $t
    {standard input}:162    .text.SysTick_Config:00000000 SysTick_Config
    {standard input}:219    .text.SysTick_Config:00000040 $d
                            *COM*:00000120 g_timer_tbl
    {standard input}:230    .bss.g_timer_list:00000000 g_timer_list
    {standard input}:227    .bss.g_timer_list:00000000 $d
    {standard input}:237    .bss.g_timer_tracker:00000000 g_timer_tracker
    {standard input}:234    .bss.g_timer_tracker:00000000 $d
    {standard input}:244    .bss.g_systick_count:00000000 g_systick_count
    {standard input}:241    .bss.g_systick_count:00000000 $d
    {standard input}:247    .text.SYSTIMER_lInsertTimerList:00000000 $t
    {standard input}:251    .text.SYSTIMER_lInsertTimerList:00000000 SYSTIMER_lInsertTimerList
    {standard input}:532    .text.SYSTIMER_lInsertTimerList:000001c0 $d
    {standard input}:538    .text.SYSTIMER_lRemoveTimerList:00000000 $t
    {standard input}:542    .text.SYSTIMER_lRemoveTimerList:00000000 SYSTIMER_lRemoveTimerList
    {standard input}:669    .text.SYSTIMER_lRemoveTimerList:000000b4 $d
    {standard input}:675    .text.SYSTIMER_lTimerHandler:00000000 $t
    {standard input}:679    .text.SYSTIMER_lTimerHandler:00000000 SYSTIMER_lTimerHandler
    {standard input}:818    .text.SYSTIMER_lTimerHandler:000000c4 $d
    {standard input}:824    .text.SysTick_Handler:00000000 $t
    {standard input}:829    .text.SysTick_Handler:00000000 SysTick_Handler
    {standard input}:886    .text.SysTick_Handler:00000040 $d
    {standard input}:892    .text.SYSTIMER_GetAppVersion:00000000 $t
    {standard input}:897    .text.SYSTIMER_GetAppVersion:00000000 SYSTIMER_GetAppVersion
    {standard input}:962    .text.SYSTIMER_GetAppVersion:00000058 $d
    {standard input}:968    .text.SYSTIMER_Init:00000000 $t
    {standard input}:973    .text.SYSTIMER_Init:00000000 SYSTIMER_Init
    {standard input}:1054   .text.SYSTIMER_Init:00000070 $d
    {standard input}:1061   .text.SYSTIMER_CreateTimer:00000000 $t
    {standard input}:1066   .text.SYSTIMER_CreateTimer:00000000 SYSTIMER_CreateTimer
    {standard input}:1262   .text.SYSTIMER_CreateTimer:00000130 $d
    {standard input}:1268   .text.SYSTIMER_StartTimer:00000000 $t
    {standard input}:1273   .text.SYSTIMER_StartTimer:00000000 SYSTIMER_StartTimer
    {standard input}:1365   .text.SYSTIMER_StartTimer:00000088 $d
    {standard input}:1370   .text.SYSTIMER_StopTimer:00000000 $t
    {standard input}:1375   .text.SYSTIMER_StopTimer:00000000 SYSTIMER_StopTimer
    {standard input}:1460   .text.SYSTIMER_StopTimer:00000078 $d
    {standard input}:1465   .text.SYSTIMER_RestartTimer:00000000 $t
    {standard input}:1470   .text.SYSTIMER_RestartTimer:00000000 SYSTIMER_RestartTimer
    {standard input}:1585   .text.SYSTIMER_RestartTimer:000000ac $d
    {standard input}:1590   .text.SYSTIMER_DeleteTimer:00000000 $t
    {standard input}:1595   .text.SYSTIMER_DeleteTimer:00000000 SYSTIMER_DeleteTimer
    {standard input}:1702   .text.SYSTIMER_DeleteTimer:000000a0 $d
    {standard input}:1708   .text.SYSTIMER_GetTime:00000000 $t
    {standard input}:1713   .text.SYSTIMER_GetTime:00000000 SYSTIMER_GetTime
    {standard input}:1740   .text.SYSTIMER_GetTime:00000018 $d
    {standard input}:1745   .text.SYSTIMER_GetTickCount:00000000 $t
    {standard input}:1750   .text.SYSTIMER_GetTickCount:00000000 SYSTIMER_GetTickCount
    {standard input}:1773   .text.SYSTIMER_GetTickCount:00000010 $d
    {standard input}:1778   .text.SYSTIMER_GetTimerState:00000000 $t
    {standard input}:1783   .text.SYSTIMER_GetTimerState:00000000 SYSTIMER_GetTimerState
    {standard input}:1819   .text.SYSTIMER_GetTimerState:00000024 $d
    {standard input}:1824   .text.SYSTIMER_Start:00000000 $t
    {standard input}:1829   .text.SYSTIMER_Start:00000000 SYSTIMER_Start
    {standard input}:1855   .text.SYSTIMER_Start:00000014 $d
    {standard input}:1860   .text.SYSTIMER_Stop:00000000 $t
    {standard input}:1865   .text.SYSTIMER_Stop:00000000 SYSTIMER_Stop
    {standard input}:1891   .text.SYSTIMER_Stop:00000014 $d
    {standard input}:1896   .text.SYSTIMER_CreateTimerFromISR:00000000 $t
    {standard input}:1901   .text.SYSTIMER_CreateTimerFromISR:00000000 SYSTIMER_CreateTimerFromISR
    {standard input}:1995   .text.SYSTIMER_StartTimerFromISR:00000000 $t
    {standard input}:2000   .text.SYSTIMER_StartTimerFromISR:00000000 SYSTIMER_StartTimerFromISR
    {standard input}:2088   .text.SYSTIMER_StopTimerFromISR:00000000 $t
    {standard input}:2093   .text.SYSTIMER_StopTimerFromISR:00000000 SYSTIMER_StopTimerFromISR
    {standard input}:2181   .text.SYSTIMER_RestartTimerFromISR:00000000 $t
    {standard input}:2186   .text.SYSTIMER_RestartTimerFromISR:00000000 SYSTIMER_RestartTimerFromISR
    {standard input}:2277   .text.SYSTIMER_DeleteTimerFromISR:00000000 $t
    {standard input}:2282   .text.SYSTIMER_DeleteTimerFromISR:00000000 SYSTIMER_DeleteTimerFromISR
                     .debug_frame:00000010 $d

UNDEFINED SYMBOLS
__aeabi_uidiv
