   1              	 .cpu cortex-m0
   2              	 .fpu softvfp
   3              	 .eabi_attribute 20,1
   4              	 .eabi_attribute 21,1
   5              	 .eabi_attribute 23,3
   6              	 .eabi_attribute 24,1
   7              	 .eabi_attribute 25,1
   8              	 .eabi_attribute 26,1
   9              	 .eabi_attribute 30,6
  10              	 .eabi_attribute 34,0
  11              	 .eabi_attribute 18,4
  12              	 .code 16
  13              	 .file "hall_posif.c"
  14              	 .text
  15              	.Ltext0:
  16              	 .cfi_sections .debug_frame
  17              	 .section .text.XMC_GPIO_GetInput,"ax",%progbits
  18              	 .align 2
  19              	 .code 16
  20              	 .thumb_func
  22              	XMC_GPIO_GetInput:
  23              	.LFB47:
  24              	 .file 1 "D:/DAVE IDE/4.5.0.202105191637/eclipse/workspace/bldcmotor/Libraries/XMCLib/inc/xmc_gpio.h"
   1:D:/DAVE IDE/4.5.0.202105191637/eclipse/workspace/bldcmotor/Libraries/XMCLib/inc\xmc_gpio.h **** /**
   2:D:/DAVE IDE/4.5.0.202105191637/eclipse/workspace/bldcmotor/Libraries/XMCLib/inc\xmc_gpio.h ****  * @file xmc_gpio.h
   3:D:/DAVE IDE/4.5.0.202105191637/eclipse/workspace/bldcmotor/Libraries/XMCLib/inc\xmc_gpio.h ****  * @date 2015-06-20
   4:D:/DAVE IDE/4.5.0.202105191637/eclipse/workspace/bldcmotor/Libraries/XMCLib/inc\xmc_gpio.h ****  *
   5:D:/DAVE IDE/4.5.0.202105191637/eclipse/workspace/bldcmotor/Libraries/XMCLib/inc\xmc_gpio.h ****  * @cond
   6:D:/DAVE IDE/4.5.0.202105191637/eclipse/workspace/bldcmotor/Libraries/XMCLib/inc\xmc_gpio.h ****  *****************************************************************************
   7:D:/DAVE IDE/4.5.0.202105191637/eclipse/workspace/bldcmotor/Libraries/XMCLib/inc\xmc_gpio.h ****  * XMClib v2.2.0 - XMC Peripheral Driver Library
   8:D:/DAVE IDE/4.5.0.202105191637/eclipse/workspace/bldcmotor/Libraries/XMCLib/inc\xmc_gpio.h ****  *
   9:D:/DAVE IDE/4.5.0.202105191637/eclipse/workspace/bldcmotor/Libraries/XMCLib/inc\xmc_gpio.h ****  * Copyright (c) 2015-2020, Infineon Technologies AG
  10:D:/DAVE IDE/4.5.0.202105191637/eclipse/workspace/bldcmotor/Libraries/XMCLib/inc\xmc_gpio.h ****  * All rights reserved.
  11:D:/DAVE IDE/4.5.0.202105191637/eclipse/workspace/bldcmotor/Libraries/XMCLib/inc\xmc_gpio.h ****  *
  12:D:/DAVE IDE/4.5.0.202105191637/eclipse/workspace/bldcmotor/Libraries/XMCLib/inc\xmc_gpio.h ****  * Boost Software License - Version 1.0 - August 17th, 2003
  13:D:/DAVE IDE/4.5.0.202105191637/eclipse/workspace/bldcmotor/Libraries/XMCLib/inc\xmc_gpio.h ****  *
  14:D:/DAVE IDE/4.5.0.202105191637/eclipse/workspace/bldcmotor/Libraries/XMCLib/inc\xmc_gpio.h ****  * Permission is hereby granted, free of charge, to any person or organization
  15:D:/DAVE IDE/4.5.0.202105191637/eclipse/workspace/bldcmotor/Libraries/XMCLib/inc\xmc_gpio.h ****  * obtaining a copy of the software and accompanying documentation covered by
  16:D:/DAVE IDE/4.5.0.202105191637/eclipse/workspace/bldcmotor/Libraries/XMCLib/inc\xmc_gpio.h ****  * this license (the "Software") to use, reproduce, display, distribute,
  17:D:/DAVE IDE/4.5.0.202105191637/eclipse/workspace/bldcmotor/Libraries/XMCLib/inc\xmc_gpio.h ****  * execute, and transmit the Software, and to prepare derivative works of the
  18:D:/DAVE IDE/4.5.0.202105191637/eclipse/workspace/bldcmotor/Libraries/XMCLib/inc\xmc_gpio.h ****  * Software, and to permit third-parties to whom the Software is furnished to
  19:D:/DAVE IDE/4.5.0.202105191637/eclipse/workspace/bldcmotor/Libraries/XMCLib/inc\xmc_gpio.h ****  * do so, all subject to the following:
  20:D:/DAVE IDE/4.5.0.202105191637/eclipse/workspace/bldcmotor/Libraries/XMCLib/inc\xmc_gpio.h ****  *
  21:D:/DAVE IDE/4.5.0.202105191637/eclipse/workspace/bldcmotor/Libraries/XMCLib/inc\xmc_gpio.h ****  * The copyright notices in the Software and this entire statement, including
  22:D:/DAVE IDE/4.5.0.202105191637/eclipse/workspace/bldcmotor/Libraries/XMCLib/inc\xmc_gpio.h ****  * the above license grant, this restriction and the following disclaimer,
  23:D:/DAVE IDE/4.5.0.202105191637/eclipse/workspace/bldcmotor/Libraries/XMCLib/inc\xmc_gpio.h ****  * must be included in all copies of the Software, in whole or in part, and
  24:D:/DAVE IDE/4.5.0.202105191637/eclipse/workspace/bldcmotor/Libraries/XMCLib/inc\xmc_gpio.h ****  * all derivative works of the Software, unless such copies or derivative
  25:D:/DAVE IDE/4.5.0.202105191637/eclipse/workspace/bldcmotor/Libraries/XMCLib/inc\xmc_gpio.h ****  * works are solely in the form of machine-executable object code generated by
  26:D:/DAVE IDE/4.5.0.202105191637/eclipse/workspace/bldcmotor/Libraries/XMCLib/inc\xmc_gpio.h ****  * a source language processor.
  27:D:/DAVE IDE/4.5.0.202105191637/eclipse/workspace/bldcmotor/Libraries/XMCLib/inc\xmc_gpio.h ****  *
  28:D:/DAVE IDE/4.5.0.202105191637/eclipse/workspace/bldcmotor/Libraries/XMCLib/inc\xmc_gpio.h ****  * THE SOFTWARE IS PROVIDED "AS IS", WITHOUT WARRANTY OF ANY KIND, EXPRESS OR
  29:D:/DAVE IDE/4.5.0.202105191637/eclipse/workspace/bldcmotor/Libraries/XMCLib/inc\xmc_gpio.h ****  * IMPLIED, INCLUDING BUT NOT LIMITED TO THE WARRANTIES OF MERCHANTABILITY,
  30:D:/DAVE IDE/4.5.0.202105191637/eclipse/workspace/bldcmotor/Libraries/XMCLib/inc\xmc_gpio.h ****  * FITNESS FOR A PARTICULAR PURPOSE, TITLE AND NON-INFRINGEMENT. IN NO EVENT
  31:D:/DAVE IDE/4.5.0.202105191637/eclipse/workspace/bldcmotor/Libraries/XMCLib/inc\xmc_gpio.h ****  * SHALL THE COPYRIGHT HOLDERS OR ANYONE DISTRIBUTING THE SOFTWARE BE LIABLE
  32:D:/DAVE IDE/4.5.0.202105191637/eclipse/workspace/bldcmotor/Libraries/XMCLib/inc\xmc_gpio.h ****  * FOR ANY DAMAGES OR OTHER LIABILITY, WHETHER IN CONTRACT, TORT OR OTHERWISE,
  33:D:/DAVE IDE/4.5.0.202105191637/eclipse/workspace/bldcmotor/Libraries/XMCLib/inc\xmc_gpio.h ****  * ARISING FROM, OUT OF OR IN CONNECTION WITH THE SOFTWARE OR THE USE OR OTHER
  34:D:/DAVE IDE/4.5.0.202105191637/eclipse/workspace/bldcmotor/Libraries/XMCLib/inc\xmc_gpio.h ****  * DEALINGS IN THE SOFTWARE.
  35:D:/DAVE IDE/4.5.0.202105191637/eclipse/workspace/bldcmotor/Libraries/XMCLib/inc\xmc_gpio.h ****  *
  36:D:/DAVE IDE/4.5.0.202105191637/eclipse/workspace/bldcmotor/Libraries/XMCLib/inc\xmc_gpio.h ****  * To improve the quality of the software, users are encouraged to share
  37:D:/DAVE IDE/4.5.0.202105191637/eclipse/workspace/bldcmotor/Libraries/XMCLib/inc\xmc_gpio.h ****  * modifications, enhancements or bug fixes with Infineon Technologies AG
  38:D:/DAVE IDE/4.5.0.202105191637/eclipse/workspace/bldcmotor/Libraries/XMCLib/inc\xmc_gpio.h ****  * at XMCSupport@infineon.com.
  39:D:/DAVE IDE/4.5.0.202105191637/eclipse/workspace/bldcmotor/Libraries/XMCLib/inc\xmc_gpio.h ****  *****************************************************************************
  40:D:/DAVE IDE/4.5.0.202105191637/eclipse/workspace/bldcmotor/Libraries/XMCLib/inc\xmc_gpio.h ****  *
  41:D:/DAVE IDE/4.5.0.202105191637/eclipse/workspace/bldcmotor/Libraries/XMCLib/inc\xmc_gpio.h ****  * Change History
  42:D:/DAVE IDE/4.5.0.202105191637/eclipse/workspace/bldcmotor/Libraries/XMCLib/inc\xmc_gpio.h ****  * --------------
  43:D:/DAVE IDE/4.5.0.202105191637/eclipse/workspace/bldcmotor/Libraries/XMCLib/inc\xmc_gpio.h ****  *
  44:D:/DAVE IDE/4.5.0.202105191637/eclipse/workspace/bldcmotor/Libraries/XMCLib/inc\xmc_gpio.h ****  * 2015-02-20:
  45:D:/DAVE IDE/4.5.0.202105191637/eclipse/workspace/bldcmotor/Libraries/XMCLib/inc\xmc_gpio.h ****  *     - Initial draft<br>
  46:D:/DAVE IDE/4.5.0.202105191637/eclipse/workspace/bldcmotor/Libraries/XMCLib/inc\xmc_gpio.h ****  *     - Documentation improved <br>
  47:D:/DAVE IDE/4.5.0.202105191637/eclipse/workspace/bldcmotor/Libraries/XMCLib/inc\xmc_gpio.h ****  *
  48:D:/DAVE IDE/4.5.0.202105191637/eclipse/workspace/bldcmotor/Libraries/XMCLib/inc\xmc_gpio.h ****  * 2015-06-20:
  49:D:/DAVE IDE/4.5.0.202105191637/eclipse/workspace/bldcmotor/Libraries/XMCLib/inc\xmc_gpio.h ****  *     - Removed version macros and declaration of GetDriverVersion API
  50:D:/DAVE IDE/4.5.0.202105191637/eclipse/workspace/bldcmotor/Libraries/XMCLib/inc\xmc_gpio.h ****  *
  51:D:/DAVE IDE/4.5.0.202105191637/eclipse/workspace/bldcmotor/Libraries/XMCLib/inc\xmc_gpio.h ****  * @endcond
  52:D:/DAVE IDE/4.5.0.202105191637/eclipse/workspace/bldcmotor/Libraries/XMCLib/inc\xmc_gpio.h ****  *
  53:D:/DAVE IDE/4.5.0.202105191637/eclipse/workspace/bldcmotor/Libraries/XMCLib/inc\xmc_gpio.h ****  */
  54:D:/DAVE IDE/4.5.0.202105191637/eclipse/workspace/bldcmotor/Libraries/XMCLib/inc\xmc_gpio.h **** 
  55:D:/DAVE IDE/4.5.0.202105191637/eclipse/workspace/bldcmotor/Libraries/XMCLib/inc\xmc_gpio.h **** #ifndef XMC_GPIO_H
  56:D:/DAVE IDE/4.5.0.202105191637/eclipse/workspace/bldcmotor/Libraries/XMCLib/inc\xmc_gpio.h **** #define XMC_GPIO_H
  57:D:/DAVE IDE/4.5.0.202105191637/eclipse/workspace/bldcmotor/Libraries/XMCLib/inc\xmc_gpio.h **** 
  58:D:/DAVE IDE/4.5.0.202105191637/eclipse/workspace/bldcmotor/Libraries/XMCLib/inc\xmc_gpio.h **** /**************************************************************************************************
  59:D:/DAVE IDE/4.5.0.202105191637/eclipse/workspace/bldcmotor/Libraries/XMCLib/inc\xmc_gpio.h ****  * HEADER FILES
  60:D:/DAVE IDE/4.5.0.202105191637/eclipse/workspace/bldcmotor/Libraries/XMCLib/inc\xmc_gpio.h ****  **************************************************************************************************
  61:D:/DAVE IDE/4.5.0.202105191637/eclipse/workspace/bldcmotor/Libraries/XMCLib/inc\xmc_gpio.h **** 
  62:D:/DAVE IDE/4.5.0.202105191637/eclipse/workspace/bldcmotor/Libraries/XMCLib/inc\xmc_gpio.h **** #include "xmc_common.h"
  63:D:/DAVE IDE/4.5.0.202105191637/eclipse/workspace/bldcmotor/Libraries/XMCLib/inc\xmc_gpio.h **** 
  64:D:/DAVE IDE/4.5.0.202105191637/eclipse/workspace/bldcmotor/Libraries/XMCLib/inc\xmc_gpio.h **** /**
  65:D:/DAVE IDE/4.5.0.202105191637/eclipse/workspace/bldcmotor/Libraries/XMCLib/inc\xmc_gpio.h ****  * @addtogroup XMClib XMC Peripheral Library
  66:D:/DAVE IDE/4.5.0.202105191637/eclipse/workspace/bldcmotor/Libraries/XMCLib/inc\xmc_gpio.h ****  * @{
  67:D:/DAVE IDE/4.5.0.202105191637/eclipse/workspace/bldcmotor/Libraries/XMCLib/inc\xmc_gpio.h ****  */
  68:D:/DAVE IDE/4.5.0.202105191637/eclipse/workspace/bldcmotor/Libraries/XMCLib/inc\xmc_gpio.h **** 
  69:D:/DAVE IDE/4.5.0.202105191637/eclipse/workspace/bldcmotor/Libraries/XMCLib/inc\xmc_gpio.h **** /**
  70:D:/DAVE IDE/4.5.0.202105191637/eclipse/workspace/bldcmotor/Libraries/XMCLib/inc\xmc_gpio.h ****  * @addtogroup GPIO
  71:D:/DAVE IDE/4.5.0.202105191637/eclipse/workspace/bldcmotor/Libraries/XMCLib/inc\xmc_gpio.h ****  * @brief General Purpose Input Output (GPIO) driver for the XMC microcontroller family.
  72:D:/DAVE IDE/4.5.0.202105191637/eclipse/workspace/bldcmotor/Libraries/XMCLib/inc\xmc_gpio.h ****  *
  73:D:/DAVE IDE/4.5.0.202105191637/eclipse/workspace/bldcmotor/Libraries/XMCLib/inc\xmc_gpio.h ****  * GPIO driver provide a generic and very flexible software interface for all standard digital I/O 
  74:D:/DAVE IDE/4.5.0.202105191637/eclipse/workspace/bldcmotor/Libraries/XMCLib/inc\xmc_gpio.h ****  * Each port slice has individual interfaces for the operation as General Purpose I/O and it furthe
  75:D:/DAVE IDE/4.5.0.202105191637/eclipse/workspace/bldcmotor/Libraries/XMCLib/inc\xmc_gpio.h ****  * connectivity to the on-chip periphery and the control for the pad characteristics.
  76:D:/DAVE IDE/4.5.0.202105191637/eclipse/workspace/bldcmotor/Libraries/XMCLib/inc\xmc_gpio.h ****  *
  77:D:/DAVE IDE/4.5.0.202105191637/eclipse/workspace/bldcmotor/Libraries/XMCLib/inc\xmc_gpio.h ****  * The driver is divided into Input and Output mode.
  78:D:/DAVE IDE/4.5.0.202105191637/eclipse/workspace/bldcmotor/Libraries/XMCLib/inc\xmc_gpio.h ****  *
  79:D:/DAVE IDE/4.5.0.202105191637/eclipse/workspace/bldcmotor/Libraries/XMCLib/inc\xmc_gpio.h ****  * Input mode features:
  80:D:/DAVE IDE/4.5.0.202105191637/eclipse/workspace/bldcmotor/Libraries/XMCLib/inc\xmc_gpio.h ****  * -# Configuration structure XMC_GPIO_CONFIG_t and initialization function XMC_GPIO_Init()
  81:D:/DAVE IDE/4.5.0.202105191637/eclipse/workspace/bldcmotor/Libraries/XMCLib/inc\xmc_gpio.h ****  * -# Allows the selection of weak pull-up or pull-down device. Configuration structure XMC_GPIO_MO
  82:D:/DAVE IDE/4.5.0.202105191637/eclipse/workspace/bldcmotor/Libraries/XMCLib/inc\xmc_gpio.h ****  * \if XMC1
  83:D:/DAVE IDE/4.5.0.202105191637/eclipse/workspace/bldcmotor/Libraries/XMCLib/inc\xmc_gpio.h ****  * -# Allows the selection of input hysteresis. XMC_GPIO_SetInputHysteresis()
  84:D:/DAVE IDE/4.5.0.202105191637/eclipse/workspace/bldcmotor/Libraries/XMCLib/inc\xmc_gpio.h ****  * \endif
  85:D:/DAVE IDE/4.5.0.202105191637/eclipse/workspace/bldcmotor/Libraries/XMCLib/inc\xmc_gpio.h ****  *
  86:D:/DAVE IDE/4.5.0.202105191637/eclipse/workspace/bldcmotor/Libraries/XMCLib/inc\xmc_gpio.h ****  *
  87:D:/DAVE IDE/4.5.0.202105191637/eclipse/workspace/bldcmotor/Libraries/XMCLib/inc\xmc_gpio.h ****  * Output mode features:
  88:D:/DAVE IDE/4.5.0.202105191637/eclipse/workspace/bldcmotor/Libraries/XMCLib/inc\xmc_gpio.h ****  * -# Allows the selection of push pull/open drain and Alternate output. Configuration structure XM
  89:D:/DAVE IDE/4.5.0.202105191637/eclipse/workspace/bldcmotor/Libraries/XMCLib/inc\xmc_gpio.h ****  * \if XMC4
  90:D:/DAVE IDE/4.5.0.202105191637/eclipse/workspace/bldcmotor/Libraries/XMCLib/inc\xmc_gpio.h ****  * -# Allows the selection of pad driver strength. Configuration structure XMC_GPIO_OUTPUT_STRENGTH
  91:D:/DAVE IDE/4.5.0.202105191637/eclipse/workspace/bldcmotor/Libraries/XMCLib/inc\xmc_gpio.h ****  * \endif
  92:D:/DAVE IDE/4.5.0.202105191637/eclipse/workspace/bldcmotor/Libraries/XMCLib/inc\xmc_gpio.h ****  *
  93:D:/DAVE IDE/4.5.0.202105191637/eclipse/workspace/bldcmotor/Libraries/XMCLib/inc\xmc_gpio.h ****  * -# Allows the selection of initial output level. Configuration structure XMC_GPIO_OUTPUT_LEVEL_t
  94:D:/DAVE IDE/4.5.0.202105191637/eclipse/workspace/bldcmotor/Libraries/XMCLib/inc\xmc_gpio.h ****  *
  95:D:/DAVE IDE/4.5.0.202105191637/eclipse/workspace/bldcmotor/Libraries/XMCLib/inc\xmc_gpio.h ****  *@{
  96:D:/DAVE IDE/4.5.0.202105191637/eclipse/workspace/bldcmotor/Libraries/XMCLib/inc\xmc_gpio.h ****  */
  97:D:/DAVE IDE/4.5.0.202105191637/eclipse/workspace/bldcmotor/Libraries/XMCLib/inc\xmc_gpio.h **** 
  98:D:/DAVE IDE/4.5.0.202105191637/eclipse/workspace/bldcmotor/Libraries/XMCLib/inc\xmc_gpio.h **** /**************************************************************************************************
  99:D:/DAVE IDE/4.5.0.202105191637/eclipse/workspace/bldcmotor/Libraries/XMCLib/inc\xmc_gpio.h ****  * MACROS
 100:D:/DAVE IDE/4.5.0.202105191637/eclipse/workspace/bldcmotor/Libraries/XMCLib/inc\xmc_gpio.h ****  **************************************************************************************************
 101:D:/DAVE IDE/4.5.0.202105191637/eclipse/workspace/bldcmotor/Libraries/XMCLib/inc\xmc_gpio.h **** 
 102:D:/DAVE IDE/4.5.0.202105191637/eclipse/workspace/bldcmotor/Libraries/XMCLib/inc\xmc_gpio.h **** #define PORT_IOCR_PC_Pos PORT0_IOCR0_PC0_Pos
 103:D:/DAVE IDE/4.5.0.202105191637/eclipse/workspace/bldcmotor/Libraries/XMCLib/inc\xmc_gpio.h **** #define PORT_IOCR_PC_Msk PORT0_IOCR0_PC0_Msk
 104:D:/DAVE IDE/4.5.0.202105191637/eclipse/workspace/bldcmotor/Libraries/XMCLib/inc\xmc_gpio.h **** 
 105:D:/DAVE IDE/4.5.0.202105191637/eclipse/workspace/bldcmotor/Libraries/XMCLib/inc\xmc_gpio.h **** #define PORT_IOCR_PC_Size 				(8U)
 106:D:/DAVE IDE/4.5.0.202105191637/eclipse/workspace/bldcmotor/Libraries/XMCLib/inc\xmc_gpio.h **** 
 107:D:/DAVE IDE/4.5.0.202105191637/eclipse/workspace/bldcmotor/Libraries/XMCLib/inc\xmc_gpio.h **** 
 108:D:/DAVE IDE/4.5.0.202105191637/eclipse/workspace/bldcmotor/Libraries/XMCLib/inc\xmc_gpio.h **** #define XMC_GPIO_CHECK_OUTPUT_LEVEL(level) ((level == XMC_GPIO_OUTPUT_LEVEL_LOW) || \
 109:D:/DAVE IDE/4.5.0.202105191637/eclipse/workspace/bldcmotor/Libraries/XMCLib/inc\xmc_gpio.h ****                                             (level == XMC_GPIO_OUTPUT_LEVEL_HIGH))
 110:D:/DAVE IDE/4.5.0.202105191637/eclipse/workspace/bldcmotor/Libraries/XMCLib/inc\xmc_gpio.h **** 
 111:D:/DAVE IDE/4.5.0.202105191637/eclipse/workspace/bldcmotor/Libraries/XMCLib/inc\xmc_gpio.h **** #define XMC_GPIO_CHECK_HWCTRL(hwctrl) ((hwctrl == XMC_GPIO_HWCTRL_DISABLED) || \
 112:D:/DAVE IDE/4.5.0.202105191637/eclipse/workspace/bldcmotor/Libraries/XMCLib/inc\xmc_gpio.h ****                                        (hwctrl == XMC_GPIO_HWCTRL_PERIPHERAL1) || \
 113:D:/DAVE IDE/4.5.0.202105191637/eclipse/workspace/bldcmotor/Libraries/XMCLib/inc\xmc_gpio.h ****                                        (hwctrl == XMC_GPIO_HWCTRL_PERIPHERAL2))
 114:D:/DAVE IDE/4.5.0.202105191637/eclipse/workspace/bldcmotor/Libraries/XMCLib/inc\xmc_gpio.h **** 
 115:D:/DAVE IDE/4.5.0.202105191637/eclipse/workspace/bldcmotor/Libraries/XMCLib/inc\xmc_gpio.h **** /**************************************************************************************************
 116:D:/DAVE IDE/4.5.0.202105191637/eclipse/workspace/bldcmotor/Libraries/XMCLib/inc\xmc_gpio.h ****  * ENUMS
 117:D:/DAVE IDE/4.5.0.202105191637/eclipse/workspace/bldcmotor/Libraries/XMCLib/inc\xmc_gpio.h ****  **************************************************************************************************
 118:D:/DAVE IDE/4.5.0.202105191637/eclipse/workspace/bldcmotor/Libraries/XMCLib/inc\xmc_gpio.h **** 
 119:D:/DAVE IDE/4.5.0.202105191637/eclipse/workspace/bldcmotor/Libraries/XMCLib/inc\xmc_gpio.h **** 
 120:D:/DAVE IDE/4.5.0.202105191637/eclipse/workspace/bldcmotor/Libraries/XMCLib/inc\xmc_gpio.h **** /**
 121:D:/DAVE IDE/4.5.0.202105191637/eclipse/workspace/bldcmotor/Libraries/XMCLib/inc\xmc_gpio.h ****  * Defines output level of a pin. Use type \a XMC_GPIO_OUTPUT_LEVEL_t for this enum.
 122:D:/DAVE IDE/4.5.0.202105191637/eclipse/workspace/bldcmotor/Libraries/XMCLib/inc\xmc_gpio.h ****  */
 123:D:/DAVE IDE/4.5.0.202105191637/eclipse/workspace/bldcmotor/Libraries/XMCLib/inc\xmc_gpio.h **** typedef enum XMC_GPIO_OUTPUT_LEVEL
 124:D:/DAVE IDE/4.5.0.202105191637/eclipse/workspace/bldcmotor/Libraries/XMCLib/inc\xmc_gpio.h **** {
 125:D:/DAVE IDE/4.5.0.202105191637/eclipse/workspace/bldcmotor/Libraries/XMCLib/inc\xmc_gpio.h ****   XMC_GPIO_OUTPUT_LEVEL_LOW  = 0x10000U, /**<  Reset bit */
 126:D:/DAVE IDE/4.5.0.202105191637/eclipse/workspace/bldcmotor/Libraries/XMCLib/inc\xmc_gpio.h ****   XMC_GPIO_OUTPUT_LEVEL_HIGH = 0x1U, 	/**< Set bit  */
 127:D:/DAVE IDE/4.5.0.202105191637/eclipse/workspace/bldcmotor/Libraries/XMCLib/inc\xmc_gpio.h **** } XMC_GPIO_OUTPUT_LEVEL_t;
 128:D:/DAVE IDE/4.5.0.202105191637/eclipse/workspace/bldcmotor/Libraries/XMCLib/inc\xmc_gpio.h **** 
 129:D:/DAVE IDE/4.5.0.202105191637/eclipse/workspace/bldcmotor/Libraries/XMCLib/inc\xmc_gpio.h **** /**
 130:D:/DAVE IDE/4.5.0.202105191637/eclipse/workspace/bldcmotor/Libraries/XMCLib/inc\xmc_gpio.h ****  * Defines direct hardware control characteristics of the pin . Use type \a XMC_GPIO_HWCTRL_t for t
 131:D:/DAVE IDE/4.5.0.202105191637/eclipse/workspace/bldcmotor/Libraries/XMCLib/inc\xmc_gpio.h ****  */
 132:D:/DAVE IDE/4.5.0.202105191637/eclipse/workspace/bldcmotor/Libraries/XMCLib/inc\xmc_gpio.h **** typedef enum XMC_GPIO_HWCTRL
 133:D:/DAVE IDE/4.5.0.202105191637/eclipse/workspace/bldcmotor/Libraries/XMCLib/inc\xmc_gpio.h **** {
 134:D:/DAVE IDE/4.5.0.202105191637/eclipse/workspace/bldcmotor/Libraries/XMCLib/inc\xmc_gpio.h ****   XMC_GPIO_HWCTRL_DISABLED     = 0x0U, /**<  Software control only */
 135:D:/DAVE IDE/4.5.0.202105191637/eclipse/workspace/bldcmotor/Libraries/XMCLib/inc\xmc_gpio.h ****   XMC_GPIO_HWCTRL_PERIPHERAL1  = 0x1U, /**<  HWI0/HWO0 control path can override the software confi
 136:D:/DAVE IDE/4.5.0.202105191637/eclipse/workspace/bldcmotor/Libraries/XMCLib/inc\xmc_gpio.h ****   XMC_GPIO_HWCTRL_PERIPHERAL2  = 0x2U  /**<  HWI1/HWO1 control path can override the software confi
 137:D:/DAVE IDE/4.5.0.202105191637/eclipse/workspace/bldcmotor/Libraries/XMCLib/inc\xmc_gpio.h **** } XMC_GPIO_HWCTRL_t;
 138:D:/DAVE IDE/4.5.0.202105191637/eclipse/workspace/bldcmotor/Libraries/XMCLib/inc\xmc_gpio.h **** 
 139:D:/DAVE IDE/4.5.0.202105191637/eclipse/workspace/bldcmotor/Libraries/XMCLib/inc\xmc_gpio.h **** /**************************************************************************************************
 140:D:/DAVE IDE/4.5.0.202105191637/eclipse/workspace/bldcmotor/Libraries/XMCLib/inc\xmc_gpio.h ****  * DEVICE FAMILY EXTENSIONS
 141:D:/DAVE IDE/4.5.0.202105191637/eclipse/workspace/bldcmotor/Libraries/XMCLib/inc\xmc_gpio.h ****  **************************************************************************************************
 142:D:/DAVE IDE/4.5.0.202105191637/eclipse/workspace/bldcmotor/Libraries/XMCLib/inc\xmc_gpio.h **** 
 143:D:/DAVE IDE/4.5.0.202105191637/eclipse/workspace/bldcmotor/Libraries/XMCLib/inc\xmc_gpio.h **** #if UC_FAMILY == XMC1
 144:D:/DAVE IDE/4.5.0.202105191637/eclipse/workspace/bldcmotor/Libraries/XMCLib/inc\xmc_gpio.h **** #include "xmc1_gpio.h"
 145:D:/DAVE IDE/4.5.0.202105191637/eclipse/workspace/bldcmotor/Libraries/XMCLib/inc\xmc_gpio.h **** #elif UC_FAMILY == XMC4
 146:D:/DAVE IDE/4.5.0.202105191637/eclipse/workspace/bldcmotor/Libraries/XMCLib/inc\xmc_gpio.h **** #include "xmc4_gpio.h"
 147:D:/DAVE IDE/4.5.0.202105191637/eclipse/workspace/bldcmotor/Libraries/XMCLib/inc\xmc_gpio.h **** #else
 148:D:/DAVE IDE/4.5.0.202105191637/eclipse/workspace/bldcmotor/Libraries/XMCLib/inc\xmc_gpio.h **** #error "xmc_gpio.h: family device not supported"
 149:D:/DAVE IDE/4.5.0.202105191637/eclipse/workspace/bldcmotor/Libraries/XMCLib/inc\xmc_gpio.h **** #endif
 150:D:/DAVE IDE/4.5.0.202105191637/eclipse/workspace/bldcmotor/Libraries/XMCLib/inc\xmc_gpio.h **** 
 151:D:/DAVE IDE/4.5.0.202105191637/eclipse/workspace/bldcmotor/Libraries/XMCLib/inc\xmc_gpio.h **** /**************************************************************************************************
 152:D:/DAVE IDE/4.5.0.202105191637/eclipse/workspace/bldcmotor/Libraries/XMCLib/inc\xmc_gpio.h ****  * API PROTOTYPES
 153:D:/DAVE IDE/4.5.0.202105191637/eclipse/workspace/bldcmotor/Libraries/XMCLib/inc\xmc_gpio.h ****  **************************************************************************************************
 154:D:/DAVE IDE/4.5.0.202105191637/eclipse/workspace/bldcmotor/Libraries/XMCLib/inc\xmc_gpio.h **** 
 155:D:/DAVE IDE/4.5.0.202105191637/eclipse/workspace/bldcmotor/Libraries/XMCLib/inc\xmc_gpio.h **** #ifdef __cplusplus
 156:D:/DAVE IDE/4.5.0.202105191637/eclipse/workspace/bldcmotor/Libraries/XMCLib/inc\xmc_gpio.h **** extern "C" {
 157:D:/DAVE IDE/4.5.0.202105191637/eclipse/workspace/bldcmotor/Libraries/XMCLib/inc\xmc_gpio.h **** #endif
 158:D:/DAVE IDE/4.5.0.202105191637/eclipse/workspace/bldcmotor/Libraries/XMCLib/inc\xmc_gpio.h **** 
 159:D:/DAVE IDE/4.5.0.202105191637/eclipse/workspace/bldcmotor/Libraries/XMCLib/inc\xmc_gpio.h **** 
 160:D:/DAVE IDE/4.5.0.202105191637/eclipse/workspace/bldcmotor/Libraries/XMCLib/inc\xmc_gpio.h **** /**
 161:D:/DAVE IDE/4.5.0.202105191637/eclipse/workspace/bldcmotor/Libraries/XMCLib/inc\xmc_gpio.h ****  * @param  port	  Constant pointer pointing to GPIO port, to access port registers like Pn_OUT,Pn_O
 162:D:/DAVE IDE/4.5.0.202105191637/eclipse/workspace/bldcmotor/Libraries/XMCLib/inc\xmc_gpio.h ****  * @param  pin	  Port pin number.
 163:D:/DAVE IDE/4.5.0.202105191637/eclipse/workspace/bldcmotor/Libraries/XMCLib/inc\xmc_gpio.h ****  * @param  config GPIO configuration data structure. Refer data structure @ref XMC_GPIO_CONFIG_t fo
 164:D:/DAVE IDE/4.5.0.202105191637/eclipse/workspace/bldcmotor/Libraries/XMCLib/inc\xmc_gpio.h ****  *
 165:D:/DAVE IDE/4.5.0.202105191637/eclipse/workspace/bldcmotor/Libraries/XMCLib/inc\xmc_gpio.h ****  * @return None
 166:D:/DAVE IDE/4.5.0.202105191637/eclipse/workspace/bldcmotor/Libraries/XMCLib/inc\xmc_gpio.h ****  *
 167:D:/DAVE IDE/4.5.0.202105191637/eclipse/workspace/bldcmotor/Libraries/XMCLib/inc\xmc_gpio.h ****  * \par<b>Description:</b><br>
 168:D:/DAVE IDE/4.5.0.202105191637/eclipse/workspace/bldcmotor/Libraries/XMCLib/inc\xmc_gpio.h ****  * \if XMC1
 169:D:/DAVE IDE/4.5.0.202105191637/eclipse/workspace/bldcmotor/Libraries/XMCLib/inc\xmc_gpio.h ****  * Initializes input / output mode settings like, pull up / pull down devices,hysteresis, push pull
 170:D:/DAVE IDE/4.5.0.202105191637/eclipse/workspace/bldcmotor/Libraries/XMCLib/inc\xmc_gpio.h ****  * Also configures alternate function outputs and clears hardware port control for a selected \a po
 171:D:/DAVE IDE/4.5.0.202105191637/eclipse/workspace/bldcmotor/Libraries/XMCLib/inc\xmc_gpio.h ****  * \a config provides selected I/O settings. It configures hardware registers Pn_IOCR,Pn_OUT, Pn_OM
 172:D:/DAVE IDE/4.5.0.202105191637/eclipse/workspace/bldcmotor/Libraries/XMCLib/inc\xmc_gpio.h ****  * \endif
 173:D:/DAVE IDE/4.5.0.202105191637/eclipse/workspace/bldcmotor/Libraries/XMCLib/inc\xmc_gpio.h ****  * \if XMC4
 174:D:/DAVE IDE/4.5.0.202105191637/eclipse/workspace/bldcmotor/Libraries/XMCLib/inc\xmc_gpio.h ****  * Initializes input / output mode settings like, pull up / pull down devices,push pull /open drain
 175:D:/DAVE IDE/4.5.0.202105191637/eclipse/workspace/bldcmotor/Libraries/XMCLib/inc\xmc_gpio.h ****  * Also configures alternate function outputs and clears hardware port control for selected \a port
 176:D:/DAVE IDE/4.5.0.202105191637/eclipse/workspace/bldcmotor/Libraries/XMCLib/inc\xmc_gpio.h ****  * It configures hardware registers Pn_IOCR,Pn_OUT,Pn_OMR,Pn_PDISC and Pn_PDR.\n
 177:D:/DAVE IDE/4.5.0.202105191637/eclipse/workspace/bldcmotor/Libraries/XMCLib/inc\xmc_gpio.h ****  * \endif
 178:D:/DAVE IDE/4.5.0.202105191637/eclipse/workspace/bldcmotor/Libraries/XMCLib/inc\xmc_gpio.h ****  *
 179:D:/DAVE IDE/4.5.0.202105191637/eclipse/workspace/bldcmotor/Libraries/XMCLib/inc\xmc_gpio.h ****  * \par<b>Related APIs:</b><BR>
 180:D:/DAVE IDE/4.5.0.202105191637/eclipse/workspace/bldcmotor/Libraries/XMCLib/inc\xmc_gpio.h ****  *  None
 181:D:/DAVE IDE/4.5.0.202105191637/eclipse/workspace/bldcmotor/Libraries/XMCLib/inc\xmc_gpio.h ****  *
 182:D:/DAVE IDE/4.5.0.202105191637/eclipse/workspace/bldcmotor/Libraries/XMCLib/inc\xmc_gpio.h ****  * \par<b>Note:</b><br>
 183:D:/DAVE IDE/4.5.0.202105191637/eclipse/workspace/bldcmotor/Libraries/XMCLib/inc\xmc_gpio.h ****  * This API is called in definition of DAVE_init by code generation and therefore should not be exp
 184:D:/DAVE IDE/4.5.0.202105191637/eclipse/workspace/bldcmotor/Libraries/XMCLib/inc\xmc_gpio.h ****  * for the normal operation. Use other APIs only after DAVE_init is called successfully (returns DA
 185:D:/DAVE IDE/4.5.0.202105191637/eclipse/workspace/bldcmotor/Libraries/XMCLib/inc\xmc_gpio.h ****  *
 186:D:/DAVE IDE/4.5.0.202105191637/eclipse/workspace/bldcmotor/Libraries/XMCLib/inc\xmc_gpio.h ****  *
 187:D:/DAVE IDE/4.5.0.202105191637/eclipse/workspace/bldcmotor/Libraries/XMCLib/inc\xmc_gpio.h ****  */
 188:D:/DAVE IDE/4.5.0.202105191637/eclipse/workspace/bldcmotor/Libraries/XMCLib/inc\xmc_gpio.h **** 
 189:D:/DAVE IDE/4.5.0.202105191637/eclipse/workspace/bldcmotor/Libraries/XMCLib/inc\xmc_gpio.h **** 
 190:D:/DAVE IDE/4.5.0.202105191637/eclipse/workspace/bldcmotor/Libraries/XMCLib/inc\xmc_gpio.h **** void XMC_GPIO_Init(XMC_GPIO_PORT_t *const port, const uint8_t pin, const XMC_GPIO_CONFIG_t *const c
 191:D:/DAVE IDE/4.5.0.202105191637/eclipse/workspace/bldcmotor/Libraries/XMCLib/inc\xmc_gpio.h **** 
 192:D:/DAVE IDE/4.5.0.202105191637/eclipse/workspace/bldcmotor/Libraries/XMCLib/inc\xmc_gpio.h **** /**
 193:D:/DAVE IDE/4.5.0.202105191637/eclipse/workspace/bldcmotor/Libraries/XMCLib/inc\xmc_gpio.h ****  *
 194:D:/DAVE IDE/4.5.0.202105191637/eclipse/workspace/bldcmotor/Libraries/XMCLib/inc\xmc_gpio.h ****  * @param  port	Constant pointer pointing to GPIO port, to access hardware register Pn_IOCR.
 195:D:/DAVE IDE/4.5.0.202105191637/eclipse/workspace/bldcmotor/Libraries/XMCLib/inc\xmc_gpio.h ****  * @param  pin	Port pin number.
 196:D:/DAVE IDE/4.5.0.202105191637/eclipse/workspace/bldcmotor/Libraries/XMCLib/inc\xmc_gpio.h ****  * @param  mode input / output functionality selection. Refer @ref XMC_GPIO_MODE_t for valid values
 197:D:/DAVE IDE/4.5.0.202105191637/eclipse/workspace/bldcmotor/Libraries/XMCLib/inc\xmc_gpio.h ****  *
 198:D:/DAVE IDE/4.5.0.202105191637/eclipse/workspace/bldcmotor/Libraries/XMCLib/inc\xmc_gpio.h ****  * @return None
 199:D:/DAVE IDE/4.5.0.202105191637/eclipse/workspace/bldcmotor/Libraries/XMCLib/inc\xmc_gpio.h ****  *
 200:D:/DAVE IDE/4.5.0.202105191637/eclipse/workspace/bldcmotor/Libraries/XMCLib/inc\xmc_gpio.h ****  * \par<b>Description:</b><br>
 201:D:/DAVE IDE/4.5.0.202105191637/eclipse/workspace/bldcmotor/Libraries/XMCLib/inc\xmc_gpio.h ****  * Sets digital input and output driver functionality and characteristics of a GPIO port pin. It co
 202:D:/DAVE IDE/4.5.0.202105191637/eclipse/workspace/bldcmotor/Libraries/XMCLib/inc\xmc_gpio.h ****  * registers Pn_IOCR. \a mode is initially configured during initialization in XMC_GPIO_Init(). Cal
 203:D:/DAVE IDE/4.5.0.202105191637/eclipse/workspace/bldcmotor/Libraries/XMCLib/inc\xmc_gpio.h ****  * the port direction functionality as needed later in the program.
 204:D:/DAVE IDE/4.5.0.202105191637/eclipse/workspace/bldcmotor/Libraries/XMCLib/inc\xmc_gpio.h ****  *
 205:D:/DAVE IDE/4.5.0.202105191637/eclipse/workspace/bldcmotor/Libraries/XMCLib/inc\xmc_gpio.h ****  * \par<b>Related APIs:</b><BR>
 206:D:/DAVE IDE/4.5.0.202105191637/eclipse/workspace/bldcmotor/Libraries/XMCLib/inc\xmc_gpio.h ****  *  None
 207:D:/DAVE IDE/4.5.0.202105191637/eclipse/workspace/bldcmotor/Libraries/XMCLib/inc\xmc_gpio.h ****  *
 208:D:/DAVE IDE/4.5.0.202105191637/eclipse/workspace/bldcmotor/Libraries/XMCLib/inc\xmc_gpio.h ****  */
 209:D:/DAVE IDE/4.5.0.202105191637/eclipse/workspace/bldcmotor/Libraries/XMCLib/inc\xmc_gpio.h **** 
 210:D:/DAVE IDE/4.5.0.202105191637/eclipse/workspace/bldcmotor/Libraries/XMCLib/inc\xmc_gpio.h **** void XMC_GPIO_SetMode(XMC_GPIO_PORT_t *const port, const uint8_t pin, const XMC_GPIO_MODE_t mode);
 211:D:/DAVE IDE/4.5.0.202105191637/eclipse/workspace/bldcmotor/Libraries/XMCLib/inc\xmc_gpio.h **** 
 212:D:/DAVE IDE/4.5.0.202105191637/eclipse/workspace/bldcmotor/Libraries/XMCLib/inc\xmc_gpio.h **** 
 213:D:/DAVE IDE/4.5.0.202105191637/eclipse/workspace/bldcmotor/Libraries/XMCLib/inc\xmc_gpio.h **** /**
 214:D:/DAVE IDE/4.5.0.202105191637/eclipse/workspace/bldcmotor/Libraries/XMCLib/inc\xmc_gpio.h ****  *
 215:D:/DAVE IDE/4.5.0.202105191637/eclipse/workspace/bldcmotor/Libraries/XMCLib/inc\xmc_gpio.h ****  * @param  port	 Constant pointer pointing to GPIO port, to access hardware register Pn_OMR.
 216:D:/DAVE IDE/4.5.0.202105191637/eclipse/workspace/bldcmotor/Libraries/XMCLib/inc\xmc_gpio.h ****  * @param  pin	 Port pin number.
 217:D:/DAVE IDE/4.5.0.202105191637/eclipse/workspace/bldcmotor/Libraries/XMCLib/inc\xmc_gpio.h ****  * @param  level output level selection. Refer @ref XMC_GPIO_OUTPUT_LEVEL_t for valid values.
 218:D:/DAVE IDE/4.5.0.202105191637/eclipse/workspace/bldcmotor/Libraries/XMCLib/inc\xmc_gpio.h ****  *
 219:D:/DAVE IDE/4.5.0.202105191637/eclipse/workspace/bldcmotor/Libraries/XMCLib/inc\xmc_gpio.h ****  * @return None
 220:D:/DAVE IDE/4.5.0.202105191637/eclipse/workspace/bldcmotor/Libraries/XMCLib/inc\xmc_gpio.h ****  *
 221:D:/DAVE IDE/4.5.0.202105191637/eclipse/workspace/bldcmotor/Libraries/XMCLib/inc\xmc_gpio.h ****  * \par<b>Description:</b><br>
 222:D:/DAVE IDE/4.5.0.202105191637/eclipse/workspace/bldcmotor/Libraries/XMCLib/inc\xmc_gpio.h ****  * Set port pin output level to high or low.It configures hardware registers Pn_OMR.\a level is ini
 223:D:/DAVE IDE/4.5.0.202105191637/eclipse/workspace/bldcmotor/Libraries/XMCLib/inc\xmc_gpio.h ****  * configured during initialization in XMC_GPIO_Init(). Call this API to alter output level as need
 224:D:/DAVE IDE/4.5.0.202105191637/eclipse/workspace/bldcmotor/Libraries/XMCLib/inc\xmc_gpio.h ****  *
 225:D:/DAVE IDE/4.5.0.202105191637/eclipse/workspace/bldcmotor/Libraries/XMCLib/inc\xmc_gpio.h ****  * \par<b>Related APIs:</b><BR>
 226:D:/DAVE IDE/4.5.0.202105191637/eclipse/workspace/bldcmotor/Libraries/XMCLib/inc\xmc_gpio.h ****  *  XMC_GPIO_SetOutputHigh(), XMC_GPIO_SetOutputLow().
 227:D:/DAVE IDE/4.5.0.202105191637/eclipse/workspace/bldcmotor/Libraries/XMCLib/inc\xmc_gpio.h ****  *
 228:D:/DAVE IDE/4.5.0.202105191637/eclipse/workspace/bldcmotor/Libraries/XMCLib/inc\xmc_gpio.h ****  * \par<b>Note:</b><br>
 229:D:/DAVE IDE/4.5.0.202105191637/eclipse/workspace/bldcmotor/Libraries/XMCLib/inc\xmc_gpio.h ****  * Prior to this api, user has to configure port pin to output mode using XMC_GPIO_SetMode().
 230:D:/DAVE IDE/4.5.0.202105191637/eclipse/workspace/bldcmotor/Libraries/XMCLib/inc\xmc_gpio.h ****  *
 231:D:/DAVE IDE/4.5.0.202105191637/eclipse/workspace/bldcmotor/Libraries/XMCLib/inc\xmc_gpio.h ****  */
 232:D:/DAVE IDE/4.5.0.202105191637/eclipse/workspace/bldcmotor/Libraries/XMCLib/inc\xmc_gpio.h **** 
 233:D:/DAVE IDE/4.5.0.202105191637/eclipse/workspace/bldcmotor/Libraries/XMCLib/inc\xmc_gpio.h **** 
 234:D:/DAVE IDE/4.5.0.202105191637/eclipse/workspace/bldcmotor/Libraries/XMCLib/inc\xmc_gpio.h **** __STATIC_INLINE void XMC_GPIO_SetOutputLevel(XMC_GPIO_PORT_t *const port, const uint8_t pin, const 
 235:D:/DAVE IDE/4.5.0.202105191637/eclipse/workspace/bldcmotor/Libraries/XMCLib/inc\xmc_gpio.h **** {
 236:D:/DAVE IDE/4.5.0.202105191637/eclipse/workspace/bldcmotor/Libraries/XMCLib/inc\xmc_gpio.h ****   XMC_ASSERT("XMC_GPIO_SetOutputLevel: Invalid port", XMC_GPIO_CHECK_OUTPUT_PORT(port));
 237:D:/DAVE IDE/4.5.0.202105191637/eclipse/workspace/bldcmotor/Libraries/XMCLib/inc\xmc_gpio.h ****   XMC_ASSERT("XMC_GPIO_SetOutputLevel: Invalid output level", XMC_GPIO_CHECK_OUTPUT_LEVEL(level));
 238:D:/DAVE IDE/4.5.0.202105191637/eclipse/workspace/bldcmotor/Libraries/XMCLib/inc\xmc_gpio.h **** 
 239:D:/DAVE IDE/4.5.0.202105191637/eclipse/workspace/bldcmotor/Libraries/XMCLib/inc\xmc_gpio.h ****   port->OMR = (uint32_t)level << pin;
 240:D:/DAVE IDE/4.5.0.202105191637/eclipse/workspace/bldcmotor/Libraries/XMCLib/inc\xmc_gpio.h **** }
 241:D:/DAVE IDE/4.5.0.202105191637/eclipse/workspace/bldcmotor/Libraries/XMCLib/inc\xmc_gpio.h **** 
 242:D:/DAVE IDE/4.5.0.202105191637/eclipse/workspace/bldcmotor/Libraries/XMCLib/inc\xmc_gpio.h **** 
 243:D:/DAVE IDE/4.5.0.202105191637/eclipse/workspace/bldcmotor/Libraries/XMCLib/inc\xmc_gpio.h **** /**
 244:D:/DAVE IDE/4.5.0.202105191637/eclipse/workspace/bldcmotor/Libraries/XMCLib/inc\xmc_gpio.h ****  * @param  port constant pointer pointing to GPIO port, to access hardware register Pn_OMR.
 245:D:/DAVE IDE/4.5.0.202105191637/eclipse/workspace/bldcmotor/Libraries/XMCLib/inc\xmc_gpio.h ****  * @param  pin	Port pin number.
 246:D:/DAVE IDE/4.5.0.202105191637/eclipse/workspace/bldcmotor/Libraries/XMCLib/inc\xmc_gpio.h ****  *
 247:D:/DAVE IDE/4.5.0.202105191637/eclipse/workspace/bldcmotor/Libraries/XMCLib/inc\xmc_gpio.h ****  * @return None
 248:D:/DAVE IDE/4.5.0.202105191637/eclipse/workspace/bldcmotor/Libraries/XMCLib/inc\xmc_gpio.h ****  *
 249:D:/DAVE IDE/4.5.0.202105191637/eclipse/workspace/bldcmotor/Libraries/XMCLib/inc\xmc_gpio.h ****  * \par<b>Description:</b><br>
 250:D:/DAVE IDE/4.5.0.202105191637/eclipse/workspace/bldcmotor/Libraries/XMCLib/inc\xmc_gpio.h ****  *  Sets port pin output to high. It configures hardware registers Pn_OMR.
 251:D:/DAVE IDE/4.5.0.202105191637/eclipse/workspace/bldcmotor/Libraries/XMCLib/inc\xmc_gpio.h ****  *
 252:D:/DAVE IDE/4.5.0.202105191637/eclipse/workspace/bldcmotor/Libraries/XMCLib/inc\xmc_gpio.h ****  *  \par<b>Related APIs:</b><BR>
 253:D:/DAVE IDE/4.5.0.202105191637/eclipse/workspace/bldcmotor/Libraries/XMCLib/inc\xmc_gpio.h ****  *  XMC_GPIO_SetOutputLow()
 254:D:/DAVE IDE/4.5.0.202105191637/eclipse/workspace/bldcmotor/Libraries/XMCLib/inc\xmc_gpio.h ****  *
 255:D:/DAVE IDE/4.5.0.202105191637/eclipse/workspace/bldcmotor/Libraries/XMCLib/inc\xmc_gpio.h ****  * \par<b>Note:</b><br>
 256:D:/DAVE IDE/4.5.0.202105191637/eclipse/workspace/bldcmotor/Libraries/XMCLib/inc\xmc_gpio.h ****  * Prior to this api, user has to configure port pin to output mode using XMC_GPIO_SetMode().\n
 257:D:/DAVE IDE/4.5.0.202105191637/eclipse/workspace/bldcmotor/Libraries/XMCLib/inc\xmc_gpio.h ****  * Register Pn_OMR is virtual and does not contain any flip-flop. A read action delivers the value 
 258:D:/DAVE IDE/4.5.0.202105191637/eclipse/workspace/bldcmotor/Libraries/XMCLib/inc\xmc_gpio.h ****  *
 259:D:/DAVE IDE/4.5.0.202105191637/eclipse/workspace/bldcmotor/Libraries/XMCLib/inc\xmc_gpio.h ****  */
 260:D:/DAVE IDE/4.5.0.202105191637/eclipse/workspace/bldcmotor/Libraries/XMCLib/inc\xmc_gpio.h **** 
 261:D:/DAVE IDE/4.5.0.202105191637/eclipse/workspace/bldcmotor/Libraries/XMCLib/inc\xmc_gpio.h **** __STATIC_INLINE void XMC_GPIO_SetOutputHigh(XMC_GPIO_PORT_t *const port, const uint8_t pin)
 262:D:/DAVE IDE/4.5.0.202105191637/eclipse/workspace/bldcmotor/Libraries/XMCLib/inc\xmc_gpio.h **** {
 263:D:/DAVE IDE/4.5.0.202105191637/eclipse/workspace/bldcmotor/Libraries/XMCLib/inc\xmc_gpio.h ****   XMC_ASSERT("XMC_GPIO_SetOutputHigh: Invalid port", XMC_GPIO_CHECK_OUTPUT_PORT(port));
 264:D:/DAVE IDE/4.5.0.202105191637/eclipse/workspace/bldcmotor/Libraries/XMCLib/inc\xmc_gpio.h **** 
 265:D:/DAVE IDE/4.5.0.202105191637/eclipse/workspace/bldcmotor/Libraries/XMCLib/inc\xmc_gpio.h ****   port->OMR = (uint32_t)0x1U << pin;
 266:D:/DAVE IDE/4.5.0.202105191637/eclipse/workspace/bldcmotor/Libraries/XMCLib/inc\xmc_gpio.h **** }
 267:D:/DAVE IDE/4.5.0.202105191637/eclipse/workspace/bldcmotor/Libraries/XMCLib/inc\xmc_gpio.h **** 
 268:D:/DAVE IDE/4.5.0.202105191637/eclipse/workspace/bldcmotor/Libraries/XMCLib/inc\xmc_gpio.h **** /**
 269:D:/DAVE IDE/4.5.0.202105191637/eclipse/workspace/bldcmotor/Libraries/XMCLib/inc\xmc_gpio.h ****  *
 270:D:/DAVE IDE/4.5.0.202105191637/eclipse/workspace/bldcmotor/Libraries/XMCLib/inc\xmc_gpio.h ****  * @param  port	constant pointer pointing to GPIO port, to access hardware register Pn_OMR.
 271:D:/DAVE IDE/4.5.0.202105191637/eclipse/workspace/bldcmotor/Libraries/XMCLib/inc\xmc_gpio.h ****  * @param  pin	port pin number.
 272:D:/DAVE IDE/4.5.0.202105191637/eclipse/workspace/bldcmotor/Libraries/XMCLib/inc\xmc_gpio.h ****  *
 273:D:/DAVE IDE/4.5.0.202105191637/eclipse/workspace/bldcmotor/Libraries/XMCLib/inc\xmc_gpio.h ****  * @return  None
 274:D:/DAVE IDE/4.5.0.202105191637/eclipse/workspace/bldcmotor/Libraries/XMCLib/inc\xmc_gpio.h ****  *
 275:D:/DAVE IDE/4.5.0.202105191637/eclipse/workspace/bldcmotor/Libraries/XMCLib/inc\xmc_gpio.h ****  *\par<b>Description:</b><br>
 276:D:/DAVE IDE/4.5.0.202105191637/eclipse/workspace/bldcmotor/Libraries/XMCLib/inc\xmc_gpio.h ****  * Sets port pin output to low. It configures hardware registers Pn_OMR.\n
 277:D:/DAVE IDE/4.5.0.202105191637/eclipse/workspace/bldcmotor/Libraries/XMCLib/inc\xmc_gpio.h ****  *
 278:D:/DAVE IDE/4.5.0.202105191637/eclipse/workspace/bldcmotor/Libraries/XMCLib/inc\xmc_gpio.h ****  * \par<b>Related APIs:</b><BR>>
 279:D:/DAVE IDE/4.5.0.202105191637/eclipse/workspace/bldcmotor/Libraries/XMCLib/inc\xmc_gpio.h ****  * XMC_GPIO_SetOutputHigh()
 280:D:/DAVE IDE/4.5.0.202105191637/eclipse/workspace/bldcmotor/Libraries/XMCLib/inc\xmc_gpio.h ****  *
 281:D:/DAVE IDE/4.5.0.202105191637/eclipse/workspace/bldcmotor/Libraries/XMCLib/inc\xmc_gpio.h ****  *\par<b>Note:</b><br>
 282:D:/DAVE IDE/4.5.0.202105191637/eclipse/workspace/bldcmotor/Libraries/XMCLib/inc\xmc_gpio.h ****  * Prior to this api, user has to configure port pin to output mode using XMC_GPIO_SetMode().
 283:D:/DAVE IDE/4.5.0.202105191637/eclipse/workspace/bldcmotor/Libraries/XMCLib/inc\xmc_gpio.h ****  * Register Pn_OMR is virtual and does not contain any flip-flop. A read action delivers the value 
 284:D:/DAVE IDE/4.5.0.202105191637/eclipse/workspace/bldcmotor/Libraries/XMCLib/inc\xmc_gpio.h ****  *
 285:D:/DAVE IDE/4.5.0.202105191637/eclipse/workspace/bldcmotor/Libraries/XMCLib/inc\xmc_gpio.h ****  */
 286:D:/DAVE IDE/4.5.0.202105191637/eclipse/workspace/bldcmotor/Libraries/XMCLib/inc\xmc_gpio.h **** 
 287:D:/DAVE IDE/4.5.0.202105191637/eclipse/workspace/bldcmotor/Libraries/XMCLib/inc\xmc_gpio.h **** __STATIC_INLINE void XMC_GPIO_SetOutputLow(XMC_GPIO_PORT_t *const port, const uint8_t pin)
 288:D:/DAVE IDE/4.5.0.202105191637/eclipse/workspace/bldcmotor/Libraries/XMCLib/inc\xmc_gpio.h **** {
 289:D:/DAVE IDE/4.5.0.202105191637/eclipse/workspace/bldcmotor/Libraries/XMCLib/inc\xmc_gpio.h ****   XMC_ASSERT("XMC_GPIO_SetOutputLow: Invalid port", XMC_GPIO_CHECK_OUTPUT_PORT(port));
 290:D:/DAVE IDE/4.5.0.202105191637/eclipse/workspace/bldcmotor/Libraries/XMCLib/inc\xmc_gpio.h **** 
 291:D:/DAVE IDE/4.5.0.202105191637/eclipse/workspace/bldcmotor/Libraries/XMCLib/inc\xmc_gpio.h ****   port->OMR = 0x10000U << pin;
 292:D:/DAVE IDE/4.5.0.202105191637/eclipse/workspace/bldcmotor/Libraries/XMCLib/inc\xmc_gpio.h **** }
 293:D:/DAVE IDE/4.5.0.202105191637/eclipse/workspace/bldcmotor/Libraries/XMCLib/inc\xmc_gpio.h **** 
 294:D:/DAVE IDE/4.5.0.202105191637/eclipse/workspace/bldcmotor/Libraries/XMCLib/inc\xmc_gpio.h **** /**
 295:D:/DAVE IDE/4.5.0.202105191637/eclipse/workspace/bldcmotor/Libraries/XMCLib/inc\xmc_gpio.h ****  *
 296:D:/DAVE IDE/4.5.0.202105191637/eclipse/workspace/bldcmotor/Libraries/XMCLib/inc\xmc_gpio.h ****  * @param port constant pointer pointing to GPIO port, to access hardware register Pn_OMR.
 297:D:/DAVE IDE/4.5.0.202105191637/eclipse/workspace/bldcmotor/Libraries/XMCLib/inc\xmc_gpio.h ****  * @param pin  port pin number.
 298:D:/DAVE IDE/4.5.0.202105191637/eclipse/workspace/bldcmotor/Libraries/XMCLib/inc\xmc_gpio.h ****  *
 299:D:/DAVE IDE/4.5.0.202105191637/eclipse/workspace/bldcmotor/Libraries/XMCLib/inc\xmc_gpio.h ****  * @return None
 300:D:/DAVE IDE/4.5.0.202105191637/eclipse/workspace/bldcmotor/Libraries/XMCLib/inc\xmc_gpio.h ****  *
 301:D:/DAVE IDE/4.5.0.202105191637/eclipse/workspace/bldcmotor/Libraries/XMCLib/inc\xmc_gpio.h ****  * \par<b>Description:</b><br>
 302:D:/DAVE IDE/4.5.0.202105191637/eclipse/workspace/bldcmotor/Libraries/XMCLib/inc\xmc_gpio.h ****  * Configures port pin output to Toggle. It configures hardware registers Pn_OMR.
 303:D:/DAVE IDE/4.5.0.202105191637/eclipse/workspace/bldcmotor/Libraries/XMCLib/inc\xmc_gpio.h ****  *
 304:D:/DAVE IDE/4.5.0.202105191637/eclipse/workspace/bldcmotor/Libraries/XMCLib/inc\xmc_gpio.h ****  * \par<b>Related APIs:</b><BR>
 305:D:/DAVE IDE/4.5.0.202105191637/eclipse/workspace/bldcmotor/Libraries/XMCLib/inc\xmc_gpio.h ****  * XMC_GPIO_SetOutputHigh(), XMC_GPIO_SetOutputLow().
 306:D:/DAVE IDE/4.5.0.202105191637/eclipse/workspace/bldcmotor/Libraries/XMCLib/inc\xmc_gpio.h ****  *
 307:D:/DAVE IDE/4.5.0.202105191637/eclipse/workspace/bldcmotor/Libraries/XMCLib/inc\xmc_gpio.h ****  * \par<b>Note:</b><br>
 308:D:/DAVE IDE/4.5.0.202105191637/eclipse/workspace/bldcmotor/Libraries/XMCLib/inc\xmc_gpio.h ****  * Prior to this api, user has to configure port pin to output mode using XMC_GPIO_SetMode(). Regis
 309:D:/DAVE IDE/4.5.0.202105191637/eclipse/workspace/bldcmotor/Libraries/XMCLib/inc\xmc_gpio.h ****  * and does not contain any flip-flop. A read action delivers the value of 0.
 310:D:/DAVE IDE/4.5.0.202105191637/eclipse/workspace/bldcmotor/Libraries/XMCLib/inc\xmc_gpio.h ****  *
 311:D:/DAVE IDE/4.5.0.202105191637/eclipse/workspace/bldcmotor/Libraries/XMCLib/inc\xmc_gpio.h ****  */
 312:D:/DAVE IDE/4.5.0.202105191637/eclipse/workspace/bldcmotor/Libraries/XMCLib/inc\xmc_gpio.h **** 
 313:D:/DAVE IDE/4.5.0.202105191637/eclipse/workspace/bldcmotor/Libraries/XMCLib/inc\xmc_gpio.h **** __STATIC_INLINE void XMC_GPIO_ToggleOutput(XMC_GPIO_PORT_t *const port, const uint8_t pin)
 314:D:/DAVE IDE/4.5.0.202105191637/eclipse/workspace/bldcmotor/Libraries/XMCLib/inc\xmc_gpio.h **** {
 315:D:/DAVE IDE/4.5.0.202105191637/eclipse/workspace/bldcmotor/Libraries/XMCLib/inc\xmc_gpio.h ****   XMC_ASSERT("XMC_GPIO_ToggleOutput: Invalid port", XMC_GPIO_CHECK_OUTPUT_PORT(port));
 316:D:/DAVE IDE/4.5.0.202105191637/eclipse/workspace/bldcmotor/Libraries/XMCLib/inc\xmc_gpio.h **** 
 317:D:/DAVE IDE/4.5.0.202105191637/eclipse/workspace/bldcmotor/Libraries/XMCLib/inc\xmc_gpio.h ****   port->OMR = 0x10001U << pin;
 318:D:/DAVE IDE/4.5.0.202105191637/eclipse/workspace/bldcmotor/Libraries/XMCLib/inc\xmc_gpio.h **** }
 319:D:/DAVE IDE/4.5.0.202105191637/eclipse/workspace/bldcmotor/Libraries/XMCLib/inc\xmc_gpio.h **** 
 320:D:/DAVE IDE/4.5.0.202105191637/eclipse/workspace/bldcmotor/Libraries/XMCLib/inc\xmc_gpio.h **** /**
 321:D:/DAVE IDE/4.5.0.202105191637/eclipse/workspace/bldcmotor/Libraries/XMCLib/inc\xmc_gpio.h ****  *
 322:D:/DAVE IDE/4.5.0.202105191637/eclipse/workspace/bldcmotor/Libraries/XMCLib/inc\xmc_gpio.h ****  * @param port constant pointer pointing to GPIO port, to access hardware register Pn_IN.
 323:D:/DAVE IDE/4.5.0.202105191637/eclipse/workspace/bldcmotor/Libraries/XMCLib/inc\xmc_gpio.h ****  * @param pin  Port pin number.
 324:D:/DAVE IDE/4.5.0.202105191637/eclipse/workspace/bldcmotor/Libraries/XMCLib/inc\xmc_gpio.h ****  *
 325:D:/DAVE IDE/4.5.0.202105191637/eclipse/workspace/bldcmotor/Libraries/XMCLib/inc\xmc_gpio.h ****  * @return uint32_t pin logic level status.
 326:D:/DAVE IDE/4.5.0.202105191637/eclipse/workspace/bldcmotor/Libraries/XMCLib/inc\xmc_gpio.h ****  *
 327:D:/DAVE IDE/4.5.0.202105191637/eclipse/workspace/bldcmotor/Libraries/XMCLib/inc\xmc_gpio.h ****  *\par<b>Description:</b><br>
 328:D:/DAVE IDE/4.5.0.202105191637/eclipse/workspace/bldcmotor/Libraries/XMCLib/inc\xmc_gpio.h ****  * Reads the Pn_IN register and returns the current logical value at the GPIO pin.
 329:D:/DAVE IDE/4.5.0.202105191637/eclipse/workspace/bldcmotor/Libraries/XMCLib/inc\xmc_gpio.h ****  *
 330:D:/DAVE IDE/4.5.0.202105191637/eclipse/workspace/bldcmotor/Libraries/XMCLib/inc\xmc_gpio.h ****  * \par<b>Related APIs:</b><BR>
 331:D:/DAVE IDE/4.5.0.202105191637/eclipse/workspace/bldcmotor/Libraries/XMCLib/inc\xmc_gpio.h ****  * None
 332:D:/DAVE IDE/4.5.0.202105191637/eclipse/workspace/bldcmotor/Libraries/XMCLib/inc\xmc_gpio.h ****  *
 333:D:/DAVE IDE/4.5.0.202105191637/eclipse/workspace/bldcmotor/Libraries/XMCLib/inc\xmc_gpio.h ****  * \par<b>Note:</b><br>
 334:D:/DAVE IDE/4.5.0.202105191637/eclipse/workspace/bldcmotor/Libraries/XMCLib/inc\xmc_gpio.h ****  * Prior to this api, user has to configure port pin to input mode using XMC_GPIO_SetMode().
 335:D:/DAVE IDE/4.5.0.202105191637/eclipse/workspace/bldcmotor/Libraries/XMCLib/inc\xmc_gpio.h ****  *
 336:D:/DAVE IDE/4.5.0.202105191637/eclipse/workspace/bldcmotor/Libraries/XMCLib/inc\xmc_gpio.h ****  */
 337:D:/DAVE IDE/4.5.0.202105191637/eclipse/workspace/bldcmotor/Libraries/XMCLib/inc\xmc_gpio.h **** 
 338:D:/DAVE IDE/4.5.0.202105191637/eclipse/workspace/bldcmotor/Libraries/XMCLib/inc\xmc_gpio.h **** __STATIC_INLINE uint32_t XMC_GPIO_GetInput(XMC_GPIO_PORT_t *const port, const uint8_t pin)
 339:D:/DAVE IDE/4.5.0.202105191637/eclipse/workspace/bldcmotor/Libraries/XMCLib/inc\xmc_gpio.h **** {
  25              	 .loc 1 339 0
  26              	 .cfi_startproc
  27 0000 80B5     	 push {r7,lr}
  28              	.LCFI0:
  29              	 .cfi_def_cfa_offset 8
  30              	 .cfi_offset 7,-8
  31              	 .cfi_offset 14,-4
  32 0002 82B0     	 sub sp,sp,#8
  33              	.LCFI1:
  34              	 .cfi_def_cfa_offset 16
  35 0004 00AF     	 add r7,sp,#0
  36              	.LCFI2:
  37              	 .cfi_def_cfa_register 7
  38 0006 7860     	 str r0,[r7,#4]
  39 0008 0A1C     	 mov r2,r1
  40 000a FB1C     	 add r3,r7,#3
  41 000c 1A70     	 strb r2,[r3]
 340:D:/DAVE IDE/4.5.0.202105191637/eclipse/workspace/bldcmotor/Libraries/XMCLib/inc\xmc_gpio.h ****   XMC_ASSERT("XMC_GPIO_GetInput: Invalid port", XMC_GPIO_CHECK_PORT(port));
 341:D:/DAVE IDE/4.5.0.202105191637/eclipse/workspace/bldcmotor/Libraries/XMCLib/inc\xmc_gpio.h **** 
 342:D:/DAVE IDE/4.5.0.202105191637/eclipse/workspace/bldcmotor/Libraries/XMCLib/inc\xmc_gpio.h ****   return (((port->IN) >> pin) & 0x1U);
  42              	 .loc 1 342 0
  43 000e 7B68     	 ldr r3,[r7,#4]
  44 0010 5A6A     	 ldr r2,[r3,#36]
  45 0012 FB1C     	 add r3,r7,#3
  46 0014 1B78     	 ldrb r3,[r3]
  47 0016 DA40     	 lsr r2,r2,r3
  48 0018 131C     	 mov r3,r2
  49 001a 0122     	 mov r2,#1
  50 001c 1340     	 and r3,r2
 343:D:/DAVE IDE/4.5.0.202105191637/eclipse/workspace/bldcmotor/Libraries/XMCLib/inc\xmc_gpio.h **** }
  51              	 .loc 1 343 0
  52 001e 181C     	 mov r0,r3
  53 0020 BD46     	 mov sp,r7
  54 0022 02B0     	 add sp,sp,#8
  55              	 
  56 0024 80BD     	 pop {r7,pc}
  57              	 .cfi_endproc
  58              	.LFE47:
  60 0026 C046     	 .section .text.XMC_POSIF_Start,"ax",%progbits
  61              	 .align 2
  62              	 .code 16
  63              	 .thumb_func
  65              	XMC_POSIF_Start:
  66              	.LFB73:
  67              	 .file 2 "D:/DAVE IDE/4.5.0.202105191637/eclipse/workspace/bldcmotor/Libraries/XMCLib/inc/xmc_posif.h"
   1:D:/DAVE IDE/4.5.0.202105191637/eclipse/workspace/bldcmotor/Libraries/XMCLib/inc\xmc_posif.h **** /**
   2:D:/DAVE IDE/4.5.0.202105191637/eclipse/workspace/bldcmotor/Libraries/XMCLib/inc\xmc_posif.h ****  * @file xmc_posif.h
   3:D:/DAVE IDE/4.5.0.202105191637/eclipse/workspace/bldcmotor/Libraries/XMCLib/inc\xmc_posif.h ****  * @date 2019-12-02
   4:D:/DAVE IDE/4.5.0.202105191637/eclipse/workspace/bldcmotor/Libraries/XMCLib/inc\xmc_posif.h ****  *
   5:D:/DAVE IDE/4.5.0.202105191637/eclipse/workspace/bldcmotor/Libraries/XMCLib/inc\xmc_posif.h ****  * @cond
   6:D:/DAVE IDE/4.5.0.202105191637/eclipse/workspace/bldcmotor/Libraries/XMCLib/inc\xmc_posif.h ****  *****************************************************************************
   7:D:/DAVE IDE/4.5.0.202105191637/eclipse/workspace/bldcmotor/Libraries/XMCLib/inc\xmc_posif.h ****  * XMClib v2.2.0 - XMC Peripheral Driver Library
   8:D:/DAVE IDE/4.5.0.202105191637/eclipse/workspace/bldcmotor/Libraries/XMCLib/inc\xmc_posif.h ****  *
   9:D:/DAVE IDE/4.5.0.202105191637/eclipse/workspace/bldcmotor/Libraries/XMCLib/inc\xmc_posif.h ****  * Copyright (c) 2015-2020, Infineon Technologies AG
  10:D:/DAVE IDE/4.5.0.202105191637/eclipse/workspace/bldcmotor/Libraries/XMCLib/inc\xmc_posif.h ****  * All rights reserved.
  11:D:/DAVE IDE/4.5.0.202105191637/eclipse/workspace/bldcmotor/Libraries/XMCLib/inc\xmc_posif.h ****  *
  12:D:/DAVE IDE/4.5.0.202105191637/eclipse/workspace/bldcmotor/Libraries/XMCLib/inc\xmc_posif.h ****  * Boost Software License - Version 1.0 - August 17th, 2003
  13:D:/DAVE IDE/4.5.0.202105191637/eclipse/workspace/bldcmotor/Libraries/XMCLib/inc\xmc_posif.h ****  *
  14:D:/DAVE IDE/4.5.0.202105191637/eclipse/workspace/bldcmotor/Libraries/XMCLib/inc\xmc_posif.h ****  * Permission is hereby granted, free of charge, to any person or organization
  15:D:/DAVE IDE/4.5.0.202105191637/eclipse/workspace/bldcmotor/Libraries/XMCLib/inc\xmc_posif.h ****  * obtaining a copy of the software and accompanying documentation covered by
  16:D:/DAVE IDE/4.5.0.202105191637/eclipse/workspace/bldcmotor/Libraries/XMCLib/inc\xmc_posif.h ****  * this license (the "Software") to use, reproduce, display, distribute,
  17:D:/DAVE IDE/4.5.0.202105191637/eclipse/workspace/bldcmotor/Libraries/XMCLib/inc\xmc_posif.h ****  * execute, and transmit the Software, and to prepare derivative works of the
  18:D:/DAVE IDE/4.5.0.202105191637/eclipse/workspace/bldcmotor/Libraries/XMCLib/inc\xmc_posif.h ****  * Software, and to permit third-parties to whom the Software is furnished to
  19:D:/DAVE IDE/4.5.0.202105191637/eclipse/workspace/bldcmotor/Libraries/XMCLib/inc\xmc_posif.h ****  * do so, all subject to the following:
  20:D:/DAVE IDE/4.5.0.202105191637/eclipse/workspace/bldcmotor/Libraries/XMCLib/inc\xmc_posif.h ****  *
  21:D:/DAVE IDE/4.5.0.202105191637/eclipse/workspace/bldcmotor/Libraries/XMCLib/inc\xmc_posif.h ****  * The copyright notices in the Software and this entire statement, including
  22:D:/DAVE IDE/4.5.0.202105191637/eclipse/workspace/bldcmotor/Libraries/XMCLib/inc\xmc_posif.h ****  * the above license grant, this restriction and the following disclaimer,
  23:D:/DAVE IDE/4.5.0.202105191637/eclipse/workspace/bldcmotor/Libraries/XMCLib/inc\xmc_posif.h ****  * must be included in all copies of the Software, in whole or in part, and
  24:D:/DAVE IDE/4.5.0.202105191637/eclipse/workspace/bldcmotor/Libraries/XMCLib/inc\xmc_posif.h ****  * all derivative works of the Software, unless such copies or derivative
  25:D:/DAVE IDE/4.5.0.202105191637/eclipse/workspace/bldcmotor/Libraries/XMCLib/inc\xmc_posif.h ****  * works are solely in the form of machine-executable object code generated by
  26:D:/DAVE IDE/4.5.0.202105191637/eclipse/workspace/bldcmotor/Libraries/XMCLib/inc\xmc_posif.h ****  * a source language processor.
  27:D:/DAVE IDE/4.5.0.202105191637/eclipse/workspace/bldcmotor/Libraries/XMCLib/inc\xmc_posif.h ****  *
  28:D:/DAVE IDE/4.5.0.202105191637/eclipse/workspace/bldcmotor/Libraries/XMCLib/inc\xmc_posif.h ****  * THE SOFTWARE IS PROVIDED "AS IS", WITHOUT WARRANTY OF ANY KIND, EXPRESS OR
  29:D:/DAVE IDE/4.5.0.202105191637/eclipse/workspace/bldcmotor/Libraries/XMCLib/inc\xmc_posif.h ****  * IMPLIED, INCLUDING BUT NOT LIMITED TO THE WARRANTIES OF MERCHANTABILITY,
  30:D:/DAVE IDE/4.5.0.202105191637/eclipse/workspace/bldcmotor/Libraries/XMCLib/inc\xmc_posif.h ****  * FITNESS FOR A PARTICULAR PURPOSE, TITLE AND NON-INFRINGEMENT. IN NO EVENT
  31:D:/DAVE IDE/4.5.0.202105191637/eclipse/workspace/bldcmotor/Libraries/XMCLib/inc\xmc_posif.h ****  * SHALL THE COPYRIGHT HOLDERS OR ANYONE DISTRIBUTING THE SOFTWARE BE LIABLE
  32:D:/DAVE IDE/4.5.0.202105191637/eclipse/workspace/bldcmotor/Libraries/XMCLib/inc\xmc_posif.h ****  * FOR ANY DAMAGES OR OTHER LIABILITY, WHETHER IN CONTRACT, TORT OR OTHERWISE,
  33:D:/DAVE IDE/4.5.0.202105191637/eclipse/workspace/bldcmotor/Libraries/XMCLib/inc\xmc_posif.h ****  * ARISING FROM, OUT OF OR IN CONNECTION WITH THE SOFTWARE OR THE USE OR OTHER
  34:D:/DAVE IDE/4.5.0.202105191637/eclipse/workspace/bldcmotor/Libraries/XMCLib/inc\xmc_posif.h ****  * DEALINGS IN THE SOFTWARE.
  35:D:/DAVE IDE/4.5.0.202105191637/eclipse/workspace/bldcmotor/Libraries/XMCLib/inc\xmc_posif.h ****  *
  36:D:/DAVE IDE/4.5.0.202105191637/eclipse/workspace/bldcmotor/Libraries/XMCLib/inc\xmc_posif.h ****  * To improve the quality of the software, users are encouraged to share
  37:D:/DAVE IDE/4.5.0.202105191637/eclipse/workspace/bldcmotor/Libraries/XMCLib/inc\xmc_posif.h ****  * modifications, enhancements or bug fixes with Infineon Technologies AG
  38:D:/DAVE IDE/4.5.0.202105191637/eclipse/workspace/bldcmotor/Libraries/XMCLib/inc\xmc_posif.h ****  * at XMCSupport@infineon.com.
  39:D:/DAVE IDE/4.5.0.202105191637/eclipse/workspace/bldcmotor/Libraries/XMCLib/inc\xmc_posif.h ****  *****************************************************************************
  40:D:/DAVE IDE/4.5.0.202105191637/eclipse/workspace/bldcmotor/Libraries/XMCLib/inc\xmc_posif.h ****  *
  41:D:/DAVE IDE/4.5.0.202105191637/eclipse/workspace/bldcmotor/Libraries/XMCLib/inc\xmc_posif.h ****  * Change History
  42:D:/DAVE IDE/4.5.0.202105191637/eclipse/workspace/bldcmotor/Libraries/XMCLib/inc\xmc_posif.h ****  * --------------
  43:D:/DAVE IDE/4.5.0.202105191637/eclipse/workspace/bldcmotor/Libraries/XMCLib/inc\xmc_posif.h ****  *
  44:D:/DAVE IDE/4.5.0.202105191637/eclipse/workspace/bldcmotor/Libraries/XMCLib/inc\xmc_posif.h ****  * 2015-02-18:
  45:D:/DAVE IDE/4.5.0.202105191637/eclipse/workspace/bldcmotor/Libraries/XMCLib/inc\xmc_posif.h ****  *     - Initial version
  46:D:/DAVE IDE/4.5.0.202105191637/eclipse/workspace/bldcmotor/Libraries/XMCLib/inc\xmc_posif.h ****  *
  47:D:/DAVE IDE/4.5.0.202105191637/eclipse/workspace/bldcmotor/Libraries/XMCLib/inc\xmc_posif.h ****  * 2015-02-20:
  48:D:/DAVE IDE/4.5.0.202105191637/eclipse/workspace/bldcmotor/Libraries/XMCLib/inc\xmc_posif.h ****  *     - Driver description added <BR>
  49:D:/DAVE IDE/4.5.0.202105191637/eclipse/workspace/bldcmotor/Libraries/XMCLib/inc\xmc_posif.h ****  *
  50:D:/DAVE IDE/4.5.0.202105191637/eclipse/workspace/bldcmotor/Libraries/XMCLib/inc\xmc_posif.h ****  * 2015-06-19:
  51:D:/DAVE IDE/4.5.0.202105191637/eclipse/workspace/bldcmotor/Libraries/XMCLib/inc\xmc_posif.h ****  *     - Removed version macros and declaration of GetDriverVersion API <BR>
  52:D:/DAVE IDE/4.5.0.202105191637/eclipse/workspace/bldcmotor/Libraries/XMCLib/inc\xmc_posif.h ****  *
  53:D:/DAVE IDE/4.5.0.202105191637/eclipse/workspace/bldcmotor/Libraries/XMCLib/inc\xmc_posif.h ****  * 2015-07-02:
  54:D:/DAVE IDE/4.5.0.202105191637/eclipse/workspace/bldcmotor/Libraries/XMCLib/inc\xmc_posif.h ****  *     - Updated XMC_POSIF_QD_GetDirection API
  55:D:/DAVE IDE/4.5.0.202105191637/eclipse/workspace/bldcmotor/Libraries/XMCLib/inc\xmc_posif.h ****  *
  56:D:/DAVE IDE/4.5.0.202105191637/eclipse/workspace/bldcmotor/Libraries/XMCLib/inc\xmc_posif.h ****  * 2016-03-09:
  57:D:/DAVE IDE/4.5.0.202105191637/eclipse/workspace/bldcmotor/Libraries/XMCLib/inc\xmc_posif.h ****  *     - Optimization of write only registers
  58:D:/DAVE IDE/4.5.0.202105191637/eclipse/workspace/bldcmotor/Libraries/XMCLib/inc\xmc_posif.h ****  *
  59:D:/DAVE IDE/4.5.0.202105191637/eclipse/workspace/bldcmotor/Libraries/XMCLib/inc\xmc_posif.h ****  * 2017-06-24
  60:D:/DAVE IDE/4.5.0.202105191637/eclipse/workspace/bldcmotor/Libraries/XMCLib/inc\xmc_posif.h ****  *     - Added posif map connectivity file<br>
  61:D:/DAVE IDE/4.5.0.202105191637/eclipse/workspace/bldcmotor/Libraries/XMCLib/inc\xmc_posif.h ****  *
  62:D:/DAVE IDE/4.5.0.202105191637/eclipse/workspace/bldcmotor/Libraries/XMCLib/inc\xmc_posif.h ****  * 2019-12-02:
  63:D:/DAVE IDE/4.5.0.202105191637/eclipse/workspace/bldcmotor/Libraries/XMCLib/inc\xmc_posif.h ****  *     - Fix including files following the convention: angle brackets are used for standard include
  64:D:/DAVE IDE/4.5.0.202105191637/eclipse/workspace/bldcmotor/Libraries/XMCLib/inc\xmc_posif.h ****  *
  65:D:/DAVE IDE/4.5.0.202105191637/eclipse/workspace/bldcmotor/Libraries/XMCLib/inc\xmc_posif.h ****  * @endcond
  66:D:/DAVE IDE/4.5.0.202105191637/eclipse/workspace/bldcmotor/Libraries/XMCLib/inc\xmc_posif.h ****  *
  67:D:/DAVE IDE/4.5.0.202105191637/eclipse/workspace/bldcmotor/Libraries/XMCLib/inc\xmc_posif.h ****  */
  68:D:/DAVE IDE/4.5.0.202105191637/eclipse/workspace/bldcmotor/Libraries/XMCLib/inc\xmc_posif.h **** 
  69:D:/DAVE IDE/4.5.0.202105191637/eclipse/workspace/bldcmotor/Libraries/XMCLib/inc\xmc_posif.h **** 
  70:D:/DAVE IDE/4.5.0.202105191637/eclipse/workspace/bldcmotor/Libraries/XMCLib/inc\xmc_posif.h **** #ifndef XMC_POSIF_H
  71:D:/DAVE IDE/4.5.0.202105191637/eclipse/workspace/bldcmotor/Libraries/XMCLib/inc\xmc_posif.h **** #define XMC_POSIF_H
  72:D:/DAVE IDE/4.5.0.202105191637/eclipse/workspace/bldcmotor/Libraries/XMCLib/inc\xmc_posif.h **** 
  73:D:/DAVE IDE/4.5.0.202105191637/eclipse/workspace/bldcmotor/Libraries/XMCLib/inc\xmc_posif.h **** /**************************************************************************************************
  74:D:/DAVE IDE/4.5.0.202105191637/eclipse/workspace/bldcmotor/Libraries/XMCLib/inc\xmc_posif.h ****  * HEADER FILES
  75:D:/DAVE IDE/4.5.0.202105191637/eclipse/workspace/bldcmotor/Libraries/XMCLib/inc\xmc_posif.h ****  **************************************************************************************************
  76:D:/DAVE IDE/4.5.0.202105191637/eclipse/workspace/bldcmotor/Libraries/XMCLib/inc\xmc_posif.h **** #include "xmc_common.h"
  77:D:/DAVE IDE/4.5.0.202105191637/eclipse/workspace/bldcmotor/Libraries/XMCLib/inc\xmc_posif.h **** 
  78:D:/DAVE IDE/4.5.0.202105191637/eclipse/workspace/bldcmotor/Libraries/XMCLib/inc\xmc_posif.h **** #if defined(POSIF0)
  79:D:/DAVE IDE/4.5.0.202105191637/eclipse/workspace/bldcmotor/Libraries/XMCLib/inc\xmc_posif.h **** #include "xmc_scu.h"
  80:D:/DAVE IDE/4.5.0.202105191637/eclipse/workspace/bldcmotor/Libraries/XMCLib/inc\xmc_posif.h **** #include "xmc_posif_map.h"
  81:D:/DAVE IDE/4.5.0.202105191637/eclipse/workspace/bldcmotor/Libraries/XMCLib/inc\xmc_posif.h **** 
  82:D:/DAVE IDE/4.5.0.202105191637/eclipse/workspace/bldcmotor/Libraries/XMCLib/inc\xmc_posif.h **** /**
  83:D:/DAVE IDE/4.5.0.202105191637/eclipse/workspace/bldcmotor/Libraries/XMCLib/inc\xmc_posif.h ****  * @addtogroup XMClib XMC Peripheral Library
  84:D:/DAVE IDE/4.5.0.202105191637/eclipse/workspace/bldcmotor/Libraries/XMCLib/inc\xmc_posif.h ****  * @{
  85:D:/DAVE IDE/4.5.0.202105191637/eclipse/workspace/bldcmotor/Libraries/XMCLib/inc\xmc_posif.h ****  */
  86:D:/DAVE IDE/4.5.0.202105191637/eclipse/workspace/bldcmotor/Libraries/XMCLib/inc\xmc_posif.h **** 
  87:D:/DAVE IDE/4.5.0.202105191637/eclipse/workspace/bldcmotor/Libraries/XMCLib/inc\xmc_posif.h **** /**
  88:D:/DAVE IDE/4.5.0.202105191637/eclipse/workspace/bldcmotor/Libraries/XMCLib/inc\xmc_posif.h ****  * @addtogroup POSIF
  89:D:/DAVE IDE/4.5.0.202105191637/eclipse/workspace/bldcmotor/Libraries/XMCLib/inc\xmc_posif.h ****  * @brief Position Interface Unit (POSIF) driver for the XMC microcontroller family <br>
  90:D:/DAVE IDE/4.5.0.202105191637/eclipse/workspace/bldcmotor/Libraries/XMCLib/inc\xmc_posif.h ****  *
  91:D:/DAVE IDE/4.5.0.202105191637/eclipse/workspace/bldcmotor/Libraries/XMCLib/inc\xmc_posif.h ****  * The POSIF unit is a flexible and powerful component for motor control systems that use
  92:D:/DAVE IDE/4.5.0.202105191637/eclipse/workspace/bldcmotor/Libraries/XMCLib/inc\xmc_posif.h ****  * rotary encoders or hall sensors as feedback loop. It provides interface for motor position and v
  93:D:/DAVE IDE/4.5.0.202105191637/eclipse/workspace/bldcmotor/Libraries/XMCLib/inc\xmc_posif.h ****  * POSIF unit works with CCU4 and CCU8 to enable position and velocity measurement and to control P
  94:D:/DAVE IDE/4.5.0.202105191637/eclipse/workspace/bldcmotor/Libraries/XMCLib/inc\xmc_posif.h ****  *
  95:D:/DAVE IDE/4.5.0.202105191637/eclipse/workspace/bldcmotor/Libraries/XMCLib/inc\xmc_posif.h ****  * Driver is divided in three POSIF functional blocks - Hall Sensor Control (POSIF_HSC), Quadrature
  96:D:/DAVE IDE/4.5.0.202105191637/eclipse/workspace/bldcmotor/Libraries/XMCLib/inc\xmc_posif.h ****  * MultiChannel Mode (POSIF_MCM). <br>
  97:D:/DAVE IDE/4.5.0.202105191637/eclipse/workspace/bldcmotor/Libraries/XMCLib/inc\xmc_posif.h ****  *
  98:D:/DAVE IDE/4.5.0.202105191637/eclipse/workspace/bldcmotor/Libraries/XMCLib/inc\xmc_posif.h ****  * POSIF driver features:
  99:D:/DAVE IDE/4.5.0.202105191637/eclipse/workspace/bldcmotor/Libraries/XMCLib/inc\xmc_posif.h ****  * -#  Configuration structure XMC_POSIF_CONFIG_t and initialization function XMC_POSIF_Init() to c
 100:D:/DAVE IDE/4.5.0.202105191637/eclipse/workspace/bldcmotor/Libraries/XMCLib/inc\xmc_posif.h ****  * -# Allows to change the operating mode using XMC_POSIF_SetMode()
 101:D:/DAVE IDE/4.5.0.202105191637/eclipse/workspace/bldcmotor/Libraries/XMCLib/inc\xmc_posif.h ****  * -# Allows the selection of one of the four inputs (A, B, C or D) using XMC_POSIF_SelectInputSour
 102:D:/DAVE IDE/4.5.0.202105191637/eclipse/workspace/bldcmotor/Libraries/XMCLib/inc\xmc_posif.h ****  * hall0, hall1 and hall2 signals. For quadrature decoder mode, inputs are phase A, phase B and ind
 103:D:/DAVE IDE/4.5.0.202105191637/eclipse/workspace/bldcmotor/Libraries/XMCLib/inc\xmc_posif.h ****  * -#  Hall Sensor Control (APIs prefixed with XMC_POSIF_HSC_) <br>
 104:D:/DAVE IDE/4.5.0.202105191637/eclipse/workspace/bldcmotor/Libraries/XMCLib/inc\xmc_posif.h ****  * 	-  Configuration structure XMC_POSIF_HSC_CONFIG_t and initialization function XMC_POSIF_HSC_Ini
 105:D:/DAVE IDE/4.5.0.202105191637/eclipse/workspace/bldcmotor/Libraries/XMCLib/inc\xmc_posif.h ****  * 	-  Update current and expected hall pattern in shadow register using XMC_POSIF_HSC_SetHallPatte
 106:D:/DAVE IDE/4.5.0.202105191637/eclipse/workspace/bldcmotor/Libraries/XMCLib/inc\xmc_posif.h ****  * 	- Allows immediate shadow transfer using XMC_POSIF_HSC_UpdateHallPattern()
 107:D:/DAVE IDE/4.5.0.202105191637/eclipse/workspace/bldcmotor/Libraries/XMCLib/inc\xmc_posif.h ****  * -#  Quadrature Decoder (APIs prefixed with XMC_POSIF_QD_) <br>
 108:D:/DAVE IDE/4.5.0.202105191637/eclipse/workspace/bldcmotor/Libraries/XMCLib/inc\xmc_posif.h ****  * 	-  Configuration structure XMC_POSIF_QD_CONFIG_t and initialization function XMC_POSIF_QD_Init(
 109:D:/DAVE IDE/4.5.0.202105191637/eclipse/workspace/bldcmotor/Libraries/XMCLib/inc\xmc_posif.h ****  * 	-  Get direction of rotation using XMC_POSIF_QD_GetDirection()
 110:D:/DAVE IDE/4.5.0.202105191637/eclipse/workspace/bldcmotor/Libraries/XMCLib/inc\xmc_posif.h ****  * -#  MultiChannel Mode (APIs prefixed with XMC_POSIF_MCM_) <br>
 111:D:/DAVE IDE/4.5.0.202105191637/eclipse/workspace/bldcmotor/Libraries/XMCLib/inc\xmc_posif.h ****  *	-  Configuration structure XMC_POSIF_MCM_CONFIG_t and initialization function XMC_POSIF_MCM_Init
 112:D:/DAVE IDE/4.5.0.202105191637/eclipse/workspace/bldcmotor/Libraries/XMCLib/inc\xmc_posif.h ****  *	-  Update multichannel pattern in shadow register using XMC_POSIF_MCM_SetMultiChannelPattern()
 113:D:/DAVE IDE/4.5.0.202105191637/eclipse/workspace/bldcmotor/Libraries/XMCLib/inc\xmc_posif.h ****  *	-  Allows immediate shadow transfer using XMC_POSIF_MCM_UpdateMultiChannelPattern()
 114:D:/DAVE IDE/4.5.0.202105191637/eclipse/workspace/bldcmotor/Libraries/XMCLib/inc\xmc_posif.h ****  * -# User need to call respective init functions to configure POSIF operating mode. e.g to configu
 115:D:/DAVE IDE/4.5.0.202105191637/eclipse/workspace/bldcmotor/Libraries/XMCLib/inc\xmc_posif.h ****  * call both XMC_POSIF_HSC_Init() and XMC_POSIF_MCM_Init().
 116:D:/DAVE IDE/4.5.0.202105191637/eclipse/workspace/bldcmotor/Libraries/XMCLib/inc\xmc_posif.h ****  * -# Allows to enable and disable interrupt sources and assign to service request node using XMC_P
 117:D:/DAVE IDE/4.5.0.202105191637/eclipse/workspace/bldcmotor/Libraries/XMCLib/inc\xmc_posif.h ****  *
 118:D:/DAVE IDE/4.5.0.202105191637/eclipse/workspace/bldcmotor/Libraries/XMCLib/inc\xmc_posif.h ****  * @note POSIF is not available on XMC11 and XMC12 devices
 119:D:/DAVE IDE/4.5.0.202105191637/eclipse/workspace/bldcmotor/Libraries/XMCLib/inc\xmc_posif.h ****  *
 120:D:/DAVE IDE/4.5.0.202105191637/eclipse/workspace/bldcmotor/Libraries/XMCLib/inc\xmc_posif.h ****  * @{
 121:D:/DAVE IDE/4.5.0.202105191637/eclipse/workspace/bldcmotor/Libraries/XMCLib/inc\xmc_posif.h ****  */
 122:D:/DAVE IDE/4.5.0.202105191637/eclipse/workspace/bldcmotor/Libraries/XMCLib/inc\xmc_posif.h **** 
 123:D:/DAVE IDE/4.5.0.202105191637/eclipse/workspace/bldcmotor/Libraries/XMCLib/inc\xmc_posif.h **** /**************************************************************************************************
 124:D:/DAVE IDE/4.5.0.202105191637/eclipse/workspace/bldcmotor/Libraries/XMCLib/inc\xmc_posif.h ****  * MACROS
 125:D:/DAVE IDE/4.5.0.202105191637/eclipse/workspace/bldcmotor/Libraries/XMCLib/inc\xmc_posif.h ****  **************************************************************************************************
 126:D:/DAVE IDE/4.5.0.202105191637/eclipse/workspace/bldcmotor/Libraries/XMCLib/inc\xmc_posif.h **** #if ((UC_SERIES == XMC45) || (UC_SERIES == XMC44) || (UC_SERIES == XMC47) || (UC_SERIES == XMC48) |
 127:D:/DAVE IDE/4.5.0.202105191637/eclipse/workspace/bldcmotor/Libraries/XMCLib/inc\xmc_posif.h **** #define XMC_POSIF_CHECK_MODULE_PTR(PTR)  ( ((PTR)== POSIF0) || ((PTR)== POSIF1) ) /*< Check for val
 128:D:/DAVE IDE/4.5.0.202105191637/eclipse/workspace/bldcmotor/Libraries/XMCLib/inc\xmc_posif.h **** #else
 129:D:/DAVE IDE/4.5.0.202105191637/eclipse/workspace/bldcmotor/Libraries/XMCLib/inc\xmc_posif.h **** #define XMC_POSIF_CHECK_MODULE_PTR(PTR)  ( ((PTR)== POSIF0))  /*< Check for valid module pointer */
 130:D:/DAVE IDE/4.5.0.202105191637/eclipse/workspace/bldcmotor/Libraries/XMCLib/inc\xmc_posif.h **** #endif
 131:D:/DAVE IDE/4.5.0.202105191637/eclipse/workspace/bldcmotor/Libraries/XMCLib/inc\xmc_posif.h **** 
 132:D:/DAVE IDE/4.5.0.202105191637/eclipse/workspace/bldcmotor/Libraries/XMCLib/inc\xmc_posif.h **** /**************************************************************************************************
 133:D:/DAVE IDE/4.5.0.202105191637/eclipse/workspace/bldcmotor/Libraries/XMCLib/inc\xmc_posif.h ****  * ENUMS
 134:D:/DAVE IDE/4.5.0.202105191637/eclipse/workspace/bldcmotor/Libraries/XMCLib/inc\xmc_posif.h ****  **************************************************************************************************
 135:D:/DAVE IDE/4.5.0.202105191637/eclipse/workspace/bldcmotor/Libraries/XMCLib/inc\xmc_posif.h **** /**
 136:D:/DAVE IDE/4.5.0.202105191637/eclipse/workspace/bldcmotor/Libraries/XMCLib/inc\xmc_posif.h ****  *  Defines the return status, to verify the POSIF related API calls. Use type @ref XMC_POSIF_STATU
 137:D:/DAVE IDE/4.5.0.202105191637/eclipse/workspace/bldcmotor/Libraries/XMCLib/inc\xmc_posif.h ****  */
 138:D:/DAVE IDE/4.5.0.202105191637/eclipse/workspace/bldcmotor/Libraries/XMCLib/inc\xmc_posif.h **** typedef enum XMC_POSIF_STATUS
 139:D:/DAVE IDE/4.5.0.202105191637/eclipse/workspace/bldcmotor/Libraries/XMCLib/inc\xmc_posif.h **** {
 140:D:/DAVE IDE/4.5.0.202105191637/eclipse/workspace/bldcmotor/Libraries/XMCLib/inc\xmc_posif.h ****   XMC_POSIF_STATUS_OK = 0U,     /**< API fulfills request */
 141:D:/DAVE IDE/4.5.0.202105191637/eclipse/workspace/bldcmotor/Libraries/XMCLib/inc\xmc_posif.h ****   XMC_POSIF_STATUS_ERROR        /**< API cannot fulfill request */
 142:D:/DAVE IDE/4.5.0.202105191637/eclipse/workspace/bldcmotor/Libraries/XMCLib/inc\xmc_posif.h **** } XMC_POSIF_STATUS_t;
 143:D:/DAVE IDE/4.5.0.202105191637/eclipse/workspace/bldcmotor/Libraries/XMCLib/inc\xmc_posif.h **** 
 144:D:/DAVE IDE/4.5.0.202105191637/eclipse/workspace/bldcmotor/Libraries/XMCLib/inc\xmc_posif.h **** /**
 145:D:/DAVE IDE/4.5.0.202105191637/eclipse/workspace/bldcmotor/Libraries/XMCLib/inc\xmc_posif.h ****  * Defines POSIF configurable modes.Use type @ref XMC_POSIF_MODE_t for this enum.
 146:D:/DAVE IDE/4.5.0.202105191637/eclipse/workspace/bldcmotor/Libraries/XMCLib/inc\xmc_posif.h ****  * The members defines the function selector(FSEL) bitfields of \a PCONF register.
 147:D:/DAVE IDE/4.5.0.202105191637/eclipse/workspace/bldcmotor/Libraries/XMCLib/inc\xmc_posif.h ****  */
 148:D:/DAVE IDE/4.5.0.202105191637/eclipse/workspace/bldcmotor/Libraries/XMCLib/inc\xmc_posif.h **** typedef enum XMC_POSIF_MODE
 149:D:/DAVE IDE/4.5.0.202105191637/eclipse/workspace/bldcmotor/Libraries/XMCLib/inc\xmc_posif.h **** {
 150:D:/DAVE IDE/4.5.0.202105191637/eclipse/workspace/bldcmotor/Libraries/XMCLib/inc\xmc_posif.h ****   XMC_POSIF_MODE_HALL_SENSOR = 0U, /**< Hall sensor mode */
 151:D:/DAVE IDE/4.5.0.202105191637/eclipse/workspace/bldcmotor/Libraries/XMCLib/inc\xmc_posif.h ****   XMC_POSIF_MODE_QD,               /**< Quadrature Decoder mode */
 152:D:/DAVE IDE/4.5.0.202105191637/eclipse/workspace/bldcmotor/Libraries/XMCLib/inc\xmc_posif.h ****   XMC_POSIF_MODE_MCM,              /**< Standalone Multichannel mode */
 153:D:/DAVE IDE/4.5.0.202105191637/eclipse/workspace/bldcmotor/Libraries/XMCLib/inc\xmc_posif.h ****   XMC_POSIF_MODE_MCM_QD           /**< Quadrature Decoder + Standalone Multichannel mode */
 154:D:/DAVE IDE/4.5.0.202105191637/eclipse/workspace/bldcmotor/Libraries/XMCLib/inc\xmc_posif.h **** } XMC_POSIF_MODE_t;
 155:D:/DAVE IDE/4.5.0.202105191637/eclipse/workspace/bldcmotor/Libraries/XMCLib/inc\xmc_posif.h **** 
 156:D:/DAVE IDE/4.5.0.202105191637/eclipse/workspace/bldcmotor/Libraries/XMCLib/inc\xmc_posif.h **** /**
 157:D:/DAVE IDE/4.5.0.202105191637/eclipse/workspace/bldcmotor/Libraries/XMCLib/inc\xmc_posif.h ****  * Defines POSIF configurable input ports.Use type @ref XMC_POSIF_INPUT_PORT_t for this enum.
 158:D:/DAVE IDE/4.5.0.202105191637/eclipse/workspace/bldcmotor/Libraries/XMCLib/inc\xmc_posif.h ****  * The member defines the respective input selector(INSELX) bitfields of \a PCONF register.
 159:D:/DAVE IDE/4.5.0.202105191637/eclipse/workspace/bldcmotor/Libraries/XMCLib/inc\xmc_posif.h ****  * It selects, which input is used for the phase or Hall input function (depending on the module is
 160:D:/DAVE IDE/4.5.0.202105191637/eclipse/workspace/bldcmotor/Libraries/XMCLib/inc\xmc_posif.h ****  * Quadrature Decoder or Hall Sensor Mode). Same enum can be used to configure pattern update signa
 161:D:/DAVE IDE/4.5.0.202105191637/eclipse/workspace/bldcmotor/Libraries/XMCLib/inc\xmc_posif.h ****  * \a PCONF register's \a MSETS bit field.
 162:D:/DAVE IDE/4.5.0.202105191637/eclipse/workspace/bldcmotor/Libraries/XMCLib/inc\xmc_posif.h ****  */
 163:D:/DAVE IDE/4.5.0.202105191637/eclipse/workspace/bldcmotor/Libraries/XMCLib/inc\xmc_posif.h **** typedef enum XMC_POSIF_INPUT_PORT
 164:D:/DAVE IDE/4.5.0.202105191637/eclipse/workspace/bldcmotor/Libraries/XMCLib/inc\xmc_posif.h **** {
 165:D:/DAVE IDE/4.5.0.202105191637/eclipse/workspace/bldcmotor/Libraries/XMCLib/inc\xmc_posif.h ****   XMC_POSIF_INPUT_PORT_A = 0U, /**< INPUT-A */
 166:D:/DAVE IDE/4.5.0.202105191637/eclipse/workspace/bldcmotor/Libraries/XMCLib/inc\xmc_posif.h ****   XMC_POSIF_INPUT_PORT_B,      /**< INPUT-B */
 167:D:/DAVE IDE/4.5.0.202105191637/eclipse/workspace/bldcmotor/Libraries/XMCLib/inc\xmc_posif.h ****   XMC_POSIF_INPUT_PORT_C,      /**< INPUT-C */
 168:D:/DAVE IDE/4.5.0.202105191637/eclipse/workspace/bldcmotor/Libraries/XMCLib/inc\xmc_posif.h ****   XMC_POSIF_INPUT_PORT_D,      /**< INPUT-D */
 169:D:/DAVE IDE/4.5.0.202105191637/eclipse/workspace/bldcmotor/Libraries/XMCLib/inc\xmc_posif.h ****   XMC_POSIF_INPUT_PORT_E,      /**< INPUT-E */
 170:D:/DAVE IDE/4.5.0.202105191637/eclipse/workspace/bldcmotor/Libraries/XMCLib/inc\xmc_posif.h ****   XMC_POSIF_INPUT_PORT_F,      /**< INPUT-F */
 171:D:/DAVE IDE/4.5.0.202105191637/eclipse/workspace/bldcmotor/Libraries/XMCLib/inc\xmc_posif.h ****   XMC_POSIF_INPUT_PORT_G,      /**< INPUT-G */
 172:D:/DAVE IDE/4.5.0.202105191637/eclipse/workspace/bldcmotor/Libraries/XMCLib/inc\xmc_posif.h ****   XMC_POSIF_INPUT_PORT_H       /**< INPUT-H */
 173:D:/DAVE IDE/4.5.0.202105191637/eclipse/workspace/bldcmotor/Libraries/XMCLib/inc\xmc_posif.h **** } XMC_POSIF_INPUT_PORT_t;
 174:D:/DAVE IDE/4.5.0.202105191637/eclipse/workspace/bldcmotor/Libraries/XMCLib/inc\xmc_posif.h **** 
 175:D:/DAVE IDE/4.5.0.202105191637/eclipse/workspace/bldcmotor/Libraries/XMCLib/inc\xmc_posif.h **** /**
 176:D:/DAVE IDE/4.5.0.202105191637/eclipse/workspace/bldcmotor/Libraries/XMCLib/inc\xmc_posif.h ****  *  Defines active level of an input signal.Use type @ref XMC_POSIF_INPUT_ACTIVE_LEVEL_t for this e
 177:D:/DAVE IDE/4.5.0.202105191637/eclipse/workspace/bldcmotor/Libraries/XMCLib/inc\xmc_posif.h ****  */
 178:D:/DAVE IDE/4.5.0.202105191637/eclipse/workspace/bldcmotor/Libraries/XMCLib/inc\xmc_posif.h **** typedef enum XMC_POSIF_INPUT_ACTIVE_LEVEL
 179:D:/DAVE IDE/4.5.0.202105191637/eclipse/workspace/bldcmotor/Libraries/XMCLib/inc\xmc_posif.h **** {
 180:D:/DAVE IDE/4.5.0.202105191637/eclipse/workspace/bldcmotor/Libraries/XMCLib/inc\xmc_posif.h ****   XMC_POSIF_INPUT_ACTIVE_LEVEL_HIGH  = 0U, /**< Input - Active High */
 181:D:/DAVE IDE/4.5.0.202105191637/eclipse/workspace/bldcmotor/Libraries/XMCLib/inc\xmc_posif.h ****   XMC_POSIF_INPUT_ACTIVE_LEVEL_LOW         /**< Input - Active Low */
 182:D:/DAVE IDE/4.5.0.202105191637/eclipse/workspace/bldcmotor/Libraries/XMCLib/inc\xmc_posif.h **** } XMC_POSIF_INPUT_ACTIVE_LEVEL_t;
 183:D:/DAVE IDE/4.5.0.202105191637/eclipse/workspace/bldcmotor/Libraries/XMCLib/inc\xmc_posif.h **** 
 184:D:/DAVE IDE/4.5.0.202105191637/eclipse/workspace/bldcmotor/Libraries/XMCLib/inc\xmc_posif.h **** /**
 185:D:/DAVE IDE/4.5.0.202105191637/eclipse/workspace/bldcmotor/Libraries/XMCLib/inc\xmc_posif.h ****  * Defines POSIF input debounce filter configuration.POSIF inputs are connected to low pass filter 
 186:D:/DAVE IDE/4.5.0.202105191637/eclipse/workspace/bldcmotor/Libraries/XMCLib/inc\xmc_posif.h ****  * this enum is used to configure low pass filters cut off frequency.
 187:D:/DAVE IDE/4.5.0.202105191637/eclipse/workspace/bldcmotor/Libraries/XMCLib/inc\xmc_posif.h ****  * Use type @ref XMC_POSIF_FILTER_t for this enum.
 188:D:/DAVE IDE/4.5.0.202105191637/eclipse/workspace/bldcmotor/Libraries/XMCLib/inc\xmc_posif.h ****  * The member defines the low pass filter configuration(LPC) bitfield of \a PCONF register.
 189:D:/DAVE IDE/4.5.0.202105191637/eclipse/workspace/bldcmotor/Libraries/XMCLib/inc\xmc_posif.h ****  */
 190:D:/DAVE IDE/4.5.0.202105191637/eclipse/workspace/bldcmotor/Libraries/XMCLib/inc\xmc_posif.h **** typedef enum XMC_POSIF_FILTER
 191:D:/DAVE IDE/4.5.0.202105191637/eclipse/workspace/bldcmotor/Libraries/XMCLib/inc\xmc_posif.h **** {
 192:D:/DAVE IDE/4.5.0.202105191637/eclipse/workspace/bldcmotor/Libraries/XMCLib/inc\xmc_posif.h ****   XMC_POSIF_FILTER_DISABLED     = 0U, /**< No filtering */
 193:D:/DAVE IDE/4.5.0.202105191637/eclipse/workspace/bldcmotor/Libraries/XMCLib/inc\xmc_posif.h ****   XMC_POSIF_FILTER_1_CLOCK_CYCLE,     /**< Filter of 1 Clock Cycle */
 194:D:/DAVE IDE/4.5.0.202105191637/eclipse/workspace/bldcmotor/Libraries/XMCLib/inc\xmc_posif.h ****   XMC_POSIF_FILTER_2_CLOCK_CYCLE,     /**< Filter of 2 Clock Cycles */
 195:D:/DAVE IDE/4.5.0.202105191637/eclipse/workspace/bldcmotor/Libraries/XMCLib/inc\xmc_posif.h ****   XMC_POSIF_FILTER_4_CLOCK_CYCLE,     /**< Filter of 4 Clock Cycles */
 196:D:/DAVE IDE/4.5.0.202105191637/eclipse/workspace/bldcmotor/Libraries/XMCLib/inc\xmc_posif.h ****   XMC_POSIF_FILTER_8_CLOCK_CYCLE,     /**< Filter of 8 Clock Cycles */
 197:D:/DAVE IDE/4.5.0.202105191637/eclipse/workspace/bldcmotor/Libraries/XMCLib/inc\xmc_posif.h ****   XMC_POSIF_FILTER_16_CLOCK_CYCLE,    /**< Filter of 16 Clock Cycles */
 198:D:/DAVE IDE/4.5.0.202105191637/eclipse/workspace/bldcmotor/Libraries/XMCLib/inc\xmc_posif.h ****   XMC_POSIF_FILTER_32_CLOCK_CYCLE,    /**< Filter of 32 Clock Cycles */
 199:D:/DAVE IDE/4.5.0.202105191637/eclipse/workspace/bldcmotor/Libraries/XMCLib/inc\xmc_posif.h ****   XMC_POSIF_FILTER_64_CLOCK_CYCLE     /**< Filter of 64 Clock Cycles */
 200:D:/DAVE IDE/4.5.0.202105191637/eclipse/workspace/bldcmotor/Libraries/XMCLib/inc\xmc_posif.h **** } XMC_POSIF_FILTER_t;
 201:D:/DAVE IDE/4.5.0.202105191637/eclipse/workspace/bldcmotor/Libraries/XMCLib/inc\xmc_posif.h **** 
 202:D:/DAVE IDE/4.5.0.202105191637/eclipse/workspace/bldcmotor/Libraries/XMCLib/inc\xmc_posif.h **** /**
 203:D:/DAVE IDE/4.5.0.202105191637/eclipse/workspace/bldcmotor/Libraries/XMCLib/inc\xmc_posif.h ****  * Defines POSIF events.Use type @ref XMC_POSIF_IRQ_EVENT_t for this enum.
 204:D:/DAVE IDE/4.5.0.202105191637/eclipse/workspace/bldcmotor/Libraries/XMCLib/inc\xmc_posif.h ****  * The member defines available event sources.It is used to configure which event to be used for
 205:D:/DAVE IDE/4.5.0.202105191637/eclipse/workspace/bldcmotor/Libraries/XMCLib/inc\xmc_posif.h ****  * interrupt generation using \a PFLGE register. [ PFLG,SPFLG,RPFLG]
 206:D:/DAVE IDE/4.5.0.202105191637/eclipse/workspace/bldcmotor/Libraries/XMCLib/inc\xmc_posif.h ****  */
 207:D:/DAVE IDE/4.5.0.202105191637/eclipse/workspace/bldcmotor/Libraries/XMCLib/inc\xmc_posif.h **** typedef enum XMC_POSIF_IRQ_EVENT
 208:D:/DAVE IDE/4.5.0.202105191637/eclipse/workspace/bldcmotor/Libraries/XMCLib/inc\xmc_posif.h **** {
 209:D:/DAVE IDE/4.5.0.202105191637/eclipse/workspace/bldcmotor/Libraries/XMCLib/inc\xmc_posif.h ****   XMC_POSIF_IRQ_EVENT_CHE                  = 0U, /**< Hall Mode : Correct Hall Event */
 210:D:/DAVE IDE/4.5.0.202105191637/eclipse/workspace/bldcmotor/Libraries/XMCLib/inc\xmc_posif.h ****   XMC_POSIF_IRQ_EVENT_WHE                  = 1U, /**< Hall Mode : Wrong Hall Event */
 211:D:/DAVE IDE/4.5.0.202105191637/eclipse/workspace/bldcmotor/Libraries/XMCLib/inc\xmc_posif.h ****   XMC_POSIF_IRQ_EVENT_HALL_INPUT           = 2U, /**< Hall Mode : Hall Input update */
 212:D:/DAVE IDE/4.5.0.202105191637/eclipse/workspace/bldcmotor/Libraries/XMCLib/inc\xmc_posif.h ****   XMC_POSIF_IRQ_EVENT_MCP_SHADOW_TRANSFER  = 4U, /**< Hall Mode + MCM Mode : MC Pattern shadow tran
 213:D:/DAVE IDE/4.5.0.202105191637/eclipse/workspace/bldcmotor/Libraries/XMCLib/inc\xmc_posif.h ****   XMC_POSIF_IRQ_EVENT_INDX                 = 8U, /**< Quadrature Mode : Index event detection */
 214:D:/DAVE IDE/4.5.0.202105191637/eclipse/workspace/bldcmotor/Libraries/XMCLib/inc\xmc_posif.h ****   XMC_POSIF_IRQ_EVENT_ERR                  = 9U, /**< Quadrature Mode : Quadrature Phase Error */
 215:D:/DAVE IDE/4.5.0.202105191637/eclipse/workspace/bldcmotor/Libraries/XMCLib/inc\xmc_posif.h ****   XMC_POSIF_IRQ_EVENT_CNT                  = 10U, /**< Quadrature Mode : Quadrature Clock event */
 216:D:/DAVE IDE/4.5.0.202105191637/eclipse/workspace/bldcmotor/Libraries/XMCLib/inc\xmc_posif.h ****   XMC_POSIF_IRQ_EVENT_DIR                  = 11U, /**< Quadrature Mode : Quadrature Direction chang
 217:D:/DAVE IDE/4.5.0.202105191637/eclipse/workspace/bldcmotor/Libraries/XMCLib/inc\xmc_posif.h ****   XMC_POSIF_IRQ_EVENT_PCLK                 = 12U  /**< Quadrature Mode : Quadrature period clock ge
 218:D:/DAVE IDE/4.5.0.202105191637/eclipse/workspace/bldcmotor/Libraries/XMCLib/inc\xmc_posif.h **** } XMC_POSIF_IRQ_EVENT_t;
 219:D:/DAVE IDE/4.5.0.202105191637/eclipse/workspace/bldcmotor/Libraries/XMCLib/inc\xmc_posif.h **** 
 220:D:/DAVE IDE/4.5.0.202105191637/eclipse/workspace/bldcmotor/Libraries/XMCLib/inc\xmc_posif.h **** /**
 221:D:/DAVE IDE/4.5.0.202105191637/eclipse/workspace/bldcmotor/Libraries/XMCLib/inc\xmc_posif.h ****  * Defines POSIF service request lines.Use type @ref XMC_POSIF_SR_ID_t for this enum.
 222:D:/DAVE IDE/4.5.0.202105191637/eclipse/workspace/bldcmotor/Libraries/XMCLib/inc\xmc_posif.h ****  * It used to connect POSIF event to required service request line.
 223:D:/DAVE IDE/4.5.0.202105191637/eclipse/workspace/bldcmotor/Libraries/XMCLib/inc\xmc_posif.h ****  * in \a PFLGE register for interrupt generation.
 224:D:/DAVE IDE/4.5.0.202105191637/eclipse/workspace/bldcmotor/Libraries/XMCLib/inc\xmc_posif.h ****  */
 225:D:/DAVE IDE/4.5.0.202105191637/eclipse/workspace/bldcmotor/Libraries/XMCLib/inc\xmc_posif.h **** typedef enum XMC_POSIF_SR_ID
 226:D:/DAVE IDE/4.5.0.202105191637/eclipse/workspace/bldcmotor/Libraries/XMCLib/inc\xmc_posif.h **** {
 227:D:/DAVE IDE/4.5.0.202105191637/eclipse/workspace/bldcmotor/Libraries/XMCLib/inc\xmc_posif.h ****   XMC_POSIF_SR_ID_0 = 0U, /**< SR-0 */
 228:D:/DAVE IDE/4.5.0.202105191637/eclipse/workspace/bldcmotor/Libraries/XMCLib/inc\xmc_posif.h ****   XMC_POSIF_SR_ID_1      /**< SR-1 */
 229:D:/DAVE IDE/4.5.0.202105191637/eclipse/workspace/bldcmotor/Libraries/XMCLib/inc\xmc_posif.h **** } XMC_POSIF_SR_ID_t;
 230:D:/DAVE IDE/4.5.0.202105191637/eclipse/workspace/bldcmotor/Libraries/XMCLib/inc\xmc_posif.h **** 
 231:D:/DAVE IDE/4.5.0.202105191637/eclipse/workspace/bldcmotor/Libraries/XMCLib/inc\xmc_posif.h **** /**
 232:D:/DAVE IDE/4.5.0.202105191637/eclipse/workspace/bldcmotor/Libraries/XMCLib/inc\xmc_posif.h ****  * Defines position decoder mode selection.Use type @ref XMC_POSIF_QD_MODE_t for this enum.
 233:D:/DAVE IDE/4.5.0.202105191637/eclipse/workspace/bldcmotor/Libraries/XMCLib/inc\xmc_posif.h ****  * The member defines configuration for the operation of the quadrature decoder mode.
 234:D:/DAVE IDE/4.5.0.202105191637/eclipse/workspace/bldcmotor/Libraries/XMCLib/inc\xmc_posif.h ****  * It used to configure \a QDC register.
 235:D:/DAVE IDE/4.5.0.202105191637/eclipse/workspace/bldcmotor/Libraries/XMCLib/inc\xmc_posif.h ****  */
 236:D:/DAVE IDE/4.5.0.202105191637/eclipse/workspace/bldcmotor/Libraries/XMCLib/inc\xmc_posif.h **** typedef enum XMC_POSIF_QD_MODE
 237:D:/DAVE IDE/4.5.0.202105191637/eclipse/workspace/bldcmotor/Libraries/XMCLib/inc\xmc_posif.h **** {
 238:D:/DAVE IDE/4.5.0.202105191637/eclipse/workspace/bldcmotor/Libraries/XMCLib/inc\xmc_posif.h ****   XMC_POSIF_QD_MODE_QUADRATURE       = 0U, /**< Standard Quadrature Mode */
 239:D:/DAVE IDE/4.5.0.202105191637/eclipse/workspace/bldcmotor/Libraries/XMCLib/inc\xmc_posif.h ****   XMC_POSIF_QD_MODE_DIRECTION_COUNT       /**< Direction Count Mode */
 240:D:/DAVE IDE/4.5.0.202105191637/eclipse/workspace/bldcmotor/Libraries/XMCLib/inc\xmc_posif.h **** } XMC_POSIF_QD_MODE_t;
 241:D:/DAVE IDE/4.5.0.202105191637/eclipse/workspace/bldcmotor/Libraries/XMCLib/inc\xmc_posif.h **** 
 242:D:/DAVE IDE/4.5.0.202105191637/eclipse/workspace/bldcmotor/Libraries/XMCLib/inc\xmc_posif.h **** /**
 243:D:/DAVE IDE/4.5.0.202105191637/eclipse/workspace/bldcmotor/Libraries/XMCLib/inc\xmc_posif.h ****  * Defines motor rotation direction.Use type @ref XMC_POSIF_QD_DIR_t for this enum.
 244:D:/DAVE IDE/4.5.0.202105191637/eclipse/workspace/bldcmotor/Libraries/XMCLib/inc\xmc_posif.h ****  * The member defines the direction in quadrature mode.
 245:D:/DAVE IDE/4.5.0.202105191637/eclipse/workspace/bldcmotor/Libraries/XMCLib/inc\xmc_posif.h ****  */
 246:D:/DAVE IDE/4.5.0.202105191637/eclipse/workspace/bldcmotor/Libraries/XMCLib/inc\xmc_posif.h **** typedef enum XMC_POSIF_QD_DIR
 247:D:/DAVE IDE/4.5.0.202105191637/eclipse/workspace/bldcmotor/Libraries/XMCLib/inc\xmc_posif.h **** {
 248:D:/DAVE IDE/4.5.0.202105191637/eclipse/workspace/bldcmotor/Libraries/XMCLib/inc\xmc_posif.h ****   XMC_POSIF_QD_DIR_COUNTERCLOCKWISE  = 0U, /**< Counter Clockwise */
 249:D:/DAVE IDE/4.5.0.202105191637/eclipse/workspace/bldcmotor/Libraries/XMCLib/inc\xmc_posif.h ****   XMC_POSIF_QD_DIR_CLOCKWISE              /**< Clockwise */
 250:D:/DAVE IDE/4.5.0.202105191637/eclipse/workspace/bldcmotor/Libraries/XMCLib/inc\xmc_posif.h **** } XMC_POSIF_QD_DIR_t;
 251:D:/DAVE IDE/4.5.0.202105191637/eclipse/workspace/bldcmotor/Libraries/XMCLib/inc\xmc_posif.h **** 
 252:D:/DAVE IDE/4.5.0.202105191637/eclipse/workspace/bldcmotor/Libraries/XMCLib/inc\xmc_posif.h **** /**
 253:D:/DAVE IDE/4.5.0.202105191637/eclipse/workspace/bldcmotor/Libraries/XMCLib/inc\xmc_posif.h ****  * Defines frequency of index signal generation.Use type @ref XMC_POSIF_QD_INDEX_GENERATION_t for t
 254:D:/DAVE IDE/4.5.0.202105191637/eclipse/workspace/bldcmotor/Libraries/XMCLib/inc\xmc_posif.h ****  * Member represents available configuration for index marker generation using \a ICM  bit field in
 255:D:/DAVE IDE/4.5.0.202105191637/eclipse/workspace/bldcmotor/Libraries/XMCLib/inc\xmc_posif.h ****  */
 256:D:/DAVE IDE/4.5.0.202105191637/eclipse/workspace/bldcmotor/Libraries/XMCLib/inc\xmc_posif.h **** typedef enum XMC_POSIF_QD_INDEX_GENERATION
 257:D:/DAVE IDE/4.5.0.202105191637/eclipse/workspace/bldcmotor/Libraries/XMCLib/inc\xmc_posif.h **** {
 258:D:/DAVE IDE/4.5.0.202105191637/eclipse/workspace/bldcmotor/Libraries/XMCLib/inc\xmc_posif.h ****   XMC_POSIF_QD_INDEX_GENERATION_NEVER  = 0U, /**< Never generate the index marker signal */
 259:D:/DAVE IDE/4.5.0.202105191637/eclipse/workspace/bldcmotor/Libraries/XMCLib/inc\xmc_posif.h ****   XMC_POSIF_QD_INDEX_GENERATION_ONCE,       /**< Generate only once after the first revolution */
 260:D:/DAVE IDE/4.5.0.202105191637/eclipse/workspace/bldcmotor/Libraries/XMCLib/inc\xmc_posif.h ****   XMC_POSIF_QD_INDEX_GENERATION_ALWAYS      /**< Index marker generated upon every revolution */
 261:D:/DAVE IDE/4.5.0.202105191637/eclipse/workspace/bldcmotor/Libraries/XMCLib/inc\xmc_posif.h **** } XMC_POSIF_QD_INDEX_GENERATION_t;
 262:D:/DAVE IDE/4.5.0.202105191637/eclipse/workspace/bldcmotor/Libraries/XMCLib/inc\xmc_posif.h **** 
 263:D:/DAVE IDE/4.5.0.202105191637/eclipse/workspace/bldcmotor/Libraries/XMCLib/inc\xmc_posif.h **** /**
 264:D:/DAVE IDE/4.5.0.202105191637/eclipse/workspace/bldcmotor/Libraries/XMCLib/inc\xmc_posif.h ****  *  Defines trigger edge in hall sensor mode.Use type @ref XMC_POSIF_HSC_TRIGGER_EDGE_t for this en
 265:D:/DAVE IDE/4.5.0.202105191637/eclipse/workspace/bldcmotor/Libraries/XMCLib/inc\xmc_posif.h ****  *  It can be used to configure \a PCONF register's \a SPES and \a MSES bit fields.
 266:D:/DAVE IDE/4.5.0.202105191637/eclipse/workspace/bldcmotor/Libraries/XMCLib/inc\xmc_posif.h ****  */
 267:D:/DAVE IDE/4.5.0.202105191637/eclipse/workspace/bldcmotor/Libraries/XMCLib/inc\xmc_posif.h **** typedef enum XMC_POSIF_HSC_TRIGGER_EDGE
 268:D:/DAVE IDE/4.5.0.202105191637/eclipse/workspace/bldcmotor/Libraries/XMCLib/inc\xmc_posif.h **** {
 269:D:/DAVE IDE/4.5.0.202105191637/eclipse/workspace/bldcmotor/Libraries/XMCLib/inc\xmc_posif.h ****   XMC_POSIF_HSC_TRIGGER_EDGE_RISING  = 0U, /**< Rising edge */
 270:D:/DAVE IDE/4.5.0.202105191637/eclipse/workspace/bldcmotor/Libraries/XMCLib/inc\xmc_posif.h ****   XMC_POSIF_HSC_TRIGGER_EDGE_FALLING      /**< Falling edge */
 271:D:/DAVE IDE/4.5.0.202105191637/eclipse/workspace/bldcmotor/Libraries/XMCLib/inc\xmc_posif.h **** } XMC_POSIF_HSC_TRIGGER_EDGE_t;
 272:D:/DAVE IDE/4.5.0.202105191637/eclipse/workspace/bldcmotor/Libraries/XMCLib/inc\xmc_posif.h **** 
 273:D:/DAVE IDE/4.5.0.202105191637/eclipse/workspace/bldcmotor/Libraries/XMCLib/inc\xmc_posif.h **** /**************************************************************************************************
 274:D:/DAVE IDE/4.5.0.202105191637/eclipse/workspace/bldcmotor/Libraries/XMCLib/inc\xmc_posif.h ****  * DATA STRUCTURES
 275:D:/DAVE IDE/4.5.0.202105191637/eclipse/workspace/bldcmotor/Libraries/XMCLib/inc\xmc_posif.h ****  **************************************************************************************************
 276:D:/DAVE IDE/4.5.0.202105191637/eclipse/workspace/bldcmotor/Libraries/XMCLib/inc\xmc_posif.h **** 
 277:D:/DAVE IDE/4.5.0.202105191637/eclipse/workspace/bldcmotor/Libraries/XMCLib/inc\xmc_posif.h **** /*Anonymous structure/union guard start*/
 278:D:/DAVE IDE/4.5.0.202105191637/eclipse/workspace/bldcmotor/Libraries/XMCLib/inc\xmc_posif.h **** #if defined(__CC_ARM)
 279:D:/DAVE IDE/4.5.0.202105191637/eclipse/workspace/bldcmotor/Libraries/XMCLib/inc\xmc_posif.h **** #pragma push
 280:D:/DAVE IDE/4.5.0.202105191637/eclipse/workspace/bldcmotor/Libraries/XMCLib/inc\xmc_posif.h **** #pragma anon_unions
 281:D:/DAVE IDE/4.5.0.202105191637/eclipse/workspace/bldcmotor/Libraries/XMCLib/inc\xmc_posif.h **** #elif defined(__TASKING__)
 282:D:/DAVE IDE/4.5.0.202105191637/eclipse/workspace/bldcmotor/Libraries/XMCLib/inc\xmc_posif.h **** #pragma warning 586
 283:D:/DAVE IDE/4.5.0.202105191637/eclipse/workspace/bldcmotor/Libraries/XMCLib/inc\xmc_posif.h **** #endif
 284:D:/DAVE IDE/4.5.0.202105191637/eclipse/workspace/bldcmotor/Libraries/XMCLib/inc\xmc_posif.h **** 
 285:D:/DAVE IDE/4.5.0.202105191637/eclipse/workspace/bldcmotor/Libraries/XMCLib/inc\xmc_posif.h **** /**
 286:D:/DAVE IDE/4.5.0.202105191637/eclipse/workspace/bldcmotor/Libraries/XMCLib/inc\xmc_posif.h ****  *
 287:D:/DAVE IDE/4.5.0.202105191637/eclipse/workspace/bldcmotor/Libraries/XMCLib/inc\xmc_posif.h ****  * Defines POSIF peripheral register structure.Use type @ref XMC_POSIF_t for this data structure.
 288:D:/DAVE IDE/4.5.0.202105191637/eclipse/workspace/bldcmotor/Libraries/XMCLib/inc\xmc_posif.h ****  */
 289:D:/DAVE IDE/4.5.0.202105191637/eclipse/workspace/bldcmotor/Libraries/XMCLib/inc\xmc_posif.h **** typedef POSIF_GLOBAL_TypeDef XMC_POSIF_t;
 290:D:/DAVE IDE/4.5.0.202105191637/eclipse/workspace/bldcmotor/Libraries/XMCLib/inc\xmc_posif.h **** 
 291:D:/DAVE IDE/4.5.0.202105191637/eclipse/workspace/bldcmotor/Libraries/XMCLib/inc\xmc_posif.h **** /**
 292:D:/DAVE IDE/4.5.0.202105191637/eclipse/workspace/bldcmotor/Libraries/XMCLib/inc\xmc_posif.h ****  *  Defines POSIF quadrature decoder initialization data structure.
 293:D:/DAVE IDE/4.5.0.202105191637/eclipse/workspace/bldcmotor/Libraries/XMCLib/inc\xmc_posif.h ****  *  Use type @ref XMC_POSIF_QD_CONFIG_t for this data structure.
 294:D:/DAVE IDE/4.5.0.202105191637/eclipse/workspace/bldcmotor/Libraries/XMCLib/inc\xmc_posif.h ****  *  It used to configure Quadrature mode using \a QDC register.
 295:D:/DAVE IDE/4.5.0.202105191637/eclipse/workspace/bldcmotor/Libraries/XMCLib/inc\xmc_posif.h ****  */
 296:D:/DAVE IDE/4.5.0.202105191637/eclipse/workspace/bldcmotor/Libraries/XMCLib/inc\xmc_posif.h **** typedef struct XMC_POSIF_QD_CONFIG
 297:D:/DAVE IDE/4.5.0.202105191637/eclipse/workspace/bldcmotor/Libraries/XMCLib/inc\xmc_posif.h **** {
 298:D:/DAVE IDE/4.5.0.202105191637/eclipse/workspace/bldcmotor/Libraries/XMCLib/inc\xmc_posif.h ****   XMC_POSIF_QD_MODE_t mode;      /**< Operational Mode of the quadrature encoder and decoder */
 299:D:/DAVE IDE/4.5.0.202105191637/eclipse/workspace/bldcmotor/Libraries/XMCLib/inc\xmc_posif.h ****   union
 300:D:/DAVE IDE/4.5.0.202105191637/eclipse/workspace/bldcmotor/Libraries/XMCLib/inc\xmc_posif.h ****   {
 301:D:/DAVE IDE/4.5.0.202105191637/eclipse/workspace/bldcmotor/Libraries/XMCLib/inc\xmc_posif.h ****     struct
 302:D:/DAVE IDE/4.5.0.202105191637/eclipse/workspace/bldcmotor/Libraries/XMCLib/inc\xmc_posif.h ****     {
 303:D:/DAVE IDE/4.5.0.202105191637/eclipse/workspace/bldcmotor/Libraries/XMCLib/inc\xmc_posif.h ****       uint32_t phase_a: 1;       /**< Phase-A active level configuration */
 304:D:/DAVE IDE/4.5.0.202105191637/eclipse/workspace/bldcmotor/Libraries/XMCLib/inc\xmc_posif.h ****       uint32_t phase_b: 1;       /**< Phase-B active level configuration */
 305:D:/DAVE IDE/4.5.0.202105191637/eclipse/workspace/bldcmotor/Libraries/XMCLib/inc\xmc_posif.h ****       uint32_t phase_leader: 1;  /**< Which of the two phase signals[Phase A or Phase B] leads the 
 306:D:/DAVE IDE/4.5.0.202105191637/eclipse/workspace/bldcmotor/Libraries/XMCLib/inc\xmc_posif.h ****       uint32_t : 1;
 307:D:/DAVE IDE/4.5.0.202105191637/eclipse/workspace/bldcmotor/Libraries/XMCLib/inc\xmc_posif.h ****       uint32_t index: 2;        /**< Index signal generation control. Use @ref XMC_POSIF_QD_INDEX_G
 308:D:/DAVE IDE/4.5.0.202105191637/eclipse/workspace/bldcmotor/Libraries/XMCLib/inc\xmc_posif.h ****       uint32_t : 26;
 309:D:/DAVE IDE/4.5.0.202105191637/eclipse/workspace/bldcmotor/Libraries/XMCLib/inc\xmc_posif.h ****     };
 310:D:/DAVE IDE/4.5.0.202105191637/eclipse/workspace/bldcmotor/Libraries/XMCLib/inc\xmc_posif.h ****     uint32_t qdc;
 311:D:/DAVE IDE/4.5.0.202105191637/eclipse/workspace/bldcmotor/Libraries/XMCLib/inc\xmc_posif.h ****   };
 312:D:/DAVE IDE/4.5.0.202105191637/eclipse/workspace/bldcmotor/Libraries/XMCLib/inc\xmc_posif.h **** } XMC_POSIF_QD_CONFIG_t;
 313:D:/DAVE IDE/4.5.0.202105191637/eclipse/workspace/bldcmotor/Libraries/XMCLib/inc\xmc_posif.h **** 
 314:D:/DAVE IDE/4.5.0.202105191637/eclipse/workspace/bldcmotor/Libraries/XMCLib/inc\xmc_posif.h **** /**
 315:D:/DAVE IDE/4.5.0.202105191637/eclipse/workspace/bldcmotor/Libraries/XMCLib/inc\xmc_posif.h ****  * Defines POSIF hall sensor control initialization data structure.
 316:D:/DAVE IDE/4.5.0.202105191637/eclipse/workspace/bldcmotor/Libraries/XMCLib/inc\xmc_posif.h ****  * Use type @ref XMC_POSIF_HSC_CONFIG_t for this data structure.
 317:D:/DAVE IDE/4.5.0.202105191637/eclipse/workspace/bldcmotor/Libraries/XMCLib/inc\xmc_posif.h ****  * It used to initialize hall sensor mode configuration using \a PCONF register.
 318:D:/DAVE IDE/4.5.0.202105191637/eclipse/workspace/bldcmotor/Libraries/XMCLib/inc\xmc_posif.h ****  */
 319:D:/DAVE IDE/4.5.0.202105191637/eclipse/workspace/bldcmotor/Libraries/XMCLib/inc\xmc_posif.h **** typedef struct XMC_POSIF_HSC_CONFIG
 320:D:/DAVE IDE/4.5.0.202105191637/eclipse/workspace/bldcmotor/Libraries/XMCLib/inc\xmc_posif.h **** {
 321:D:/DAVE IDE/4.5.0.202105191637/eclipse/workspace/bldcmotor/Libraries/XMCLib/inc\xmc_posif.h ****   union
 322:D:/DAVE IDE/4.5.0.202105191637/eclipse/workspace/bldcmotor/Libraries/XMCLib/inc\xmc_posif.h ****   {
 323:D:/DAVE IDE/4.5.0.202105191637/eclipse/workspace/bldcmotor/Libraries/XMCLib/inc\xmc_posif.h ****     struct
 324:D:/DAVE IDE/4.5.0.202105191637/eclipse/workspace/bldcmotor/Libraries/XMCLib/inc\xmc_posif.h ****     {
 325:D:/DAVE IDE/4.5.0.202105191637/eclipse/workspace/bldcmotor/Libraries/XMCLib/inc\xmc_posif.h ****       uint32_t : 4;
 326:D:/DAVE IDE/4.5.0.202105191637/eclipse/workspace/bldcmotor/Libraries/XMCLib/inc\xmc_posif.h ****       uint32_t disable_idle_signal: 1;   /**< Should idle signal be disabled upon wrong hall event?
 327:D:/DAVE IDE/4.5.0.202105191637/eclipse/workspace/bldcmotor/Libraries/XMCLib/inc\xmc_posif.h ****       uint32_t : 11;
 328:D:/DAVE IDE/4.5.0.202105191637/eclipse/workspace/bldcmotor/Libraries/XMCLib/inc\xmc_posif.h ****       uint32_t sampling_trigger: 1;      /**< Of HSDA and HSDB, which one is to be used to trigger 
 329:D:/DAVE IDE/4.5.0.202105191637/eclipse/workspace/bldcmotor/Libraries/XMCLib/inc\xmc_posif.h ****       uint32_t sampling_trigger_edge: 1; /**< Which edge of the sampling trigger signal is to be co
 330:D:/DAVE IDE/4.5.0.202105191637/eclipse/workspace/bldcmotor/Libraries/XMCLib/inc\xmc_posif.h ****       uint32_t : 6;
 331:D:/DAVE IDE/4.5.0.202105191637/eclipse/workspace/bldcmotor/Libraries/XMCLib/inc\xmc_posif.h ****       uint32_t external_error_port: 2;    /**< Of the 4 external error ports, which one is to be co
 332:D:/DAVE IDE/4.5.0.202105191637/eclipse/workspace/bldcmotor/Libraries/XMCLib/inc\xmc_posif.h ****       uint32_t external_error_enable: 1;  /**< Should external errors lead to Wrong Hall event? */
 333:D:/DAVE IDE/4.5.0.202105191637/eclipse/workspace/bldcmotor/Libraries/XMCLib/inc\xmc_posif.h ****       uint32_t external_error_level: 1;   /**< What should be the active level of external error si
 334:D:/DAVE IDE/4.5.0.202105191637/eclipse/workspace/bldcmotor/Libraries/XMCLib/inc\xmc_posif.h ****       uint32_t: 4;
 335:D:/DAVE IDE/4.5.0.202105191637/eclipse/workspace/bldcmotor/Libraries/XMCLib/inc\xmc_posif.h ****     };
 336:D:/DAVE IDE/4.5.0.202105191637/eclipse/workspace/bldcmotor/Libraries/XMCLib/inc\xmc_posif.h ****     uint32_t hall_config;
 337:D:/DAVE IDE/4.5.0.202105191637/eclipse/workspace/bldcmotor/Libraries/XMCLib/inc\xmc_posif.h ****   };
 338:D:/DAVE IDE/4.5.0.202105191637/eclipse/workspace/bldcmotor/Libraries/XMCLib/inc\xmc_posif.h **** } XMC_POSIF_HSC_CONFIG_t;
 339:D:/DAVE IDE/4.5.0.202105191637/eclipse/workspace/bldcmotor/Libraries/XMCLib/inc\xmc_posif.h **** 
 340:D:/DAVE IDE/4.5.0.202105191637/eclipse/workspace/bldcmotor/Libraries/XMCLib/inc\xmc_posif.h **** /**
 341:D:/DAVE IDE/4.5.0.202105191637/eclipse/workspace/bldcmotor/Libraries/XMCLib/inc\xmc_posif.h ****  * Defines POSIF multi-channel mode initialization data structure.
 342:D:/DAVE IDE/4.5.0.202105191637/eclipse/workspace/bldcmotor/Libraries/XMCLib/inc\xmc_posif.h ****  * Use type @ref XMC_POSIF_MCM_CONFIG_t for this data structure.
 343:D:/DAVE IDE/4.5.0.202105191637/eclipse/workspace/bldcmotor/Libraries/XMCLib/inc\xmc_posif.h ****  * It used to initialize multi channel mode configuration using \a PCONF register.
 344:D:/DAVE IDE/4.5.0.202105191637/eclipse/workspace/bldcmotor/Libraries/XMCLib/inc\xmc_posif.h ****  */
 345:D:/DAVE IDE/4.5.0.202105191637/eclipse/workspace/bldcmotor/Libraries/XMCLib/inc\xmc_posif.h **** typedef struct XMC_POSIF_MCM_CONFIG
 346:D:/DAVE IDE/4.5.0.202105191637/eclipse/workspace/bldcmotor/Libraries/XMCLib/inc\xmc_posif.h **** {
 347:D:/DAVE IDE/4.5.0.202105191637/eclipse/workspace/bldcmotor/Libraries/XMCLib/inc\xmc_posif.h ****   union
 348:D:/DAVE IDE/4.5.0.202105191637/eclipse/workspace/bldcmotor/Libraries/XMCLib/inc\xmc_posif.h ****   {
 349:D:/DAVE IDE/4.5.0.202105191637/eclipse/workspace/bldcmotor/Libraries/XMCLib/inc\xmc_posif.h ****     struct
 350:D:/DAVE IDE/4.5.0.202105191637/eclipse/workspace/bldcmotor/Libraries/XMCLib/inc\xmc_posif.h ****     {
 351:D:/DAVE IDE/4.5.0.202105191637/eclipse/workspace/bldcmotor/Libraries/XMCLib/inc\xmc_posif.h ****       uint32_t : 5;
 352:D:/DAVE IDE/4.5.0.202105191637/eclipse/workspace/bldcmotor/Libraries/XMCLib/inc\xmc_posif.h ****       uint32_t pattern_sw_update: 1; /**< should multi channel pattern updated by SW ? */
 353:D:/DAVE IDE/4.5.0.202105191637/eclipse/workspace/bldcmotor/Libraries/XMCLib/inc\xmc_posif.h ****       uint32_t : 12;
 354:D:/DAVE IDE/4.5.0.202105191637/eclipse/workspace/bldcmotor/Libraries/XMCLib/inc\xmc_posif.h ****       uint32_t pattern_update_trigger: 3; /**< Of the 8 update triggers, which one is to be conside
 355:D:/DAVE IDE/4.5.0.202105191637/eclipse/workspace/bldcmotor/Libraries/XMCLib/inc\xmc_posif.h ****       uint32_t pattern_trigger_edge: 1;  /**< Which edge of the pattern update trigger is to be con
 356:D:/DAVE IDE/4.5.0.202105191637/eclipse/workspace/bldcmotor/Libraries/XMCLib/inc\xmc_posif.h ****       uint32_t pwm_sync: 2;         /**< Of the 4 pwm sync inputs, which one is to be considered? *
 357:D:/DAVE IDE/4.5.0.202105191637/eclipse/workspace/bldcmotor/Libraries/XMCLib/inc\xmc_posif.h ****       uint32_t : 8;
 358:D:/DAVE IDE/4.5.0.202105191637/eclipse/workspace/bldcmotor/Libraries/XMCLib/inc\xmc_posif.h ****     };
 359:D:/DAVE IDE/4.5.0.202105191637/eclipse/workspace/bldcmotor/Libraries/XMCLib/inc\xmc_posif.h ****     uint32_t mcm_config;
 360:D:/DAVE IDE/4.5.0.202105191637/eclipse/workspace/bldcmotor/Libraries/XMCLib/inc\xmc_posif.h ****   };
 361:D:/DAVE IDE/4.5.0.202105191637/eclipse/workspace/bldcmotor/Libraries/XMCLib/inc\xmc_posif.h **** } XMC_POSIF_MCM_CONFIG_t;
 362:D:/DAVE IDE/4.5.0.202105191637/eclipse/workspace/bldcmotor/Libraries/XMCLib/inc\xmc_posif.h **** 
 363:D:/DAVE IDE/4.5.0.202105191637/eclipse/workspace/bldcmotor/Libraries/XMCLib/inc\xmc_posif.h **** /**
 364:D:/DAVE IDE/4.5.0.202105191637/eclipse/workspace/bldcmotor/Libraries/XMCLib/inc\xmc_posif.h ****  *  Defines POSIF module initialization data structure.
 365:D:/DAVE IDE/4.5.0.202105191637/eclipse/workspace/bldcmotor/Libraries/XMCLib/inc\xmc_posif.h ****  *  Use type @ref XMC_POSIF_CONFIG_t for this data structure.
 366:D:/DAVE IDE/4.5.0.202105191637/eclipse/workspace/bldcmotor/Libraries/XMCLib/inc\xmc_posif.h ****  *  It is used to initialize POSIF module using \a PCONF register.
 367:D:/DAVE IDE/4.5.0.202105191637/eclipse/workspace/bldcmotor/Libraries/XMCLib/inc\xmc_posif.h ****  */
 368:D:/DAVE IDE/4.5.0.202105191637/eclipse/workspace/bldcmotor/Libraries/XMCLib/inc\xmc_posif.h **** typedef struct XMC_POSIF_CONFIG
 369:D:/DAVE IDE/4.5.0.202105191637/eclipse/workspace/bldcmotor/Libraries/XMCLib/inc\xmc_posif.h **** {
 370:D:/DAVE IDE/4.5.0.202105191637/eclipse/workspace/bldcmotor/Libraries/XMCLib/inc\xmc_posif.h ****   union
 371:D:/DAVE IDE/4.5.0.202105191637/eclipse/workspace/bldcmotor/Libraries/XMCLib/inc\xmc_posif.h ****   {
 372:D:/DAVE IDE/4.5.0.202105191637/eclipse/workspace/bldcmotor/Libraries/XMCLib/inc\xmc_posif.h ****     struct
 373:D:/DAVE IDE/4.5.0.202105191637/eclipse/workspace/bldcmotor/Libraries/XMCLib/inc\xmc_posif.h ****     {
 374:D:/DAVE IDE/4.5.0.202105191637/eclipse/workspace/bldcmotor/Libraries/XMCLib/inc\xmc_posif.h ****       uint32_t mode: 2;    /**< POSIF Operational mode. Use @ref XMC_POSIF_MODE_t to configure */
 375:D:/DAVE IDE/4.5.0.202105191637/eclipse/workspace/bldcmotor/Libraries/XMCLib/inc\xmc_posif.h ****       uint32_t : 6;
 376:D:/DAVE IDE/4.5.0.202105191637/eclipse/workspace/bldcmotor/Libraries/XMCLib/inc\xmc_posif.h ****       uint32_t input0: 2; /**< Choice of input for Input-1 */
 377:D:/DAVE IDE/4.5.0.202105191637/eclipse/workspace/bldcmotor/Libraries/XMCLib/inc\xmc_posif.h ****       uint32_t input1: 2; /**< Choice of input for Input-2 */
 378:D:/DAVE IDE/4.5.0.202105191637/eclipse/workspace/bldcmotor/Libraries/XMCLib/inc\xmc_posif.h ****       uint32_t input2: 2; /**< Choice of input for Input-3 */
 379:D:/DAVE IDE/4.5.0.202105191637/eclipse/workspace/bldcmotor/Libraries/XMCLib/inc\xmc_posif.h ****       uint32_t : 14;
 380:D:/DAVE IDE/4.5.0.202105191637/eclipse/workspace/bldcmotor/Libraries/XMCLib/inc\xmc_posif.h ****       uint32_t filter: 3; /**< Input filter configuration */
 381:D:/DAVE IDE/4.5.0.202105191637/eclipse/workspace/bldcmotor/Libraries/XMCLib/inc\xmc_posif.h ****       uint32_t: 1;
 382:D:/DAVE IDE/4.5.0.202105191637/eclipse/workspace/bldcmotor/Libraries/XMCLib/inc\xmc_posif.h ****     };
 383:D:/DAVE IDE/4.5.0.202105191637/eclipse/workspace/bldcmotor/Libraries/XMCLib/inc\xmc_posif.h ****     uint32_t pconf;
 384:D:/DAVE IDE/4.5.0.202105191637/eclipse/workspace/bldcmotor/Libraries/XMCLib/inc\xmc_posif.h ****   };
 385:D:/DAVE IDE/4.5.0.202105191637/eclipse/workspace/bldcmotor/Libraries/XMCLib/inc\xmc_posif.h **** } XMC_POSIF_CONFIG_t;
 386:D:/DAVE IDE/4.5.0.202105191637/eclipse/workspace/bldcmotor/Libraries/XMCLib/inc\xmc_posif.h **** 
 387:D:/DAVE IDE/4.5.0.202105191637/eclipse/workspace/bldcmotor/Libraries/XMCLib/inc\xmc_posif.h **** /*Anonymous structure/union guard end*/
 388:D:/DAVE IDE/4.5.0.202105191637/eclipse/workspace/bldcmotor/Libraries/XMCLib/inc\xmc_posif.h **** #if defined(__CC_ARM)
 389:D:/DAVE IDE/4.5.0.202105191637/eclipse/workspace/bldcmotor/Libraries/XMCLib/inc\xmc_posif.h **** #pragma pop
 390:D:/DAVE IDE/4.5.0.202105191637/eclipse/workspace/bldcmotor/Libraries/XMCLib/inc\xmc_posif.h **** #elif defined(__TASKING__)
 391:D:/DAVE IDE/4.5.0.202105191637/eclipse/workspace/bldcmotor/Libraries/XMCLib/inc\xmc_posif.h **** #pragma warning restore
 392:D:/DAVE IDE/4.5.0.202105191637/eclipse/workspace/bldcmotor/Libraries/XMCLib/inc\xmc_posif.h **** #endif
 393:D:/DAVE IDE/4.5.0.202105191637/eclipse/workspace/bldcmotor/Libraries/XMCLib/inc\xmc_posif.h **** 
 394:D:/DAVE IDE/4.5.0.202105191637/eclipse/workspace/bldcmotor/Libraries/XMCLib/inc\xmc_posif.h **** /**************************************************************************************************
 395:D:/DAVE IDE/4.5.0.202105191637/eclipse/workspace/bldcmotor/Libraries/XMCLib/inc\xmc_posif.h ****  * API Prototypes
 396:D:/DAVE IDE/4.5.0.202105191637/eclipse/workspace/bldcmotor/Libraries/XMCLib/inc\xmc_posif.h ****  **************************************************************************************************
 397:D:/DAVE IDE/4.5.0.202105191637/eclipse/workspace/bldcmotor/Libraries/XMCLib/inc\xmc_posif.h **** #ifdef __cplusplus
 398:D:/DAVE IDE/4.5.0.202105191637/eclipse/workspace/bldcmotor/Libraries/XMCLib/inc\xmc_posif.h **** extern "C" {
 399:D:/DAVE IDE/4.5.0.202105191637/eclipse/workspace/bldcmotor/Libraries/XMCLib/inc\xmc_posif.h **** #endif
 400:D:/DAVE IDE/4.5.0.202105191637/eclipse/workspace/bldcmotor/Libraries/XMCLib/inc\xmc_posif.h **** 
 401:D:/DAVE IDE/4.5.0.202105191637/eclipse/workspace/bldcmotor/Libraries/XMCLib/inc\xmc_posif.h **** /**
 402:D:/DAVE IDE/4.5.0.202105191637/eclipse/workspace/bldcmotor/Libraries/XMCLib/inc\xmc_posif.h ****  * @param peripheral Pointer to an instance of POSIF module of type @ref XMC_POSIF_t
 403:D:/DAVE IDE/4.5.0.202105191637/eclipse/workspace/bldcmotor/Libraries/XMCLib/inc\xmc_posif.h ****  * @retval None
 404:D:/DAVE IDE/4.5.0.202105191637/eclipse/workspace/bldcmotor/Libraries/XMCLib/inc\xmc_posif.h ****  *
 405:D:/DAVE IDE/4.5.0.202105191637/eclipse/workspace/bldcmotor/Libraries/XMCLib/inc\xmc_posif.h ****  * \par<b>Description</b><br>
 406:D:/DAVE IDE/4.5.0.202105191637/eclipse/workspace/bldcmotor/Libraries/XMCLib/inc\xmc_posif.h ****  * De-asserts the POSIF module from reset and enables the clock.\n
 407:D:/DAVE IDE/4.5.0.202105191637/eclipse/workspace/bldcmotor/Libraries/XMCLib/inc\xmc_posif.h ****  * Configures \a PRCLR0 register's \a POSIF0RS or \a POSIF1RS bit field depends upon \a peripheral.
 408:D:/DAVE IDE/4.5.0.202105191637/eclipse/workspace/bldcmotor/Libraries/XMCLib/inc\xmc_posif.h ****  * If running on other than XMC45 device then it will ungate the peripheral clock.
 409:D:/DAVE IDE/4.5.0.202105191637/eclipse/workspace/bldcmotor/Libraries/XMCLib/inc\xmc_posif.h ****  *
 410:D:/DAVE IDE/4.5.0.202105191637/eclipse/workspace/bldcmotor/Libraries/XMCLib/inc\xmc_posif.h ****  * \par<b>Note</b><br>
 411:D:/DAVE IDE/4.5.0.202105191637/eclipse/workspace/bldcmotor/Libraries/XMCLib/inc\xmc_posif.h ****  * This is the first API which application must invoke to configure POSIF.
 412:D:/DAVE IDE/4.5.0.202105191637/eclipse/workspace/bldcmotor/Libraries/XMCLib/inc\xmc_posif.h ****  * It is internally called by XMC_POSIF_Init().
 413:D:/DAVE IDE/4.5.0.202105191637/eclipse/workspace/bldcmotor/Libraries/XMCLib/inc\xmc_posif.h ****  *
 414:D:/DAVE IDE/4.5.0.202105191637/eclipse/workspace/bldcmotor/Libraries/XMCLib/inc\xmc_posif.h ****  * \par<b>Related APIs:</b><BR>
 415:D:/DAVE IDE/4.5.0.202105191637/eclipse/workspace/bldcmotor/Libraries/XMCLib/inc\xmc_posif.h ****  * XMC_POSIF_Disable(),XMC_POSIF_Init() \n\n\n
 416:D:/DAVE IDE/4.5.0.202105191637/eclipse/workspace/bldcmotor/Libraries/XMCLib/inc\xmc_posif.h ****  */
 417:D:/DAVE IDE/4.5.0.202105191637/eclipse/workspace/bldcmotor/Libraries/XMCLib/inc\xmc_posif.h **** void XMC_POSIF_Enable(XMC_POSIF_t *const peripheral);
 418:D:/DAVE IDE/4.5.0.202105191637/eclipse/workspace/bldcmotor/Libraries/XMCLib/inc\xmc_posif.h **** 
 419:D:/DAVE IDE/4.5.0.202105191637/eclipse/workspace/bldcmotor/Libraries/XMCLib/inc\xmc_posif.h **** /**
 420:D:/DAVE IDE/4.5.0.202105191637/eclipse/workspace/bldcmotor/Libraries/XMCLib/inc\xmc_posif.h ****  * @param peripheral Pointer to an instance of POSIF module of type @ref XMC_POSIF_t
 421:D:/DAVE IDE/4.5.0.202105191637/eclipse/workspace/bldcmotor/Libraries/XMCLib/inc\xmc_posif.h ****  * @retval None
 422:D:/DAVE IDE/4.5.0.202105191637/eclipse/workspace/bldcmotor/Libraries/XMCLib/inc\xmc_posif.h ****  *
 423:D:/DAVE IDE/4.5.0.202105191637/eclipse/workspace/bldcmotor/Libraries/XMCLib/inc\xmc_posif.h ****  * \par<b>Description</b><br>
 424:D:/DAVE IDE/4.5.0.202105191637/eclipse/workspace/bldcmotor/Libraries/XMCLib/inc\xmc_posif.h ****  * Asserts the POSIF module into reset and disables the clock.\n
 425:D:/DAVE IDE/4.5.0.202105191637/eclipse/workspace/bldcmotor/Libraries/XMCLib/inc\xmc_posif.h ****  * If running on other than XMC45 device then in addition it will gate the peripheral clock.
 426:D:/DAVE IDE/4.5.0.202105191637/eclipse/workspace/bldcmotor/Libraries/XMCLib/inc\xmc_posif.h ****  * Configures \a PRCLR0 register's \a POSIF0RS or \a POSIF1RS bitfield depends upon \a peripheral.
 427:D:/DAVE IDE/4.5.0.202105191637/eclipse/workspace/bldcmotor/Libraries/XMCLib/inc\xmc_posif.h ****  *
 428:D:/DAVE IDE/4.5.0.202105191637/eclipse/workspace/bldcmotor/Libraries/XMCLib/inc\xmc_posif.h ****  * \par<b>Related APIs:</b><BR>
 429:D:/DAVE IDE/4.5.0.202105191637/eclipse/workspace/bldcmotor/Libraries/XMCLib/inc\xmc_posif.h ****  * XMC_POSIF_Enable()\n\n\n
 430:D:/DAVE IDE/4.5.0.202105191637/eclipse/workspace/bldcmotor/Libraries/XMCLib/inc\xmc_posif.h ****  */
 431:D:/DAVE IDE/4.5.0.202105191637/eclipse/workspace/bldcmotor/Libraries/XMCLib/inc\xmc_posif.h **** void XMC_POSIF_Disable(XMC_POSIF_t *const peripheral);
 432:D:/DAVE IDE/4.5.0.202105191637/eclipse/workspace/bldcmotor/Libraries/XMCLib/inc\xmc_posif.h **** 
 433:D:/DAVE IDE/4.5.0.202105191637/eclipse/workspace/bldcmotor/Libraries/XMCLib/inc\xmc_posif.h **** /**
 434:D:/DAVE IDE/4.5.0.202105191637/eclipse/workspace/bldcmotor/Libraries/XMCLib/inc\xmc_posif.h ****  * @param peripheral Pointer to an instance of POSIF module of type @ref XMC_POSIF_t
 435:D:/DAVE IDE/4.5.0.202105191637/eclipse/workspace/bldcmotor/Libraries/XMCLib/inc\xmc_posif.h ****  * @param config Pointer to POSIF configuration data(operation mode,input selection and filter conf
 436:D:/DAVE IDE/4.5.0.202105191637/eclipse/workspace/bldcmotor/Libraries/XMCLib/inc\xmc_posif.h ****  * @retval None
 437:D:/DAVE IDE/4.5.0.202105191637/eclipse/workspace/bldcmotor/Libraries/XMCLib/inc\xmc_posif.h ****  *
 438:D:/DAVE IDE/4.5.0.202105191637/eclipse/workspace/bldcmotor/Libraries/XMCLib/inc\xmc_posif.h ****  * \par<b>Description</b><br>
 439:D:/DAVE IDE/4.5.0.202105191637/eclipse/workspace/bldcmotor/Libraries/XMCLib/inc\xmc_posif.h ****  * Initialize POSIF module with \a config.\n
 440:D:/DAVE IDE/4.5.0.202105191637/eclipse/workspace/bldcmotor/Libraries/XMCLib/inc\xmc_posif.h ****  * Configures POSIF global registers.This is the first API which application must invoke to configu
 441:D:/DAVE IDE/4.5.0.202105191637/eclipse/workspace/bldcmotor/Libraries/XMCLib/inc\xmc_posif.h ****  * It sets up parameters common to all the POSIF modes - hall sensor,quadrature decoder and multi-c
 442:D:/DAVE IDE/4.5.0.202105191637/eclipse/workspace/bldcmotor/Libraries/XMCLib/inc\xmc_posif.h ****  * Configures \a PCONF register with mode of operation,input selection and filter configuration.
 443:D:/DAVE IDE/4.5.0.202105191637/eclipse/workspace/bldcmotor/Libraries/XMCLib/inc\xmc_posif.h ****  *
 444:D:/DAVE IDE/4.5.0.202105191637/eclipse/workspace/bldcmotor/Libraries/XMCLib/inc\xmc_posif.h ****  * \par<b>Related APIs:</b><BR>
 445:D:/DAVE IDE/4.5.0.202105191637/eclipse/workspace/bldcmotor/Libraries/XMCLib/inc\xmc_posif.h ****  * XMC_POSIF_HSC_Init(),XMC_POSIF_QD_Init(),XMC_POSIF_MCM_Init() \n\n\n
 446:D:/DAVE IDE/4.5.0.202105191637/eclipse/workspace/bldcmotor/Libraries/XMCLib/inc\xmc_posif.h **** */
 447:D:/DAVE IDE/4.5.0.202105191637/eclipse/workspace/bldcmotor/Libraries/XMCLib/inc\xmc_posif.h **** void XMC_POSIF_Init(XMC_POSIF_t *const peripheral, const XMC_POSIF_CONFIG_t *const config);
 448:D:/DAVE IDE/4.5.0.202105191637/eclipse/workspace/bldcmotor/Libraries/XMCLib/inc\xmc_posif.h **** 
 449:D:/DAVE IDE/4.5.0.202105191637/eclipse/workspace/bldcmotor/Libraries/XMCLib/inc\xmc_posif.h **** /**
 450:D:/DAVE IDE/4.5.0.202105191637/eclipse/workspace/bldcmotor/Libraries/XMCLib/inc\xmc_posif.h ****  * @param peripheral Pointer to an instance of POSIF module
 451:D:/DAVE IDE/4.5.0.202105191637/eclipse/workspace/bldcmotor/Libraries/XMCLib/inc\xmc_posif.h ****  * @param config Pointer to hall sensor control initialization data of type @ref XMC_POSIF_HSC_CONF
 452:D:/DAVE IDE/4.5.0.202105191637/eclipse/workspace/bldcmotor/Libraries/XMCLib/inc\xmc_posif.h ****  * @retval XMC_POSIF_STATUS_t  Returns @ref XMC_POSIF_STATUS_OK if configured in Hall Sensor Mode
 453:D:/DAVE IDE/4.5.0.202105191637/eclipse/workspace/bldcmotor/Libraries/XMCLib/inc\xmc_posif.h ****  *                             else return @ref XMC_POSIF_STATUS_ERROR.
 454:D:/DAVE IDE/4.5.0.202105191637/eclipse/workspace/bldcmotor/Libraries/XMCLib/inc\xmc_posif.h ****  *
 455:D:/DAVE IDE/4.5.0.202105191637/eclipse/workspace/bldcmotor/Libraries/XMCLib/inc\xmc_posif.h ****  * \par<b>Description</b><br>
 456:D:/DAVE IDE/4.5.0.202105191637/eclipse/workspace/bldcmotor/Libraries/XMCLib/inc\xmc_posif.h ****  * Initializes hall sensor control mode.\n
 457:D:/DAVE IDE/4.5.0.202105191637/eclipse/workspace/bldcmotor/Libraries/XMCLib/inc\xmc_posif.h ****  * Configures \a PCONF register with which POSIF input trigger to be used for
 458:D:/DAVE IDE/4.5.0.202105191637/eclipse/workspace/bldcmotor/Libraries/XMCLib/inc\xmc_posif.h ****  * sampling hall pattern.Configures \a PCONF register for idle signal generation for wrong hall eve
 459:D:/DAVE IDE/4.5.0.202105191637/eclipse/workspace/bldcmotor/Libraries/XMCLib/inc\xmc_posif.h ****  *
 460:D:/DAVE IDE/4.5.0.202105191637/eclipse/workspace/bldcmotor/Libraries/XMCLib/inc\xmc_posif.h ****  * \par<b>Note</b><br>
 461:D:/DAVE IDE/4.5.0.202105191637/eclipse/workspace/bldcmotor/Libraries/XMCLib/inc\xmc_posif.h ****  * It is necessary to have called XMC_POSIF_Init first with Hall sensor mode before invocation of t
 462:D:/DAVE IDE/4.5.0.202105191637/eclipse/workspace/bldcmotor/Libraries/XMCLib/inc\xmc_posif.h ****  *
 463:D:/DAVE IDE/4.5.0.202105191637/eclipse/workspace/bldcmotor/Libraries/XMCLib/inc\xmc_posif.h ****  * \par<b>Related APIs:</b><BR>
 464:D:/DAVE IDE/4.5.0.202105191637/eclipse/workspace/bldcmotor/Libraries/XMCLib/inc\xmc_posif.h ****  * XMC_POSIF_Init() \n\n\n
 465:D:/DAVE IDE/4.5.0.202105191637/eclipse/workspace/bldcmotor/Libraries/XMCLib/inc\xmc_posif.h ****  */
 466:D:/DAVE IDE/4.5.0.202105191637/eclipse/workspace/bldcmotor/Libraries/XMCLib/inc\xmc_posif.h **** XMC_POSIF_STATUS_t XMC_POSIF_HSC_Init(XMC_POSIF_t *const peripheral, const XMC_POSIF_HSC_CONFIG_t *
 467:D:/DAVE IDE/4.5.0.202105191637/eclipse/workspace/bldcmotor/Libraries/XMCLib/inc\xmc_posif.h **** 
 468:D:/DAVE IDE/4.5.0.202105191637/eclipse/workspace/bldcmotor/Libraries/XMCLib/inc\xmc_posif.h **** /**
 469:D:/DAVE IDE/4.5.0.202105191637/eclipse/workspace/bldcmotor/Libraries/XMCLib/inc\xmc_posif.h ****  * @param peripheral Pointer to an instance of POSIF module
 470:D:/DAVE IDE/4.5.0.202105191637/eclipse/workspace/bldcmotor/Libraries/XMCLib/inc\xmc_posif.h ****  * @param config Pointer to quadrature decoder initialization data
 471:D:/DAVE IDE/4.5.0.202105191637/eclipse/workspace/bldcmotor/Libraries/XMCLib/inc\xmc_posif.h ****  * @retval XMC_POSIF_STATUS_t Returns quadrature mode initialization status of type @ref XMC_POSIF_
 472:D:/DAVE IDE/4.5.0.202105191637/eclipse/workspace/bldcmotor/Libraries/XMCLib/inc\xmc_posif.h ****  *
 473:D:/DAVE IDE/4.5.0.202105191637/eclipse/workspace/bldcmotor/Libraries/XMCLib/inc\xmc_posif.h ****  * \par<b>Description</b><br>
 474:D:/DAVE IDE/4.5.0.202105191637/eclipse/workspace/bldcmotor/Libraries/XMCLib/inc\xmc_posif.h ****  * Initializes quadrature decoder control mode.\n
 475:D:/DAVE IDE/4.5.0.202105191637/eclipse/workspace/bldcmotor/Libraries/XMCLib/inc\xmc_posif.h ****  * Configures \a PCONF register with quadrature mode using @ref XMC_POSIF_QD_MODE_t data structure.
 476:D:/DAVE IDE/4.5.0.202105191637/eclipse/workspace/bldcmotor/Libraries/XMCLib/inc\xmc_posif.h ****  * Initializes \a QDC register with quadrature mode configuration using @ref XMC_POSIF_QD_CONFIG_t 
 477:D:/DAVE IDE/4.5.0.202105191637/eclipse/workspace/bldcmotor/Libraries/XMCLib/inc\xmc_posif.h ****  *
 478:D:/DAVE IDE/4.5.0.202105191637/eclipse/workspace/bldcmotor/Libraries/XMCLib/inc\xmc_posif.h ****  * \par<b>Note</b><br>
 479:D:/DAVE IDE/4.5.0.202105191637/eclipse/workspace/bldcmotor/Libraries/XMCLib/inc\xmc_posif.h ****  * It is necessary to have called XMC_POSIF_Init first with Quadrature decoder mode before invocati
 480:D:/DAVE IDE/4.5.0.202105191637/eclipse/workspace/bldcmotor/Libraries/XMCLib/inc\xmc_posif.h ****  *
 481:D:/DAVE IDE/4.5.0.202105191637/eclipse/workspace/bldcmotor/Libraries/XMCLib/inc\xmc_posif.h ****  * \par<b>Related APIs:</b><BR>
 482:D:/DAVE IDE/4.5.0.202105191637/eclipse/workspace/bldcmotor/Libraries/XMCLib/inc\xmc_posif.h ****  * XMC_POSIF_Init() \n\n\n
 483:D:/DAVE IDE/4.5.0.202105191637/eclipse/workspace/bldcmotor/Libraries/XMCLib/inc\xmc_posif.h ****  */
 484:D:/DAVE IDE/4.5.0.202105191637/eclipse/workspace/bldcmotor/Libraries/XMCLib/inc\xmc_posif.h **** XMC_POSIF_STATUS_t XMC_POSIF_QD_Init(XMC_POSIF_t *const peripheral, const XMC_POSIF_QD_CONFIG_t *co
 485:D:/DAVE IDE/4.5.0.202105191637/eclipse/workspace/bldcmotor/Libraries/XMCLib/inc\xmc_posif.h **** 
 486:D:/DAVE IDE/4.5.0.202105191637/eclipse/workspace/bldcmotor/Libraries/XMCLib/inc\xmc_posif.h **** /**
 487:D:/DAVE IDE/4.5.0.202105191637/eclipse/workspace/bldcmotor/Libraries/XMCLib/inc\xmc_posif.h ****  * @param peripheral Pointer to an instance of POSIF module
 488:D:/DAVE IDE/4.5.0.202105191637/eclipse/workspace/bldcmotor/Libraries/XMCLib/inc\xmc_posif.h ****  * @param config Pointer to quadrature decoder initialization data
 489:D:/DAVE IDE/4.5.0.202105191637/eclipse/workspace/bldcmotor/Libraries/XMCLib/inc\xmc_posif.h ****  * @retval XMC_POSIF_STATUS_t Returns multi channel pattern initialization status of type @ref XMC_
 490:D:/DAVE IDE/4.5.0.202105191637/eclipse/workspace/bldcmotor/Libraries/XMCLib/inc\xmc_posif.h ****  *
 491:D:/DAVE IDE/4.5.0.202105191637/eclipse/workspace/bldcmotor/Libraries/XMCLib/inc\xmc_posif.h ****  * \par<b>Description</b><br>
 492:D:/DAVE IDE/4.5.0.202105191637/eclipse/workspace/bldcmotor/Libraries/XMCLib/inc\xmc_posif.h ****  * Initializes multi channel mode in Hall mode, standalone multi-channel mode and quadrature with m
 493:D:/DAVE IDE/4.5.0.202105191637/eclipse/workspace/bldcmotor/Libraries/XMCLib/inc\xmc_posif.h ****  * Configures \a PCONF register with multi channel mode using @ref XMC_POSIF_MCM_CONFIG_t data stru
 494:D:/DAVE IDE/4.5.0.202105191637/eclipse/workspace/bldcmotor/Libraries/XMCLib/inc\xmc_posif.h ****  *
 495:D:/DAVE IDE/4.5.0.202105191637/eclipse/workspace/bldcmotor/Libraries/XMCLib/inc\xmc_posif.h ****  * \par<b>Note</b><br>
 496:D:/DAVE IDE/4.5.0.202105191637/eclipse/workspace/bldcmotor/Libraries/XMCLib/inc\xmc_posif.h ****  * It is necessary to call XMC_POSIF_Init first before invocation of this API.
 497:D:/DAVE IDE/4.5.0.202105191637/eclipse/workspace/bldcmotor/Libraries/XMCLib/inc\xmc_posif.h ****  * For XMC_POSIF_MODE_HALL_SENSOR, it is necessary to have called XMC_POSIF_HSC_Init before invocat
 498:D:/DAVE IDE/4.5.0.202105191637/eclipse/workspace/bldcmotor/Libraries/XMCLib/inc\xmc_posif.h ****  * For XMC_POSIF_MODE_MCM_QD, it is necessary to have called XMC_POSIF_QD_Init before invocation of
 499:D:/DAVE IDE/4.5.0.202105191637/eclipse/workspace/bldcmotor/Libraries/XMCLib/inc\xmc_posif.h ****  *
 500:D:/DAVE IDE/4.5.0.202105191637/eclipse/workspace/bldcmotor/Libraries/XMCLib/inc\xmc_posif.h ****  * \par<b>Related APIs:</b><BR>
 501:D:/DAVE IDE/4.5.0.202105191637/eclipse/workspace/bldcmotor/Libraries/XMCLib/inc\xmc_posif.h ****  * XMC_POSIF_Init(),XMC_POSIF_HSC_Init(),XMC_POSIF_QD_Init() \n\n\n
 502:D:/DAVE IDE/4.5.0.202105191637/eclipse/workspace/bldcmotor/Libraries/XMCLib/inc\xmc_posif.h ****  */
 503:D:/DAVE IDE/4.5.0.202105191637/eclipse/workspace/bldcmotor/Libraries/XMCLib/inc\xmc_posif.h **** XMC_POSIF_STATUS_t XMC_POSIF_MCM_Init(XMC_POSIF_t *const peripheral, const XMC_POSIF_MCM_CONFIG_t *
 504:D:/DAVE IDE/4.5.0.202105191637/eclipse/workspace/bldcmotor/Libraries/XMCLib/inc\xmc_posif.h **** 
 505:D:/DAVE IDE/4.5.0.202105191637/eclipse/workspace/bldcmotor/Libraries/XMCLib/inc\xmc_posif.h **** /**
 506:D:/DAVE IDE/4.5.0.202105191637/eclipse/workspace/bldcmotor/Libraries/XMCLib/inc\xmc_posif.h ****  * @param peripheral Pointer to an instance of POSIF module
 507:D:/DAVE IDE/4.5.0.202105191637/eclipse/workspace/bldcmotor/Libraries/XMCLib/inc\xmc_posif.h ****  * @param mode POSIF operating mode of type @ref XMC_POSIF_MODE_t
 508:D:/DAVE IDE/4.5.0.202105191637/eclipse/workspace/bldcmotor/Libraries/XMCLib/inc\xmc_posif.h ****  * @retval None
 509:D:/DAVE IDE/4.5.0.202105191637/eclipse/workspace/bldcmotor/Libraries/XMCLib/inc\xmc_posif.h ****  *
 510:D:/DAVE IDE/4.5.0.202105191637/eclipse/workspace/bldcmotor/Libraries/XMCLib/inc\xmc_posif.h ****  * \par<b>Description</b><br>
 511:D:/DAVE IDE/4.5.0.202105191637/eclipse/workspace/bldcmotor/Libraries/XMCLib/inc\xmc_posif.h ****  * Configures POSIF module for \a mode.\n
 512:D:/DAVE IDE/4.5.0.202105191637/eclipse/workspace/bldcmotor/Libraries/XMCLib/inc\xmc_posif.h ****  * Configures \a PCONF register's a\ FSEL bitfield with \a mode.
 513:D:/DAVE IDE/4.5.0.202105191637/eclipse/workspace/bldcmotor/Libraries/XMCLib/inc\xmc_posif.h ****  * Refer @ref XMC_POSIF_MODE_t for available options.
 514:D:/DAVE IDE/4.5.0.202105191637/eclipse/workspace/bldcmotor/Libraries/XMCLib/inc\xmc_posif.h ****  *
 515:D:/DAVE IDE/4.5.0.202105191637/eclipse/workspace/bldcmotor/Libraries/XMCLib/inc\xmc_posif.h ****  * \par<b>Note</b><br>
 516:D:/DAVE IDE/4.5.0.202105191637/eclipse/workspace/bldcmotor/Libraries/XMCLib/inc\xmc_posif.h ****  * POSIF module should be in stopped state while changing the operating mode.
 517:D:/DAVE IDE/4.5.0.202105191637/eclipse/workspace/bldcmotor/Libraries/XMCLib/inc\xmc_posif.h ****  *
 518:D:/DAVE IDE/4.5.0.202105191637/eclipse/workspace/bldcmotor/Libraries/XMCLib/inc\xmc_posif.h ****  * \par<b>Related APIs:</b><BR>
 519:D:/DAVE IDE/4.5.0.202105191637/eclipse/workspace/bldcmotor/Libraries/XMCLib/inc\xmc_posif.h ****  * XMC_POSIF_Stop() \n\n\n
 520:D:/DAVE IDE/4.5.0.202105191637/eclipse/workspace/bldcmotor/Libraries/XMCLib/inc\xmc_posif.h ****  */
 521:D:/DAVE IDE/4.5.0.202105191637/eclipse/workspace/bldcmotor/Libraries/XMCLib/inc\xmc_posif.h **** __STATIC_INLINE void XMC_POSIF_SetMode(XMC_POSIF_t *const peripheral, const XMC_POSIF_MODE_t mode)
 522:D:/DAVE IDE/4.5.0.202105191637/eclipse/workspace/bldcmotor/Libraries/XMCLib/inc\xmc_posif.h **** {
 523:D:/DAVE IDE/4.5.0.202105191637/eclipse/workspace/bldcmotor/Libraries/XMCLib/inc\xmc_posif.h ****   peripheral->PCONF = ((peripheral->PCONF & ~(uint32_t)(POSIF_PCONF_FSEL_Msk)) |
 524:D:/DAVE IDE/4.5.0.202105191637/eclipse/workspace/bldcmotor/Libraries/XMCLib/inc\xmc_posif.h ****                        (((uint32_t)mode << POSIF_PCONF_FSEL_Pos) & (uint32_t)POSIF_PCONF_FSEL_Msk))
 525:D:/DAVE IDE/4.5.0.202105191637/eclipse/workspace/bldcmotor/Libraries/XMCLib/inc\xmc_posif.h **** }
 526:D:/DAVE IDE/4.5.0.202105191637/eclipse/workspace/bldcmotor/Libraries/XMCLib/inc\xmc_posif.h **** 
 527:D:/DAVE IDE/4.5.0.202105191637/eclipse/workspace/bldcmotor/Libraries/XMCLib/inc\xmc_posif.h **** /**
 528:D:/DAVE IDE/4.5.0.202105191637/eclipse/workspace/bldcmotor/Libraries/XMCLib/inc\xmc_posif.h ****  * @param peripheral Pointer to an instance of POSIF module
 529:D:/DAVE IDE/4.5.0.202105191637/eclipse/workspace/bldcmotor/Libraries/XMCLib/inc\xmc_posif.h ****  * @param input0 Choice of input for input 0 [0-3]
 530:D:/DAVE IDE/4.5.0.202105191637/eclipse/workspace/bldcmotor/Libraries/XMCLib/inc\xmc_posif.h ****  * @param input1 Choice of input for input 1 [0-3]
 531:D:/DAVE IDE/4.5.0.202105191637/eclipse/workspace/bldcmotor/Libraries/XMCLib/inc\xmc_posif.h ****  * @param input2 Choice of input for input 2 [0-3]
 532:D:/DAVE IDE/4.5.0.202105191637/eclipse/workspace/bldcmotor/Libraries/XMCLib/inc\xmc_posif.h ****  * @retval None
 533:D:/DAVE IDE/4.5.0.202105191637/eclipse/workspace/bldcmotor/Libraries/XMCLib/inc\xmc_posif.h ****  *
 534:D:/DAVE IDE/4.5.0.202105191637/eclipse/workspace/bldcmotor/Libraries/XMCLib/inc\xmc_posif.h ****  * \par<b>Description</b><br>
 535:D:/DAVE IDE/4.5.0.202105191637/eclipse/workspace/bldcmotor/Libraries/XMCLib/inc\xmc_posif.h ****  * Configures which input to be connected to POSIF module. \n
 536:D:/DAVE IDE/4.5.0.202105191637/eclipse/workspace/bldcmotor/Libraries/XMCLib/inc\xmc_posif.h ****  * Configures \a PCONF register's INSEL0,INSEL1,INSEL2 bit fields with source for the input connect
 537:D:/DAVE IDE/4.5.0.202105191637/eclipse/workspace/bldcmotor/Libraries/XMCLib/inc\xmc_posif.h ****  * \a input1, \a input2 respectively.
 538:D:/DAVE IDE/4.5.0.202105191637/eclipse/workspace/bldcmotor/Libraries/XMCLib/inc\xmc_posif.h ****  *
 539:D:/DAVE IDE/4.5.0.202105191637/eclipse/workspace/bldcmotor/Libraries/XMCLib/inc\xmc_posif.h ****  * \par<b>Note</b><br>
 540:D:/DAVE IDE/4.5.0.202105191637/eclipse/workspace/bldcmotor/Libraries/XMCLib/inc\xmc_posif.h ****  * Configures which input is used for the Phase X or Hall input X function depending upon the modul
 541:D:/DAVE IDE/4.5.0.202105191637/eclipse/workspace/bldcmotor/Libraries/XMCLib/inc\xmc_posif.h ****  * set for Quadrature Decoder or Hall Sensor Mode.
 542:D:/DAVE IDE/4.5.0.202105191637/eclipse/workspace/bldcmotor/Libraries/XMCLib/inc\xmc_posif.h ****  *
 543:D:/DAVE IDE/4.5.0.202105191637/eclipse/workspace/bldcmotor/Libraries/XMCLib/inc\xmc_posif.h ****  * \par<b>Related APIs:</b><BR>
 544:D:/DAVE IDE/4.5.0.202105191637/eclipse/workspace/bldcmotor/Libraries/XMCLib/inc\xmc_posif.h ****  * XMC_POSIF_Init() \n\n\n
 545:D:/DAVE IDE/4.5.0.202105191637/eclipse/workspace/bldcmotor/Libraries/XMCLib/inc\xmc_posif.h ****  */
 546:D:/DAVE IDE/4.5.0.202105191637/eclipse/workspace/bldcmotor/Libraries/XMCLib/inc\xmc_posif.h **** void XMC_POSIF_SelectInputSource(XMC_POSIF_t *const peripheral, const XMC_POSIF_INPUT_PORT_t input0
 547:D:/DAVE IDE/4.5.0.202105191637/eclipse/workspace/bldcmotor/Libraries/XMCLib/inc\xmc_posif.h ****                                  const XMC_POSIF_INPUT_PORT_t input1, const XMC_POSIF_INPUT_PORT_t 
 548:D:/DAVE IDE/4.5.0.202105191637/eclipse/workspace/bldcmotor/Libraries/XMCLib/inc\xmc_posif.h **** 
 549:D:/DAVE IDE/4.5.0.202105191637/eclipse/workspace/bldcmotor/Libraries/XMCLib/inc\xmc_posif.h **** 
 550:D:/DAVE IDE/4.5.0.202105191637/eclipse/workspace/bldcmotor/Libraries/XMCLib/inc\xmc_posif.h **** /**
 551:D:/DAVE IDE/4.5.0.202105191637/eclipse/workspace/bldcmotor/Libraries/XMCLib/inc\xmc_posif.h ****  * @param peripheral Pointer to an instance of POSIF module
 552:D:/DAVE IDE/4.5.0.202105191637/eclipse/workspace/bldcmotor/Libraries/XMCLib/inc\xmc_posif.h ****  * @retval None
 553:D:/DAVE IDE/4.5.0.202105191637/eclipse/workspace/bldcmotor/Libraries/XMCLib/inc\xmc_posif.h ****  *
 554:D:/DAVE IDE/4.5.0.202105191637/eclipse/workspace/bldcmotor/Libraries/XMCLib/inc\xmc_posif.h ****  * \par<b>Description</b><br>
 555:D:/DAVE IDE/4.5.0.202105191637/eclipse/workspace/bldcmotor/Libraries/XMCLib/inc\xmc_posif.h ****  * Starts POSIF \a peripheral functional state machine.\n
 556:D:/DAVE IDE/4.5.0.202105191637/eclipse/workspace/bldcmotor/Libraries/XMCLib/inc\xmc_posif.h ****  * Starts POSIF state machine for \a peripheral.Configures \a PRUNS register's \a SRB bit field wit
 557:D:/DAVE IDE/4.5.0.202105191637/eclipse/workspace/bldcmotor/Libraries/XMCLib/inc\xmc_posif.h ****  *
 558:D:/DAVE IDE/4.5.0.202105191637/eclipse/workspace/bldcmotor/Libraries/XMCLib/inc\xmc_posif.h ****  * \par<b>Note</b><br>
 559:D:/DAVE IDE/4.5.0.202105191637/eclipse/workspace/bldcmotor/Libraries/XMCLib/inc\xmc_posif.h ****  * Global properties of POSIF along with mode specific properties should have been initialized befo
 560:D:/DAVE IDE/4.5.0.202105191637/eclipse/workspace/bldcmotor/Libraries/XMCLib/inc\xmc_posif.h ****  * FSM.
 561:D:/DAVE IDE/4.5.0.202105191637/eclipse/workspace/bldcmotor/Libraries/XMCLib/inc\xmc_posif.h ****  *
 562:D:/DAVE IDE/4.5.0.202105191637/eclipse/workspace/bldcmotor/Libraries/XMCLib/inc\xmc_posif.h ****  * \par<b>Related APIs:</b><BR>
 563:D:/DAVE IDE/4.5.0.202105191637/eclipse/workspace/bldcmotor/Libraries/XMCLib/inc\xmc_posif.h ****  * XMC_POSIF_Stop(),XMC_POSIF_IsRunning() \n\n\n
 564:D:/DAVE IDE/4.5.0.202105191637/eclipse/workspace/bldcmotor/Libraries/XMCLib/inc\xmc_posif.h ****  */
 565:D:/DAVE IDE/4.5.0.202105191637/eclipse/workspace/bldcmotor/Libraries/XMCLib/inc\xmc_posif.h **** __STATIC_INLINE void XMC_POSIF_Start(XMC_POSIF_t *const peripheral)
 566:D:/DAVE IDE/4.5.0.202105191637/eclipse/workspace/bldcmotor/Libraries/XMCLib/inc\xmc_posif.h **** {
  68              	 .loc 2 566 0
  69              	 .cfi_startproc
  70 0000 80B5     	 push {r7,lr}
  71              	.LCFI3:
  72              	 .cfi_def_cfa_offset 8
  73              	 .cfi_offset 7,-8
  74              	 .cfi_offset 14,-4
  75 0002 82B0     	 sub sp,sp,#8
  76              	.LCFI4:
  77              	 .cfi_def_cfa_offset 16
  78 0004 00AF     	 add r7,sp,#0
  79              	.LCFI5:
  80              	 .cfi_def_cfa_register 7
  81 0006 7860     	 str r0,[r7,#4]
 567:D:/DAVE IDE/4.5.0.202105191637/eclipse/workspace/bldcmotor/Libraries/XMCLib/inc\xmc_posif.h ****   peripheral->PRUNS = (uint32_t)POSIF_PRUNS_SRB_Msk;
  82              	 .loc 2 567 0
  83 0008 7B68     	 ldr r3,[r7,#4]
  84 000a 0122     	 mov r2,#1
  85 000c 9A60     	 str r2,[r3,#8]
 568:D:/DAVE IDE/4.5.0.202105191637/eclipse/workspace/bldcmotor/Libraries/XMCLib/inc\xmc_posif.h **** }
  86              	 .loc 2 568 0
  87 000e BD46     	 mov sp,r7
  88 0010 02B0     	 add sp,sp,#8
  89              	 
  90 0012 80BD     	 pop {r7,pc}
  91              	 .cfi_endproc
  92              	.LFE73:
  94              	 .section .text.XMC_POSIF_Stop,"ax",%progbits
  95              	 .align 2
  96              	 .code 16
  97              	 .thumb_func
  99              	XMC_POSIF_Stop:
 100              	.LFB74:
 569:D:/DAVE IDE/4.5.0.202105191637/eclipse/workspace/bldcmotor/Libraries/XMCLib/inc\xmc_posif.h **** 
 570:D:/DAVE IDE/4.5.0.202105191637/eclipse/workspace/bldcmotor/Libraries/XMCLib/inc\xmc_posif.h **** /**
 571:D:/DAVE IDE/4.5.0.202105191637/eclipse/workspace/bldcmotor/Libraries/XMCLib/inc\xmc_posif.h ****  * @param peripheral Pointer to an instance of POSIF module
 572:D:/DAVE IDE/4.5.0.202105191637/eclipse/workspace/bldcmotor/Libraries/XMCLib/inc\xmc_posif.h ****  * @retval None
 573:D:/DAVE IDE/4.5.0.202105191637/eclipse/workspace/bldcmotor/Libraries/XMCLib/inc\xmc_posif.h ****  *
 574:D:/DAVE IDE/4.5.0.202105191637/eclipse/workspace/bldcmotor/Libraries/XMCLib/inc\xmc_posif.h ****  * \par<b>Description</b><br>
 575:D:/DAVE IDE/4.5.0.202105191637/eclipse/workspace/bldcmotor/Libraries/XMCLib/inc\xmc_posif.h ****  * Stops POSIF \a peripheral functional state machine.\n
 576:D:/DAVE IDE/4.5.0.202105191637/eclipse/workspace/bldcmotor/Libraries/XMCLib/inc\xmc_posif.h ****  * Stop POSIF functional state machine and clears current internal status of the \a peripheral.
 577:D:/DAVE IDE/4.5.0.202105191637/eclipse/workspace/bldcmotor/Libraries/XMCLib/inc\xmc_posif.h ****  * Configures \a PRUNC register's \a CRB bit field with 1.
 578:D:/DAVE IDE/4.5.0.202105191637/eclipse/workspace/bldcmotor/Libraries/XMCLib/inc\xmc_posif.h ****  *
 579:D:/DAVE IDE/4.5.0.202105191637/eclipse/workspace/bldcmotor/Libraries/XMCLib/inc\xmc_posif.h ****  * \par<b>Related APIs:</b><BR>
 580:D:/DAVE IDE/4.5.0.202105191637/eclipse/workspace/bldcmotor/Libraries/XMCLib/inc\xmc_posif.h ****  * XMC_POSIF_Start(),XMC_POSIF_IsRunning() \n\n\n
 581:D:/DAVE IDE/4.5.0.202105191637/eclipse/workspace/bldcmotor/Libraries/XMCLib/inc\xmc_posif.h ****  */
 582:D:/DAVE IDE/4.5.0.202105191637/eclipse/workspace/bldcmotor/Libraries/XMCLib/inc\xmc_posif.h **** __STATIC_INLINE void XMC_POSIF_Stop(XMC_POSIF_t *const peripheral)
 583:D:/DAVE IDE/4.5.0.202105191637/eclipse/workspace/bldcmotor/Libraries/XMCLib/inc\xmc_posif.h **** {
 101              	 .loc 2 583 0
 102              	 .cfi_startproc
 103 0000 80B5     	 push {r7,lr}
 104              	.LCFI6:
 105              	 .cfi_def_cfa_offset 8
 106              	 .cfi_offset 7,-8
 107              	 .cfi_offset 14,-4
 108 0002 82B0     	 sub sp,sp,#8
 109              	.LCFI7:
 110              	 .cfi_def_cfa_offset 16
 111 0004 00AF     	 add r7,sp,#0
 112              	.LCFI8:
 113              	 .cfi_def_cfa_register 7
 114 0006 7860     	 str r0,[r7,#4]
 584:D:/DAVE IDE/4.5.0.202105191637/eclipse/workspace/bldcmotor/Libraries/XMCLib/inc\xmc_posif.h ****   peripheral->PRUNC = (uint32_t)(POSIF_PRUNC_CRB_Msk | POSIF_PRUNC_CSM_Msk);
 115              	 .loc 2 584 0
 116 0008 7B68     	 ldr r3,[r7,#4]
 117 000a 0322     	 mov r2,#3
 118 000c DA60     	 str r2,[r3,#12]
 585:D:/DAVE IDE/4.5.0.202105191637/eclipse/workspace/bldcmotor/Libraries/XMCLib/inc\xmc_posif.h **** }
 119              	 .loc 2 585 0
 120 000e BD46     	 mov sp,r7
 121 0010 02B0     	 add sp,sp,#8
 122              	 
 123 0012 80BD     	 pop {r7,pc}
 124              	 .cfi_endproc
 125              	.LFE74:
 127              	 .section .text.XMC_POSIF_HSC_SetHallPatterns,"ax",%progbits
 128              	 .align 2
 129              	 .code 16
 130              	 .thumb_func
 132              	XMC_POSIF_HSC_SetHallPatterns:
 133              	.LFB81:
 586:D:/DAVE IDE/4.5.0.202105191637/eclipse/workspace/bldcmotor/Libraries/XMCLib/inc\xmc_posif.h **** 
 587:D:/DAVE IDE/4.5.0.202105191637/eclipse/workspace/bldcmotor/Libraries/XMCLib/inc\xmc_posif.h **** /**
 588:D:/DAVE IDE/4.5.0.202105191637/eclipse/workspace/bldcmotor/Libraries/XMCLib/inc\xmc_posif.h ****  * @param peripheral Pointer to an instance of POSIF module
 589:D:/DAVE IDE/4.5.0.202105191637/eclipse/workspace/bldcmotor/Libraries/XMCLib/inc\xmc_posif.h ****  * @retval bool Returns false: IDLE, true:RUNNING
 590:D:/DAVE IDE/4.5.0.202105191637/eclipse/workspace/bldcmotor/Libraries/XMCLib/inc\xmc_posif.h ****  *
 591:D:/DAVE IDE/4.5.0.202105191637/eclipse/workspace/bldcmotor/Libraries/XMCLib/inc\xmc_posif.h ****  * \par<b>Description</b><br>
 592:D:/DAVE IDE/4.5.0.202105191637/eclipse/workspace/bldcmotor/Libraries/XMCLib/inc\xmc_posif.h ****  * Returns the status of POSIF module - Running or IDLE.\n
 593:D:/DAVE IDE/4.5.0.202105191637/eclipse/workspace/bldcmotor/Libraries/XMCLib/inc\xmc_posif.h ****  * Retrieves the status from \a PRUN register's \a SRB bit.
 594:D:/DAVE IDE/4.5.0.202105191637/eclipse/workspace/bldcmotor/Libraries/XMCLib/inc\xmc_posif.h ****  *
 595:D:/DAVE IDE/4.5.0.202105191637/eclipse/workspace/bldcmotor/Libraries/XMCLib/inc\xmc_posif.h ****  * \par<b>Related APIs:</b><BR>
 596:D:/DAVE IDE/4.5.0.202105191637/eclipse/workspace/bldcmotor/Libraries/XMCLib/inc\xmc_posif.h ****  * XMC_POSIF_Start(),XMC_POSIF_Stop() \n\n\n
 597:D:/DAVE IDE/4.5.0.202105191637/eclipse/workspace/bldcmotor/Libraries/XMCLib/inc\xmc_posif.h ****  */
 598:D:/DAVE IDE/4.5.0.202105191637/eclipse/workspace/bldcmotor/Libraries/XMCLib/inc\xmc_posif.h **** __STATIC_INLINE bool XMC_POSIF_IsRunning(XMC_POSIF_t *const peripheral)
 599:D:/DAVE IDE/4.5.0.202105191637/eclipse/workspace/bldcmotor/Libraries/XMCLib/inc\xmc_posif.h **** {
 600:D:/DAVE IDE/4.5.0.202105191637/eclipse/workspace/bldcmotor/Libraries/XMCLib/inc\xmc_posif.h ****   return ((bool)peripheral->PRUN);
 601:D:/DAVE IDE/4.5.0.202105191637/eclipse/workspace/bldcmotor/Libraries/XMCLib/inc\xmc_posif.h **** }
 602:D:/DAVE IDE/4.5.0.202105191637/eclipse/workspace/bldcmotor/Libraries/XMCLib/inc\xmc_posif.h **** 
 603:D:/DAVE IDE/4.5.0.202105191637/eclipse/workspace/bldcmotor/Libraries/XMCLib/inc\xmc_posif.h **** /**
 604:D:/DAVE IDE/4.5.0.202105191637/eclipse/workspace/bldcmotor/Libraries/XMCLib/inc\xmc_posif.h ****  * @param peripheral Pointer to an instance of POSIF module
 605:D:/DAVE IDE/4.5.0.202105191637/eclipse/workspace/bldcmotor/Libraries/XMCLib/inc\xmc_posif.h ****  * @retval uint8_t Returns last sampled hall sensor pattern. Range : [0-7]
 606:D:/DAVE IDE/4.5.0.202105191637/eclipse/workspace/bldcmotor/Libraries/XMCLib/inc\xmc_posif.h ****  *
 607:D:/DAVE IDE/4.5.0.202105191637/eclipse/workspace/bldcmotor/Libraries/XMCLib/inc\xmc_posif.h ****  * \par<b>Description</b><br>
 608:D:/DAVE IDE/4.5.0.202105191637/eclipse/workspace/bldcmotor/Libraries/XMCLib/inc\xmc_posif.h ****  * Returns last sampled hall sensor pattern of \a peripheral.\n
 609:D:/DAVE IDE/4.5.0.202105191637/eclipse/workspace/bldcmotor/Libraries/XMCLib/inc\xmc_posif.h ****  * Retrieves the last sampled hall sensor pattern from \a PDBG register's \a HSP bit field of \a pe
 610:D:/DAVE IDE/4.5.0.202105191637/eclipse/workspace/bldcmotor/Libraries/XMCLib/inc\xmc_posif.h ****  * Applications can at any point in time retrieve the last sampled hall sensor pattern by invoking 
 611:D:/DAVE IDE/4.5.0.202105191637/eclipse/workspace/bldcmotor/Libraries/XMCLib/inc\xmc_posif.h ****  *
 612:D:/DAVE IDE/4.5.0.202105191637/eclipse/workspace/bldcmotor/Libraries/XMCLib/inc\xmc_posif.h ****  * \par<b>Note</b><br>
 613:D:/DAVE IDE/4.5.0.202105191637/eclipse/workspace/bldcmotor/Libraries/XMCLib/inc\xmc_posif.h ****  * This is applicable only to the hall sensor mode of operation.
 614:D:/DAVE IDE/4.5.0.202105191637/eclipse/workspace/bldcmotor/Libraries/XMCLib/inc\xmc_posif.h ****  *
 615:D:/DAVE IDE/4.5.0.202105191637/eclipse/workspace/bldcmotor/Libraries/XMCLib/inc\xmc_posif.h ****  * \par<b>Related APIs:</b><BR>
 616:D:/DAVE IDE/4.5.0.202105191637/eclipse/workspace/bldcmotor/Libraries/XMCLib/inc\xmc_posif.h ****  * XMC_POSIF_HSC_GetCurrentPattern(),XMC_POSIF_HSC_GetExpectedPattern() \n\n\n
 617:D:/DAVE IDE/4.5.0.202105191637/eclipse/workspace/bldcmotor/Libraries/XMCLib/inc\xmc_posif.h ****  */
 618:D:/DAVE IDE/4.5.0.202105191637/eclipse/workspace/bldcmotor/Libraries/XMCLib/inc\xmc_posif.h **** __STATIC_INLINE uint8_t XMC_POSIF_HSC_GetLastSampledPattern(XMC_POSIF_t *const peripheral)
 619:D:/DAVE IDE/4.5.0.202105191637/eclipse/workspace/bldcmotor/Libraries/XMCLib/inc\xmc_posif.h **** {
 620:D:/DAVE IDE/4.5.0.202105191637/eclipse/workspace/bldcmotor/Libraries/XMCLib/inc\xmc_posif.h ****   return ((uint8_t)((peripheral->PDBG) & POSIF_PDBG_HSP_Msk) >> POSIF_PDBG_HSP_Pos);
 621:D:/DAVE IDE/4.5.0.202105191637/eclipse/workspace/bldcmotor/Libraries/XMCLib/inc\xmc_posif.h **** }
 622:D:/DAVE IDE/4.5.0.202105191637/eclipse/workspace/bldcmotor/Libraries/XMCLib/inc\xmc_posif.h **** 
 623:D:/DAVE IDE/4.5.0.202105191637/eclipse/workspace/bldcmotor/Libraries/XMCLib/inc\xmc_posif.h **** /**
 624:D:/DAVE IDE/4.5.0.202105191637/eclipse/workspace/bldcmotor/Libraries/XMCLib/inc\xmc_posif.h ****  * @param peripheral Pointer to an instance of POSIF module
 625:D:/DAVE IDE/4.5.0.202105191637/eclipse/workspace/bldcmotor/Libraries/XMCLib/inc\xmc_posif.h ****  * @retval uint8_t Returns current hall sensor pattern. Range : [0-7]
 626:D:/DAVE IDE/4.5.0.202105191637/eclipse/workspace/bldcmotor/Libraries/XMCLib/inc\xmc_posif.h ****  *
 627:D:/DAVE IDE/4.5.0.202105191637/eclipse/workspace/bldcmotor/Libraries/XMCLib/inc\xmc_posif.h ****  * \par<b>Description</b><br>
 628:D:/DAVE IDE/4.5.0.202105191637/eclipse/workspace/bldcmotor/Libraries/XMCLib/inc\xmc_posif.h ****  * Returns current sampled hall sensor pattern of \a peripheral.\n
 629:D:/DAVE IDE/4.5.0.202105191637/eclipse/workspace/bldcmotor/Libraries/XMCLib/inc\xmc_posif.h ****  * Retrieves the current hall sensor pattern from \a HALP register's \a HCP bit field of \a periphe
 630:D:/DAVE IDE/4.5.0.202105191637/eclipse/workspace/bldcmotor/Libraries/XMCLib/inc\xmc_posif.h ****  * Applications can at any point in time retrieve the current hall sensor pattern by invoking this 
 631:D:/DAVE IDE/4.5.0.202105191637/eclipse/workspace/bldcmotor/Libraries/XMCLib/inc\xmc_posif.h ****  *
 632:D:/DAVE IDE/4.5.0.202105191637/eclipse/workspace/bldcmotor/Libraries/XMCLib/inc\xmc_posif.h ****  * \par<b>Note</b><br>
 633:D:/DAVE IDE/4.5.0.202105191637/eclipse/workspace/bldcmotor/Libraries/XMCLib/inc\xmc_posif.h ****  * This is applicable only to the hall sensor mode of operation.
 634:D:/DAVE IDE/4.5.0.202105191637/eclipse/workspace/bldcmotor/Libraries/XMCLib/inc\xmc_posif.h ****  *
 635:D:/DAVE IDE/4.5.0.202105191637/eclipse/workspace/bldcmotor/Libraries/XMCLib/inc\xmc_posif.h ****  * \par<b>Related APIs:</b><BR>
 636:D:/DAVE IDE/4.5.0.202105191637/eclipse/workspace/bldcmotor/Libraries/XMCLib/inc\xmc_posif.h ****  * XMC_POSIF_HSC_GetLastSampledPattern(),XMC_POSIF_HSC_GetExpectedPattern() \n\n\n
 637:D:/DAVE IDE/4.5.0.202105191637/eclipse/workspace/bldcmotor/Libraries/XMCLib/inc\xmc_posif.h ****  */
 638:D:/DAVE IDE/4.5.0.202105191637/eclipse/workspace/bldcmotor/Libraries/XMCLib/inc\xmc_posif.h **** __STATIC_INLINE uint8_t XMC_POSIF_HSC_GetCurrentPattern(XMC_POSIF_t *const peripheral)
 639:D:/DAVE IDE/4.5.0.202105191637/eclipse/workspace/bldcmotor/Libraries/XMCLib/inc\xmc_posif.h **** {
 640:D:/DAVE IDE/4.5.0.202105191637/eclipse/workspace/bldcmotor/Libraries/XMCLib/inc\xmc_posif.h ****   return ((uint8_t)((peripheral->HALP & POSIF_HALP_HCP_Msk) >> POSIF_HALP_HCP_Pos));
 641:D:/DAVE IDE/4.5.0.202105191637/eclipse/workspace/bldcmotor/Libraries/XMCLib/inc\xmc_posif.h **** }
 642:D:/DAVE IDE/4.5.0.202105191637/eclipse/workspace/bldcmotor/Libraries/XMCLib/inc\xmc_posif.h **** 
 643:D:/DAVE IDE/4.5.0.202105191637/eclipse/workspace/bldcmotor/Libraries/XMCLib/inc\xmc_posif.h **** /**
 644:D:/DAVE IDE/4.5.0.202105191637/eclipse/workspace/bldcmotor/Libraries/XMCLib/inc\xmc_posif.h ****  * @param peripheral Pointer to an instance of POSIF module
 645:D:/DAVE IDE/4.5.0.202105191637/eclipse/workspace/bldcmotor/Libraries/XMCLib/inc\xmc_posif.h ****  * @retval uint8_t Returns expected hall sensor pattern. Range : [0-7]
 646:D:/DAVE IDE/4.5.0.202105191637/eclipse/workspace/bldcmotor/Libraries/XMCLib/inc\xmc_posif.h ****  *
 647:D:/DAVE IDE/4.5.0.202105191637/eclipse/workspace/bldcmotor/Libraries/XMCLib/inc\xmc_posif.h ****  * \par<b>Description</b><br>
 648:D:/DAVE IDE/4.5.0.202105191637/eclipse/workspace/bldcmotor/Libraries/XMCLib/inc\xmc_posif.h ****  * Returns expected hall sensor pattern of \a peripheral.\n
 649:D:/DAVE IDE/4.5.0.202105191637/eclipse/workspace/bldcmotor/Libraries/XMCLib/inc\xmc_posif.h ****  * Retrieves the expected hall sensor pattern from \a HALP register's \a HEP bit field of \a periph
 650:D:/DAVE IDE/4.5.0.202105191637/eclipse/workspace/bldcmotor/Libraries/XMCLib/inc\xmc_posif.h ****  * Applications can at any point in time retrieve the expected hall sensor pattern by invoking this
 651:D:/DAVE IDE/4.5.0.202105191637/eclipse/workspace/bldcmotor/Libraries/XMCLib/inc\xmc_posif.h ****  *
 652:D:/DAVE IDE/4.5.0.202105191637/eclipse/workspace/bldcmotor/Libraries/XMCLib/inc\xmc_posif.h ****  * \par<b>Note</b><br>
 653:D:/DAVE IDE/4.5.0.202105191637/eclipse/workspace/bldcmotor/Libraries/XMCLib/inc\xmc_posif.h ****  * This is applicable only to the hall sensor mode of operation.
 654:D:/DAVE IDE/4.5.0.202105191637/eclipse/workspace/bldcmotor/Libraries/XMCLib/inc\xmc_posif.h ****  *
 655:D:/DAVE IDE/4.5.0.202105191637/eclipse/workspace/bldcmotor/Libraries/XMCLib/inc\xmc_posif.h ****  * \par<b>Related APIs:</b><BR>
 656:D:/DAVE IDE/4.5.0.202105191637/eclipse/workspace/bldcmotor/Libraries/XMCLib/inc\xmc_posif.h ****  * XMC_POSIF_HSC_GetLastSampledPattern(),XMC_POSIF_HSC_GetCurrentPattern() \n\n\n
 657:D:/DAVE IDE/4.5.0.202105191637/eclipse/workspace/bldcmotor/Libraries/XMCLib/inc\xmc_posif.h ****  */
 658:D:/DAVE IDE/4.5.0.202105191637/eclipse/workspace/bldcmotor/Libraries/XMCLib/inc\xmc_posif.h **** __STATIC_INLINE uint8_t XMC_POSIF_HSC_GetExpectedPattern(XMC_POSIF_t *const peripheral)
 659:D:/DAVE IDE/4.5.0.202105191637/eclipse/workspace/bldcmotor/Libraries/XMCLib/inc\xmc_posif.h **** {
 660:D:/DAVE IDE/4.5.0.202105191637/eclipse/workspace/bldcmotor/Libraries/XMCLib/inc\xmc_posif.h ****   return ((uint8_t)((peripheral->HALP & POSIF_HALP_HEP_Msk) >> POSIF_HALP_HEP_Pos));
 661:D:/DAVE IDE/4.5.0.202105191637/eclipse/workspace/bldcmotor/Libraries/XMCLib/inc\xmc_posif.h **** }
 662:D:/DAVE IDE/4.5.0.202105191637/eclipse/workspace/bldcmotor/Libraries/XMCLib/inc\xmc_posif.h **** 
 663:D:/DAVE IDE/4.5.0.202105191637/eclipse/workspace/bldcmotor/Libraries/XMCLib/inc\xmc_posif.h **** /**
 664:D:/DAVE IDE/4.5.0.202105191637/eclipse/workspace/bldcmotor/Libraries/XMCLib/inc\xmc_posif.h ****  * @param peripheral Pointer to an instance of POSIF module
 665:D:/DAVE IDE/4.5.0.202105191637/eclipse/workspace/bldcmotor/Libraries/XMCLib/inc\xmc_posif.h ****  * @param pattern The hall sensor pattern to be programmed into current pattern [0-7]
 666:D:/DAVE IDE/4.5.0.202105191637/eclipse/workspace/bldcmotor/Libraries/XMCLib/inc\xmc_posif.h ****  * @retval None
 667:D:/DAVE IDE/4.5.0.202105191637/eclipse/workspace/bldcmotor/Libraries/XMCLib/inc\xmc_posif.h ****  *
 668:D:/DAVE IDE/4.5.0.202105191637/eclipse/workspace/bldcmotor/Libraries/XMCLib/inc\xmc_posif.h ****  * \par<b>Description</b><br>
 669:D:/DAVE IDE/4.5.0.202105191637/eclipse/workspace/bldcmotor/Libraries/XMCLib/inc\xmc_posif.h ****  * Configures current Hall sensor \a pattern of \a peripheral.\n
 670:D:/DAVE IDE/4.5.0.202105191637/eclipse/workspace/bldcmotor/Libraries/XMCLib/inc\xmc_posif.h ****  * Configures the Current hall sensor pattern on \a HALPS shadow register's \a HCPS bit field of \a
 671:D:/DAVE IDE/4.5.0.202105191637/eclipse/workspace/bldcmotor/Libraries/XMCLib/inc\xmc_posif.h ****  * Applications can set at any point in time program the current hall sensor pattern by invoking th
 672:D:/DAVE IDE/4.5.0.202105191637/eclipse/workspace/bldcmotor/Libraries/XMCLib/inc\xmc_posif.h ****  *
 673:D:/DAVE IDE/4.5.0.202105191637/eclipse/workspace/bldcmotor/Libraries/XMCLib/inc\xmc_posif.h ****  * \par<b>Note</b><br>
 674:D:/DAVE IDE/4.5.0.202105191637/eclipse/workspace/bldcmotor/Libraries/XMCLib/inc\xmc_posif.h ****  * This is applicable only to the hall sensor mode of operation. It may be noted that the pattern i
 675:D:/DAVE IDE/4.5.0.202105191637/eclipse/workspace/bldcmotor/Libraries/XMCLib/inc\xmc_posif.h ****  * written to the shadow register. Transfer from the shadow register is based on a hardware transfe
 676:D:/DAVE IDE/4.5.0.202105191637/eclipse/workspace/bldcmotor/Libraries/XMCLib/inc\xmc_posif.h ****  * or software trigger through API @ref XMC_POSIF_HSC_UpdateHallPattern().
 677:D:/DAVE IDE/4.5.0.202105191637/eclipse/workspace/bldcmotor/Libraries/XMCLib/inc\xmc_posif.h ****  *
 678:D:/DAVE IDE/4.5.0.202105191637/eclipse/workspace/bldcmotor/Libraries/XMCLib/inc\xmc_posif.h ****  * \par<b>Related APIs:</b><BR>
 679:D:/DAVE IDE/4.5.0.202105191637/eclipse/workspace/bldcmotor/Libraries/XMCLib/inc\xmc_posif.h ****  * XMC_POSIF_HSC_GetCurrentPattern(),XMC_POSIF_HSC_SetExpectedPattern() \n\n\n
 680:D:/DAVE IDE/4.5.0.202105191637/eclipse/workspace/bldcmotor/Libraries/XMCLib/inc\xmc_posif.h ****  */
 681:D:/DAVE IDE/4.5.0.202105191637/eclipse/workspace/bldcmotor/Libraries/XMCLib/inc\xmc_posif.h **** __STATIC_INLINE void XMC_POSIF_HSC_SetCurrentPattern(XMC_POSIF_t *const peripheral, const uint8_t p
 682:D:/DAVE IDE/4.5.0.202105191637/eclipse/workspace/bldcmotor/Libraries/XMCLib/inc\xmc_posif.h **** {
 683:D:/DAVE IDE/4.5.0.202105191637/eclipse/workspace/bldcmotor/Libraries/XMCLib/inc\xmc_posif.h ****   peripheral->HALPS = ((peripheral->HALPS & ~(uint32_t)(POSIF_HALPS_HCPS_Msk)) |
 684:D:/DAVE IDE/4.5.0.202105191637/eclipse/workspace/bldcmotor/Libraries/XMCLib/inc\xmc_posif.h ****                        (((uint32_t)pattern << POSIF_HALPS_HCPS_Pos) & (uint32_t)POSIF_HALPS_HCPS_Ms
 685:D:/DAVE IDE/4.5.0.202105191637/eclipse/workspace/bldcmotor/Libraries/XMCLib/inc\xmc_posif.h **** }
 686:D:/DAVE IDE/4.5.0.202105191637/eclipse/workspace/bldcmotor/Libraries/XMCLib/inc\xmc_posif.h **** 
 687:D:/DAVE IDE/4.5.0.202105191637/eclipse/workspace/bldcmotor/Libraries/XMCLib/inc\xmc_posif.h **** /**
 688:D:/DAVE IDE/4.5.0.202105191637/eclipse/workspace/bldcmotor/Libraries/XMCLib/inc\xmc_posif.h ****  * @param peripheral Pointer to an instance of POSIF module
 689:D:/DAVE IDE/4.5.0.202105191637/eclipse/workspace/bldcmotor/Libraries/XMCLib/inc\xmc_posif.h ****  * @param pattern The hall sensor pattern to be programmed into expected pattern [0-7]
 690:D:/DAVE IDE/4.5.0.202105191637/eclipse/workspace/bldcmotor/Libraries/XMCLib/inc\xmc_posif.h ****  * @retval None
 691:D:/DAVE IDE/4.5.0.202105191637/eclipse/workspace/bldcmotor/Libraries/XMCLib/inc\xmc_posif.h ****  *
 692:D:/DAVE IDE/4.5.0.202105191637/eclipse/workspace/bldcmotor/Libraries/XMCLib/inc\xmc_posif.h ****  * \par<b>Description</b><br>
 693:D:/DAVE IDE/4.5.0.202105191637/eclipse/workspace/bldcmotor/Libraries/XMCLib/inc\xmc_posif.h ****  * Configures the expected hall sensor \a pattern of \a peripheral.\n
 694:D:/DAVE IDE/4.5.0.202105191637/eclipse/workspace/bldcmotor/Libraries/XMCLib/inc\xmc_posif.h ****  * Applications can set at any point in time program the hall sensor expected patterns by invoking 
 695:D:/DAVE IDE/4.5.0.202105191637/eclipse/workspace/bldcmotor/Libraries/XMCLib/inc\xmc_posif.h ****  * Configures the expected hall sensor pattern on \a HALPS shadow register's \a HEPS bit field of \
 696:D:/DAVE IDE/4.5.0.202105191637/eclipse/workspace/bldcmotor/Libraries/XMCLib/inc\xmc_posif.h ****  *
 697:D:/DAVE IDE/4.5.0.202105191637/eclipse/workspace/bldcmotor/Libraries/XMCLib/inc\xmc_posif.h ****  * \par<b>Note</b><br>
 698:D:/DAVE IDE/4.5.0.202105191637/eclipse/workspace/bldcmotor/Libraries/XMCLib/inc\xmc_posif.h ****  * This is applicable only to the hall sensor mode of operation.It may be noted that the pattern is
 699:D:/DAVE IDE/4.5.0.202105191637/eclipse/workspace/bldcmotor/Libraries/XMCLib/inc\xmc_posif.h ****  * written to the shadow register. Transfer from the shadow register is based on a hardware transfe
 700:D:/DAVE IDE/4.5.0.202105191637/eclipse/workspace/bldcmotor/Libraries/XMCLib/inc\xmc_posif.h ****  * or software trigger through API @ref XMC_POSIF_HSC_UpdateHallPattern().
 701:D:/DAVE IDE/4.5.0.202105191637/eclipse/workspace/bldcmotor/Libraries/XMCLib/inc\xmc_posif.h ****  *
 702:D:/DAVE IDE/4.5.0.202105191637/eclipse/workspace/bldcmotor/Libraries/XMCLib/inc\xmc_posif.h ****  * \par<b>Related APIs:</b><BR>
 703:D:/DAVE IDE/4.5.0.202105191637/eclipse/workspace/bldcmotor/Libraries/XMCLib/inc\xmc_posif.h ****  * XMC_POSIF_HSC_GetExpectedPattern() \n\n\n
 704:D:/DAVE IDE/4.5.0.202105191637/eclipse/workspace/bldcmotor/Libraries/XMCLib/inc\xmc_posif.h ****  */
 705:D:/DAVE IDE/4.5.0.202105191637/eclipse/workspace/bldcmotor/Libraries/XMCLib/inc\xmc_posif.h **** __STATIC_INLINE void XMC_POSIF_HSC_SetExpectedPattern(XMC_POSIF_t *const peripheral, const uint8_t 
 706:D:/DAVE IDE/4.5.0.202105191637/eclipse/workspace/bldcmotor/Libraries/XMCLib/inc\xmc_posif.h **** {
 707:D:/DAVE IDE/4.5.0.202105191637/eclipse/workspace/bldcmotor/Libraries/XMCLib/inc\xmc_posif.h ****   peripheral->HALPS = ((peripheral->HALPS & ~(uint32_t)(POSIF_HALPS_HEPS_Msk)) |
 708:D:/DAVE IDE/4.5.0.202105191637/eclipse/workspace/bldcmotor/Libraries/XMCLib/inc\xmc_posif.h ****                        (((uint32_t)pattern << POSIF_HALPS_HEPS_Pos) & (uint32_t)POSIF_HALPS_HEPS_Ms
 709:D:/DAVE IDE/4.5.0.202105191637/eclipse/workspace/bldcmotor/Libraries/XMCLib/inc\xmc_posif.h **** }
 710:D:/DAVE IDE/4.5.0.202105191637/eclipse/workspace/bldcmotor/Libraries/XMCLib/inc\xmc_posif.h **** 
 711:D:/DAVE IDE/4.5.0.202105191637/eclipse/workspace/bldcmotor/Libraries/XMCLib/inc\xmc_posif.h **** /**
 712:D:/DAVE IDE/4.5.0.202105191637/eclipse/workspace/bldcmotor/Libraries/XMCLib/inc\xmc_posif.h ****  * @param peripheral Pointer to an instance of POSIF module
 713:D:/DAVE IDE/4.5.0.202105191637/eclipse/workspace/bldcmotor/Libraries/XMCLib/inc\xmc_posif.h ****  * @param pattern_mask The hall sensor pattern mask [0-63] Format of mask: (expected_pattern << 3) 
 714:D:/DAVE IDE/4.5.0.202105191637/eclipse/workspace/bldcmotor/Libraries/XMCLib/inc\xmc_posif.h ****  * @retval None
 715:D:/DAVE IDE/4.5.0.202105191637/eclipse/workspace/bldcmotor/Libraries/XMCLib/inc\xmc_posif.h ****  *
 716:D:/DAVE IDE/4.5.0.202105191637/eclipse/workspace/bldcmotor/Libraries/XMCLib/inc\xmc_posif.h ****  * \par<b>Description</b><br>
 717:D:/DAVE IDE/4.5.0.202105191637/eclipse/workspace/bldcmotor/Libraries/XMCLib/inc\xmc_posif.h ****  * Configures current and expected hall pattern of \a peripheral. \n
 718:D:/DAVE IDE/4.5.0.202105191637/eclipse/workspace/bldcmotor/Libraries/XMCLib/inc\xmc_posif.h ****  * Configures \a HALPS register with the Current and Expected hall sensor patterns in one operation
 719:D:/DAVE IDE/4.5.0.202105191637/eclipse/workspace/bldcmotor/Libraries/XMCLib/inc\xmc_posif.h ****  * Applications can at any point in time program the current and expected hall sensor pattern by in
 720:D:/DAVE IDE/4.5.0.202105191637/eclipse/workspace/bldcmotor/Libraries/XMCLib/inc\xmc_posif.h ****  *
 721:D:/DAVE IDE/4.5.0.202105191637/eclipse/workspace/bldcmotor/Libraries/XMCLib/inc\xmc_posif.h ****  * \par<b>Note</b><br>
 722:D:/DAVE IDE/4.5.0.202105191637/eclipse/workspace/bldcmotor/Libraries/XMCLib/inc\xmc_posif.h ****  * This is applicable only to the hall sensor mode of operation.  It may be noted that the pattern 
 723:D:/DAVE IDE/4.5.0.202105191637/eclipse/workspace/bldcmotor/Libraries/XMCLib/inc\xmc_posif.h ****  * written to the shadow register. Transfer from the shadow register is based on a hardware transfe
 724:D:/DAVE IDE/4.5.0.202105191637/eclipse/workspace/bldcmotor/Libraries/XMCLib/inc\xmc_posif.h ****  * or software trigger through API @ref XMC_POSIF_HSC_UpdateHallPattern().
 725:D:/DAVE IDE/4.5.0.202105191637/eclipse/workspace/bldcmotor/Libraries/XMCLib/inc\xmc_posif.h ****  *
 726:D:/DAVE IDE/4.5.0.202105191637/eclipse/workspace/bldcmotor/Libraries/XMCLib/inc\xmc_posif.h ****  * \par<b>Related APIs:</b><BR>
 727:D:/DAVE IDE/4.5.0.202105191637/eclipse/workspace/bldcmotor/Libraries/XMCLib/inc\xmc_posif.h ****  * XMC_POSIF_HSC_SetExpectedPattern(),XMC_POSIF_HSC_SetCurrentPattern() \n\n\n
 728:D:/DAVE IDE/4.5.0.202105191637/eclipse/workspace/bldcmotor/Libraries/XMCLib/inc\xmc_posif.h ****  */
 729:D:/DAVE IDE/4.5.0.202105191637/eclipse/workspace/bldcmotor/Libraries/XMCLib/inc\xmc_posif.h **** __STATIC_INLINE void XMC_POSIF_HSC_SetHallPatterns(XMC_POSIF_t *const peripheral, const uint8_t pat
 730:D:/DAVE IDE/4.5.0.202105191637/eclipse/workspace/bldcmotor/Libraries/XMCLib/inc\xmc_posif.h **** {
 134              	 .loc 2 730 0
 135              	 .cfi_startproc
 136 0000 80B5     	 push {r7,lr}
 137              	.LCFI9:
 138              	 .cfi_def_cfa_offset 8
 139              	 .cfi_offset 7,-8
 140              	 .cfi_offset 14,-4
 141 0002 82B0     	 sub sp,sp,#8
 142              	.LCFI10:
 143              	 .cfi_def_cfa_offset 16
 144 0004 00AF     	 add r7,sp,#0
 145              	.LCFI11:
 146              	 .cfi_def_cfa_register 7
 147 0006 7860     	 str r0,[r7,#4]
 148 0008 0A1C     	 mov r2,r1
 149 000a FB1C     	 add r3,r7,#3
 150 000c 1A70     	 strb r2,[r3]
 731:D:/DAVE IDE/4.5.0.202105191637/eclipse/workspace/bldcmotor/Libraries/XMCLib/inc\xmc_posif.h ****   peripheral->HALPS = (uint32_t)(pattern_mask & (POSIF_HALPS_HCPS_Msk | POSIF_HALPS_HEPS_Msk));
 151              	 .loc 2 731 0
 152 000e FB1C     	 add r3,r7,#3
 153 0010 1B78     	 ldrb r3,[r3]
 154 0012 3F22     	 mov r2,#63
 155 0014 1A40     	 and r2,r3
 156 0016 7B68     	 ldr r3,[r7,#4]
 157 0018 5A63     	 str r2,[r3,#52]
 732:D:/DAVE IDE/4.5.0.202105191637/eclipse/workspace/bldcmotor/Libraries/XMCLib/inc\xmc_posif.h **** }
 158              	 .loc 2 732 0
 159 001a BD46     	 mov sp,r7
 160 001c 02B0     	 add sp,sp,#8
 161              	 
 162 001e 80BD     	 pop {r7,pc}
 163              	 .cfi_endproc
 164              	.LFE81:
 166              	 .section .text.XMC_POSIF_HSC_UpdateHallPattern,"ax",%progbits
 167              	 .align 2
 168              	 .code 16
 169              	 .thumb_func
 171              	XMC_POSIF_HSC_UpdateHallPattern:
 172              	.LFB82:
 733:D:/DAVE IDE/4.5.0.202105191637/eclipse/workspace/bldcmotor/Libraries/XMCLib/inc\xmc_posif.h **** 
 734:D:/DAVE IDE/4.5.0.202105191637/eclipse/workspace/bldcmotor/Libraries/XMCLib/inc\xmc_posif.h **** /**
 735:D:/DAVE IDE/4.5.0.202105191637/eclipse/workspace/bldcmotor/Libraries/XMCLib/inc\xmc_posif.h ****  * @param peripheral Pointer to an instance of POSIF module
 736:D:/DAVE IDE/4.5.0.202105191637/eclipse/workspace/bldcmotor/Libraries/XMCLib/inc\xmc_posif.h ****  * @retval None
 737:D:/DAVE IDE/4.5.0.202105191637/eclipse/workspace/bldcmotor/Libraries/XMCLib/inc\xmc_posif.h ****  *
 738:D:/DAVE IDE/4.5.0.202105191637/eclipse/workspace/bldcmotor/Libraries/XMCLib/inc\xmc_posif.h ****  * \par<b>Description</b><br>
 739:D:/DAVE IDE/4.5.0.202105191637/eclipse/workspace/bldcmotor/Libraries/XMCLib/inc\xmc_posif.h ****  * Manually performs shadow transfer of hall sensor patterns.\n
 740:D:/DAVE IDE/4.5.0.202105191637/eclipse/workspace/bldcmotor/Libraries/XMCLib/inc\xmc_posif.h ****  * Configures \a MCMS register's \a STHR bit field with 1.
 741:D:/DAVE IDE/4.5.0.202105191637/eclipse/workspace/bldcmotor/Libraries/XMCLib/inc\xmc_posif.h ****  * Setting this bit to 1 leads to an immediate update of the fields \a HALP.HCP(Current pattern) an
 742:D:/DAVE IDE/4.5.0.202105191637/eclipse/workspace/bldcmotor/Libraries/XMCLib/inc\xmc_posif.h ****  *
 743:D:/DAVE IDE/4.5.0.202105191637/eclipse/workspace/bldcmotor/Libraries/XMCLib/inc\xmc_posif.h ****  * \par<b>Note</b><br>
 744:D:/DAVE IDE/4.5.0.202105191637/eclipse/workspace/bldcmotor/Libraries/XMCLib/inc\xmc_posif.h ****  * The transfer of hall sensor pattern shadow registers content to the sensor pattern register happ
 745:D:/DAVE IDE/4.5.0.202105191637/eclipse/workspace/bldcmotor/Libraries/XMCLib/inc\xmc_posif.h ****  * conditions. A hardware trigger starts the shadow transfer. Alternatively, the shadow transfer ca
 746:D:/DAVE IDE/4.5.0.202105191637/eclipse/workspace/bldcmotor/Libraries/XMCLib/inc\xmc_posif.h ****  * by application software by means of invocation of this API.
 747:D:/DAVE IDE/4.5.0.202105191637/eclipse/workspace/bldcmotor/Libraries/XMCLib/inc\xmc_posif.h ****  *
 748:D:/DAVE IDE/4.5.0.202105191637/eclipse/workspace/bldcmotor/Libraries/XMCLib/inc\xmc_posif.h ****  * \par<b>Related APIs:</b><BR>
 749:D:/DAVE IDE/4.5.0.202105191637/eclipse/workspace/bldcmotor/Libraries/XMCLib/inc\xmc_posif.h ****  * XMC_POSIF_HSC_SetHallPatterns() \n\n\n
 750:D:/DAVE IDE/4.5.0.202105191637/eclipse/workspace/bldcmotor/Libraries/XMCLib/inc\xmc_posif.h ****  */
 751:D:/DAVE IDE/4.5.0.202105191637/eclipse/workspace/bldcmotor/Libraries/XMCLib/inc\xmc_posif.h **** __STATIC_INLINE void XMC_POSIF_HSC_UpdateHallPattern(XMC_POSIF_t *const peripheral)
 752:D:/DAVE IDE/4.5.0.202105191637/eclipse/workspace/bldcmotor/Libraries/XMCLib/inc\xmc_posif.h **** {
 173              	 .loc 2 752 0
 174              	 .cfi_startproc
 175 0000 80B5     	 push {r7,lr}
 176              	.LCFI12:
 177              	 .cfi_def_cfa_offset 8
 178              	 .cfi_offset 7,-8
 179              	 .cfi_offset 14,-4
 180 0002 82B0     	 sub sp,sp,#8
 181              	.LCFI13:
 182              	 .cfi_def_cfa_offset 16
 183 0004 00AF     	 add r7,sp,#0
 184              	.LCFI14:
 185              	 .cfi_def_cfa_register 7
 186 0006 7860     	 str r0,[r7,#4]
 753:D:/DAVE IDE/4.5.0.202105191637/eclipse/workspace/bldcmotor/Libraries/XMCLib/inc\xmc_posif.h ****   peripheral->MCMS = (uint32_t)POSIF_MCMS_STHR_Msk;
 187              	 .loc 2 753 0
 188 0008 7B68     	 ldr r3,[r7,#4]
 189 000a 0222     	 mov r2,#2
 190 000c 9A64     	 str r2,[r3,#72]
 754:D:/DAVE IDE/4.5.0.202105191637/eclipse/workspace/bldcmotor/Libraries/XMCLib/inc\xmc_posif.h **** }
 191              	 .loc 2 754 0
 192 000e BD46     	 mov sp,r7
 193 0010 02B0     	 add sp,sp,#8
 194              	 
 195 0012 80BD     	 pop {r7,pc}
 196              	 .cfi_endproc
 197              	.LFE82:
 199              	 .section .text.XMC_POSIF_EnableEvent,"ax",%progbits
 200              	 .align 2
 201              	 .code 16
 202              	 .thumb_func
 204              	XMC_POSIF_EnableEvent:
 205              	.LFB92:
 755:D:/DAVE IDE/4.5.0.202105191637/eclipse/workspace/bldcmotor/Libraries/XMCLib/inc\xmc_posif.h **** 
 756:D:/DAVE IDE/4.5.0.202105191637/eclipse/workspace/bldcmotor/Libraries/XMCLib/inc\xmc_posif.h **** /**
 757:D:/DAVE IDE/4.5.0.202105191637/eclipse/workspace/bldcmotor/Libraries/XMCLib/inc\xmc_posif.h ****  * @param peripheral Pointer to an instance of POSIF module
 758:D:/DAVE IDE/4.5.0.202105191637/eclipse/workspace/bldcmotor/Libraries/XMCLib/inc\xmc_posif.h ****  * @param pattern The 16b multi-channel pattern [0-65535]
 759:D:/DAVE IDE/4.5.0.202105191637/eclipse/workspace/bldcmotor/Libraries/XMCLib/inc\xmc_posif.h ****  * @retval None
 760:D:/DAVE IDE/4.5.0.202105191637/eclipse/workspace/bldcmotor/Libraries/XMCLib/inc\xmc_posif.h ****  *
 761:D:/DAVE IDE/4.5.0.202105191637/eclipse/workspace/bldcmotor/Libraries/XMCLib/inc\xmc_posif.h ****  * \par<b>Description</b><br>
 762:D:/DAVE IDE/4.5.0.202105191637/eclipse/workspace/bldcmotor/Libraries/XMCLib/inc\xmc_posif.h ****  * Configures \a MCSM register with Multi-Channel Pattern.\n
 763:D:/DAVE IDE/4.5.0.202105191637/eclipse/workspace/bldcmotor/Libraries/XMCLib/inc\xmc_posif.h ****  * This 16b multi-channel pattern which controls the 16 outputs of all slices of a CCU8 module.
 764:D:/DAVE IDE/4.5.0.202105191637/eclipse/workspace/bldcmotor/Libraries/XMCLib/inc\xmc_posif.h ****  * Transfer from the shadow register is based on a hardware transfer trigger
 765:D:/DAVE IDE/4.5.0.202105191637/eclipse/workspace/bldcmotor/Libraries/XMCLib/inc\xmc_posif.h ****  * or software trigger through API @ref XMC_POSIF_MCM_UpdateMultiChannelPattern().
 766:D:/DAVE IDE/4.5.0.202105191637/eclipse/workspace/bldcmotor/Libraries/XMCLib/inc\xmc_posif.h ****  * Every time that a Multi-Channel pattern transfer is triggered, this value is passed into the fie
 767:D:/DAVE IDE/4.5.0.202105191637/eclipse/workspace/bldcmotor/Libraries/XMCLib/inc\xmc_posif.h ****  *
 768:D:/DAVE IDE/4.5.0.202105191637/eclipse/workspace/bldcmotor/Libraries/XMCLib/inc\xmc_posif.h ****  * \par<b>Note</b><br>
 769:D:/DAVE IDE/4.5.0.202105191637/eclipse/workspace/bldcmotor/Libraries/XMCLib/inc\xmc_posif.h ****  * It may be noted that the pattern is merely written to the shadow register.
 770:D:/DAVE IDE/4.5.0.202105191637/eclipse/workspace/bldcmotor/Libraries/XMCLib/inc\xmc_posif.h ****  *
 771:D:/DAVE IDE/4.5.0.202105191637/eclipse/workspace/bldcmotor/Libraries/XMCLib/inc\xmc_posif.h ****  * \par<b>Related APIs:</b><BR>
 772:D:/DAVE IDE/4.5.0.202105191637/eclipse/workspace/bldcmotor/Libraries/XMCLib/inc\xmc_posif.h ****  * XMC_POSIF_MCM_GetMultiChannelPattern() \n\n\n
 773:D:/DAVE IDE/4.5.0.202105191637/eclipse/workspace/bldcmotor/Libraries/XMCLib/inc\xmc_posif.h ****  */
 774:D:/DAVE IDE/4.5.0.202105191637/eclipse/workspace/bldcmotor/Libraries/XMCLib/inc\xmc_posif.h **** __STATIC_INLINE void XMC_POSIF_MCM_SetMultiChannelPattern(XMC_POSIF_t *const peripheral, const uint
 775:D:/DAVE IDE/4.5.0.202105191637/eclipse/workspace/bldcmotor/Libraries/XMCLib/inc\xmc_posif.h **** {
 776:D:/DAVE IDE/4.5.0.202105191637/eclipse/workspace/bldcmotor/Libraries/XMCLib/inc\xmc_posif.h ****   peripheral->MCSM = pattern;
 777:D:/DAVE IDE/4.5.0.202105191637/eclipse/workspace/bldcmotor/Libraries/XMCLib/inc\xmc_posif.h **** }
 778:D:/DAVE IDE/4.5.0.202105191637/eclipse/workspace/bldcmotor/Libraries/XMCLib/inc\xmc_posif.h **** 
 779:D:/DAVE IDE/4.5.0.202105191637/eclipse/workspace/bldcmotor/Libraries/XMCLib/inc\xmc_posif.h **** /**
 780:D:/DAVE IDE/4.5.0.202105191637/eclipse/workspace/bldcmotor/Libraries/XMCLib/inc\xmc_posif.h ****  * @param peripheral Pointer to an instance of POSIF module
 781:D:/DAVE IDE/4.5.0.202105191637/eclipse/workspace/bldcmotor/Libraries/XMCLib/inc\xmc_posif.h ****  * @retval uint16_t Returns configured multi channel pattern
 782:D:/DAVE IDE/4.5.0.202105191637/eclipse/workspace/bldcmotor/Libraries/XMCLib/inc\xmc_posif.h ****  *
 783:D:/DAVE IDE/4.5.0.202105191637/eclipse/workspace/bldcmotor/Libraries/XMCLib/inc\xmc_posif.h ****  * \par<b>Description</b><br>
 784:D:/DAVE IDE/4.5.0.202105191637/eclipse/workspace/bldcmotor/Libraries/XMCLib/inc\xmc_posif.h ****  * Returns configured multi channel pattern of \a peripheral. \n
 785:D:/DAVE IDE/4.5.0.202105191637/eclipse/workspace/bldcmotor/Libraries/XMCLib/inc\xmc_posif.h ****  * Retrieves the Multi-Channel Pattern from \a MCM register's MCMP bit field of \a peripheral
 786:D:/DAVE IDE/4.5.0.202105191637/eclipse/workspace/bldcmotor/Libraries/XMCLib/inc\xmc_posif.h ****  * Applications can at any point in time retrieve the multi-channel pattern by invoking this API.
 787:D:/DAVE IDE/4.5.0.202105191637/eclipse/workspace/bldcmotor/Libraries/XMCLib/inc\xmc_posif.h ****  *
 788:D:/DAVE IDE/4.5.0.202105191637/eclipse/workspace/bldcmotor/Libraries/XMCLib/inc\xmc_posif.h ****  * \par<b>Related APIs:</b><BR>
 789:D:/DAVE IDE/4.5.0.202105191637/eclipse/workspace/bldcmotor/Libraries/XMCLib/inc\xmc_posif.h ****  * XMC_POSIF_MCM_SetMultiChannelPattern() \n\n\n
 790:D:/DAVE IDE/4.5.0.202105191637/eclipse/workspace/bldcmotor/Libraries/XMCLib/inc\xmc_posif.h ****  */
 791:D:/DAVE IDE/4.5.0.202105191637/eclipse/workspace/bldcmotor/Libraries/XMCLib/inc\xmc_posif.h **** __STATIC_INLINE uint16_t XMC_POSIF_MCM_GetMultiChannelPattern(XMC_POSIF_t *const peripheral)
 792:D:/DAVE IDE/4.5.0.202105191637/eclipse/workspace/bldcmotor/Libraries/XMCLib/inc\xmc_posif.h **** {
 793:D:/DAVE IDE/4.5.0.202105191637/eclipse/workspace/bldcmotor/Libraries/XMCLib/inc\xmc_posif.h ****   return ((uint16_t)(peripheral->MCM & (uint32_t)POSIF_MCM_MCMP_Msk));
 794:D:/DAVE IDE/4.5.0.202105191637/eclipse/workspace/bldcmotor/Libraries/XMCLib/inc\xmc_posif.h **** }
 795:D:/DAVE IDE/4.5.0.202105191637/eclipse/workspace/bldcmotor/Libraries/XMCLib/inc\xmc_posif.h **** 
 796:D:/DAVE IDE/4.5.0.202105191637/eclipse/workspace/bldcmotor/Libraries/XMCLib/inc\xmc_posif.h **** /**
 797:D:/DAVE IDE/4.5.0.202105191637/eclipse/workspace/bldcmotor/Libraries/XMCLib/inc\xmc_posif.h ****  * @param peripheral Pointer to an instance of POSIF module
 798:D:/DAVE IDE/4.5.0.202105191637/eclipse/workspace/bldcmotor/Libraries/XMCLib/inc\xmc_posif.h ****  * @retval uint16_t Returns configured multi channel pattern present in shadow transfer register
 799:D:/DAVE IDE/4.5.0.202105191637/eclipse/workspace/bldcmotor/Libraries/XMCLib/inc\xmc_posif.h ****  *
 800:D:/DAVE IDE/4.5.0.202105191637/eclipse/workspace/bldcmotor/Libraries/XMCLib/inc\xmc_posif.h ****  * \par<b>Description</b><br>
 801:D:/DAVE IDE/4.5.0.202105191637/eclipse/workspace/bldcmotor/Libraries/XMCLib/inc\xmc_posif.h ****  * Returns configured multi channel pattern in shadow register of \a peripheral. \n
 802:D:/DAVE IDE/4.5.0.202105191637/eclipse/workspace/bldcmotor/Libraries/XMCLib/inc\xmc_posif.h ****  * Retrieves the Multi-Channel Pattern from \a MCSM shadow register's \a MCMPS bit field.
 803:D:/DAVE IDE/4.5.0.202105191637/eclipse/workspace/bldcmotor/Libraries/XMCLib/inc\xmc_posif.h ****  * Applications can at any point in time retrieve the multi-channel pattern by invoking this API.
 804:D:/DAVE IDE/4.5.0.202105191637/eclipse/workspace/bldcmotor/Libraries/XMCLib/inc\xmc_posif.h ****  *
 805:D:/DAVE IDE/4.5.0.202105191637/eclipse/workspace/bldcmotor/Libraries/XMCLib/inc\xmc_posif.h ****  * It can be used when MCM is enabled.
 806:D:/DAVE IDE/4.5.0.202105191637/eclipse/workspace/bldcmotor/Libraries/XMCLib/inc\xmc_posif.h ****  *
 807:D:/DAVE IDE/4.5.0.202105191637/eclipse/workspace/bldcmotor/Libraries/XMCLib/inc\xmc_posif.h ****  * \par<b>Related APIs:</b><BR>
 808:D:/DAVE IDE/4.5.0.202105191637/eclipse/workspace/bldcmotor/Libraries/XMCLib/inc\xmc_posif.h ****  * XMC_POSIF_MCM_SetMultiChannelPattern() \n\n\n
 809:D:/DAVE IDE/4.5.0.202105191637/eclipse/workspace/bldcmotor/Libraries/XMCLib/inc\xmc_posif.h ****  */
 810:D:/DAVE IDE/4.5.0.202105191637/eclipse/workspace/bldcmotor/Libraries/XMCLib/inc\xmc_posif.h **** __STATIC_INLINE uint16_t XMC_POSIF_MCM_GetShadowMultiChannelPattern(XMC_POSIF_t *const peripheral)
 811:D:/DAVE IDE/4.5.0.202105191637/eclipse/workspace/bldcmotor/Libraries/XMCLib/inc\xmc_posif.h **** {
 812:D:/DAVE IDE/4.5.0.202105191637/eclipse/workspace/bldcmotor/Libraries/XMCLib/inc\xmc_posif.h ****   return ((uint16_t)(peripheral->MCSM & (uint32_t)POSIF_MCSM_MCMPS_Msk));
 813:D:/DAVE IDE/4.5.0.202105191637/eclipse/workspace/bldcmotor/Libraries/XMCLib/inc\xmc_posif.h **** }
 814:D:/DAVE IDE/4.5.0.202105191637/eclipse/workspace/bldcmotor/Libraries/XMCLib/inc\xmc_posif.h **** 
 815:D:/DAVE IDE/4.5.0.202105191637/eclipse/workspace/bldcmotor/Libraries/XMCLib/inc\xmc_posif.h **** /**
 816:D:/DAVE IDE/4.5.0.202105191637/eclipse/workspace/bldcmotor/Libraries/XMCLib/inc\xmc_posif.h ****  * @param peripheral Pointer to an instance of POSIF module
 817:D:/DAVE IDE/4.5.0.202105191637/eclipse/workspace/bldcmotor/Libraries/XMCLib/inc\xmc_posif.h ****  * @retval None
 818:D:/DAVE IDE/4.5.0.202105191637/eclipse/workspace/bldcmotor/Libraries/XMCLib/inc\xmc_posif.h ****  *
 819:D:/DAVE IDE/4.5.0.202105191637/eclipse/workspace/bldcmotor/Libraries/XMCLib/inc\xmc_posif.h ****  * \par<b>Description</b><br>
 820:D:/DAVE IDE/4.5.0.202105191637/eclipse/workspace/bldcmotor/Libraries/XMCLib/inc\xmc_posif.h ****  * Performs shadow transfer of the Multi-Channel Pattern register by configuring \a MCMS register's
 821:D:/DAVE IDE/4.5.0.202105191637/eclipse/workspace/bldcmotor/Libraries/XMCLib/inc\xmc_posif.h ****  *
 822:D:/DAVE IDE/4.5.0.202105191637/eclipse/workspace/bldcmotor/Libraries/XMCLib/inc\xmc_posif.h ****  * \par<b>Note</b><br>
 823:D:/DAVE IDE/4.5.0.202105191637/eclipse/workspace/bldcmotor/Libraries/XMCLib/inc\xmc_posif.h ****  * Transfer multi-channel pattern shadow registers content to the actual pattern register of \a per
 824:D:/DAVE IDE/4.5.0.202105191637/eclipse/workspace/bldcmotor/Libraries/XMCLib/inc\xmc_posif.h ****  * The transfer of multi-channel pattern shadow registers content to the actual pattern register ha
 825:D:/DAVE IDE/4.5.0.202105191637/eclipse/workspace/bldcmotor/Libraries/XMCLib/inc\xmc_posif.h ****  * conditions. A hardware trigger starts the shadow transfer. Alternatively, the shadow transfer ca
 826:D:/DAVE IDE/4.5.0.202105191637/eclipse/workspace/bldcmotor/Libraries/XMCLib/inc\xmc_posif.h ****  * by application software by means of invocation of this API.
 827:D:/DAVE IDE/4.5.0.202105191637/eclipse/workspace/bldcmotor/Libraries/XMCLib/inc\xmc_posif.h ****  *
 828:D:/DAVE IDE/4.5.0.202105191637/eclipse/workspace/bldcmotor/Libraries/XMCLib/inc\xmc_posif.h ****  * \par<b>Related APIs:</b><BR>
 829:D:/DAVE IDE/4.5.0.202105191637/eclipse/workspace/bldcmotor/Libraries/XMCLib/inc\xmc_posif.h ****  * XMC_POSIF_MCM_SetMultiChannelPattern() \n\n\n
 830:D:/DAVE IDE/4.5.0.202105191637/eclipse/workspace/bldcmotor/Libraries/XMCLib/inc\xmc_posif.h ****  */
 831:D:/DAVE IDE/4.5.0.202105191637/eclipse/workspace/bldcmotor/Libraries/XMCLib/inc\xmc_posif.h **** __STATIC_INLINE void XMC_POSIF_MCM_UpdateMultiChannelPattern(XMC_POSIF_t *const peripheral)
 832:D:/DAVE IDE/4.5.0.202105191637/eclipse/workspace/bldcmotor/Libraries/XMCLib/inc\xmc_posif.h **** {
 833:D:/DAVE IDE/4.5.0.202105191637/eclipse/workspace/bldcmotor/Libraries/XMCLib/inc\xmc_posif.h ****   peripheral->MCMS |= (uint32_t)POSIF_MCMS_STMR_Msk;
 834:D:/DAVE IDE/4.5.0.202105191637/eclipse/workspace/bldcmotor/Libraries/XMCLib/inc\xmc_posif.h **** }
 835:D:/DAVE IDE/4.5.0.202105191637/eclipse/workspace/bldcmotor/Libraries/XMCLib/inc\xmc_posif.h **** 
 836:D:/DAVE IDE/4.5.0.202105191637/eclipse/workspace/bldcmotor/Libraries/XMCLib/inc\xmc_posif.h **** /**
 837:D:/DAVE IDE/4.5.0.202105191637/eclipse/workspace/bldcmotor/Libraries/XMCLib/inc\xmc_posif.h ****  * @param peripheral Pointer to an instance of POSIF module
 838:D:/DAVE IDE/4.5.0.202105191637/eclipse/workspace/bldcmotor/Libraries/XMCLib/inc\xmc_posif.h ****  * @retval None
 839:D:/DAVE IDE/4.5.0.202105191637/eclipse/workspace/bldcmotor/Libraries/XMCLib/inc\xmc_posif.h ****  *
 840:D:/DAVE IDE/4.5.0.202105191637/eclipse/workspace/bldcmotor/Libraries/XMCLib/inc\xmc_posif.h ****  * \par<b>Description</b><br>
 841:D:/DAVE IDE/4.5.0.202105191637/eclipse/workspace/bldcmotor/Libraries/XMCLib/inc\xmc_posif.h ****  * Enables update of the Multi-Channel Pattern by software in standalone multi-channel mode.\n
 842:D:/DAVE IDE/4.5.0.202105191637/eclipse/workspace/bldcmotor/Libraries/XMCLib/inc\xmc_posif.h ****  * Enabling update of multi-channel pattern happens under two conditions. A hardware trigger enable
 843:D:/DAVE IDE/4.5.0.202105191637/eclipse/workspace/bldcmotor/Libraries/XMCLib/inc\xmc_posif.h ****  * Alternatively, this can be enabled by software by means of invocation of this API.
 844:D:/DAVE IDE/4.5.0.202105191637/eclipse/workspace/bldcmotor/Libraries/XMCLib/inc\xmc_posif.h ****  *
 845:D:/DAVE IDE/4.5.0.202105191637/eclipse/workspace/bldcmotor/Libraries/XMCLib/inc\xmc_posif.h ****  * \par<b>Note</b><br>
 846:D:/DAVE IDE/4.5.0.202105191637/eclipse/workspace/bldcmotor/Libraries/XMCLib/inc\xmc_posif.h ****  * The update is not done immediately due to the fact that the trigger that synchronizes the update
 847:D:/DAVE IDE/4.5.0.202105191637/eclipse/workspace/bldcmotor/Libraries/XMCLib/inc\xmc_posif.h ****  * still needed.
 848:D:/DAVE IDE/4.5.0.202105191637/eclipse/workspace/bldcmotor/Libraries/XMCLib/inc\xmc_posif.h ****  *
 849:D:/DAVE IDE/4.5.0.202105191637/eclipse/workspace/bldcmotor/Libraries/XMCLib/inc\xmc_posif.h ****  * \par<b>Related APIs:</b><BR>
 850:D:/DAVE IDE/4.5.0.202105191637/eclipse/workspace/bldcmotor/Libraries/XMCLib/inc\xmc_posif.h ****  * XMC_POSIF_MCM_UpdateMultiChannelPattern() \n\n\n
 851:D:/DAVE IDE/4.5.0.202105191637/eclipse/workspace/bldcmotor/Libraries/XMCLib/inc\xmc_posif.h ****  */
 852:D:/DAVE IDE/4.5.0.202105191637/eclipse/workspace/bldcmotor/Libraries/XMCLib/inc\xmc_posif.h **** __STATIC_INLINE void XMC_POSIF_MCM_EnableMultiChannelPatternUpdate(XMC_POSIF_t *const peripheral)
 853:D:/DAVE IDE/4.5.0.202105191637/eclipse/workspace/bldcmotor/Libraries/XMCLib/inc\xmc_posif.h **** {
 854:D:/DAVE IDE/4.5.0.202105191637/eclipse/workspace/bldcmotor/Libraries/XMCLib/inc\xmc_posif.h ****   peripheral->MCMS |= (uint32_t)POSIF_MCMS_MNPS_Msk;
 855:D:/DAVE IDE/4.5.0.202105191637/eclipse/workspace/bldcmotor/Libraries/XMCLib/inc\xmc_posif.h **** }
 856:D:/DAVE IDE/4.5.0.202105191637/eclipse/workspace/bldcmotor/Libraries/XMCLib/inc\xmc_posif.h **** 
 857:D:/DAVE IDE/4.5.0.202105191637/eclipse/workspace/bldcmotor/Libraries/XMCLib/inc\xmc_posif.h **** /**
 858:D:/DAVE IDE/4.5.0.202105191637/eclipse/workspace/bldcmotor/Libraries/XMCLib/inc\xmc_posif.h ****  * @param peripheral Pointer to an instance of POSIF module
 859:D:/DAVE IDE/4.5.0.202105191637/eclipse/workspace/bldcmotor/Libraries/XMCLib/inc\xmc_posif.h ****  * @retval XMC_POSIF_QD_DIR_t Return direction of revolution of the motor of type @ref XMC_POSIF_QD
 860:D:/DAVE IDE/4.5.0.202105191637/eclipse/workspace/bldcmotor/Libraries/XMCLib/inc\xmc_posif.h ****  *
 861:D:/DAVE IDE/4.5.0.202105191637/eclipse/workspace/bldcmotor/Libraries/XMCLib/inc\xmc_posif.h ****  * \par<b>Description</b><br>
 862:D:/DAVE IDE/4.5.0.202105191637/eclipse/workspace/bldcmotor/Libraries/XMCLib/inc\xmc_posif.h ****  * Returns the direction of revolution of the motor.\n
 863:D:/DAVE IDE/4.5.0.202105191637/eclipse/workspace/bldcmotor/Libraries/XMCLib/inc\xmc_posif.h ****  * Retrieves direction from \a QDC register's \a DVAL bit field in quadrature mode.
 864:D:/DAVE IDE/4.5.0.202105191637/eclipse/workspace/bldcmotor/Libraries/XMCLib/inc\xmc_posif.h ****  * Applications can at any point in time retrieve the direction of rotation by invoking this API.
 865:D:/DAVE IDE/4.5.0.202105191637/eclipse/workspace/bldcmotor/Libraries/XMCLib/inc\xmc_posif.h ****  *
 866:D:/DAVE IDE/4.5.0.202105191637/eclipse/workspace/bldcmotor/Libraries/XMCLib/inc\xmc_posif.h ****  * \par<b>Note</b><br>
 867:D:/DAVE IDE/4.5.0.202105191637/eclipse/workspace/bldcmotor/Libraries/XMCLib/inc\xmc_posif.h ****  * This is applicable only to the quadrature decoder mode of operation.
 868:D:/DAVE IDE/4.5.0.202105191637/eclipse/workspace/bldcmotor/Libraries/XMCLib/inc\xmc_posif.h ****  *
 869:D:/DAVE IDE/4.5.0.202105191637/eclipse/workspace/bldcmotor/Libraries/XMCLib/inc\xmc_posif.h ****  */
 870:D:/DAVE IDE/4.5.0.202105191637/eclipse/workspace/bldcmotor/Libraries/XMCLib/inc\xmc_posif.h **** __STATIC_INLINE XMC_POSIF_QD_DIR_t XMC_POSIF_QD_GetDirection(XMC_POSIF_t *const peripheral)
 871:D:/DAVE IDE/4.5.0.202105191637/eclipse/workspace/bldcmotor/Libraries/XMCLib/inc\xmc_posif.h **** {
 872:D:/DAVE IDE/4.5.0.202105191637/eclipse/workspace/bldcmotor/Libraries/XMCLib/inc\xmc_posif.h ****   return ((XMC_POSIF_QD_DIR_t)((peripheral->QDC & POSIF_QDC_DVAL_Msk) >> POSIF_QDC_DVAL_Pos));
 873:D:/DAVE IDE/4.5.0.202105191637/eclipse/workspace/bldcmotor/Libraries/XMCLib/inc\xmc_posif.h **** }
 874:D:/DAVE IDE/4.5.0.202105191637/eclipse/workspace/bldcmotor/Libraries/XMCLib/inc\xmc_posif.h **** 
 875:D:/DAVE IDE/4.5.0.202105191637/eclipse/workspace/bldcmotor/Libraries/XMCLib/inc\xmc_posif.h **** /**
 876:D:/DAVE IDE/4.5.0.202105191637/eclipse/workspace/bldcmotor/Libraries/XMCLib/inc\xmc_posif.h ****  * @param peripheral Pointer to an instance of POSIF module
 877:D:/DAVE IDE/4.5.0.202105191637/eclipse/workspace/bldcmotor/Libraries/XMCLib/inc\xmc_posif.h ****  * @retval uint8_t Returns current state of quadrature decoder[Phase B,Phase A]
 878:D:/DAVE IDE/4.5.0.202105191637/eclipse/workspace/bldcmotor/Libraries/XMCLib/inc\xmc_posif.h ****  *
 879:D:/DAVE IDE/4.5.0.202105191637/eclipse/workspace/bldcmotor/Libraries/XMCLib/inc\xmc_posif.h ****  * \par<b>Description</b><br>
 880:D:/DAVE IDE/4.5.0.202105191637/eclipse/workspace/bldcmotor/Libraries/XMCLib/inc\xmc_posif.h ****  * Returns the current state of phase signals in quadrature decoder mode of \a peripheral. \n
 881:D:/DAVE IDE/4.5.0.202105191637/eclipse/workspace/bldcmotor/Libraries/XMCLib/inc\xmc_posif.h ****  * Retrieves current state of the quadrature decoder from \a PDBG register's \a QCSV bit fields.
 882:D:/DAVE IDE/4.5.0.202105191637/eclipse/workspace/bldcmotor/Libraries/XMCLib/inc\xmc_posif.h ****  * Applications can at any point in time retrieve the current state of Phase A and Phase B signals
 883:D:/DAVE IDE/4.5.0.202105191637/eclipse/workspace/bldcmotor/Libraries/XMCLib/inc\xmc_posif.h ****  * by invoking this API.
 884:D:/DAVE IDE/4.5.0.202105191637/eclipse/workspace/bldcmotor/Libraries/XMCLib/inc\xmc_posif.h ****  *
 885:D:/DAVE IDE/4.5.0.202105191637/eclipse/workspace/bldcmotor/Libraries/XMCLib/inc\xmc_posif.h ****  * \par<b>Note</b><br>
 886:D:/DAVE IDE/4.5.0.202105191637/eclipse/workspace/bldcmotor/Libraries/XMCLib/inc\xmc_posif.h ****  * This is applicable only to the quadrature decoder mode of operation.
 887:D:/DAVE IDE/4.5.0.202105191637/eclipse/workspace/bldcmotor/Libraries/XMCLib/inc\xmc_posif.h ****  *
 888:D:/DAVE IDE/4.5.0.202105191637/eclipse/workspace/bldcmotor/Libraries/XMCLib/inc\xmc_posif.h ****  * \par<b>Related APIs:</b><BR>
 889:D:/DAVE IDE/4.5.0.202105191637/eclipse/workspace/bldcmotor/Libraries/XMCLib/inc\xmc_posif.h ****  *  XMC_POSIF_QD_GetPreviousState() \n\n\n
 890:D:/DAVE IDE/4.5.0.202105191637/eclipse/workspace/bldcmotor/Libraries/XMCLib/inc\xmc_posif.h ****  */
 891:D:/DAVE IDE/4.5.0.202105191637/eclipse/workspace/bldcmotor/Libraries/XMCLib/inc\xmc_posif.h **** __STATIC_INLINE uint8_t XMC_POSIF_QD_GetCurrentState(XMC_POSIF_t *const peripheral)
 892:D:/DAVE IDE/4.5.0.202105191637/eclipse/workspace/bldcmotor/Libraries/XMCLib/inc\xmc_posif.h **** {
 893:D:/DAVE IDE/4.5.0.202105191637/eclipse/workspace/bldcmotor/Libraries/XMCLib/inc\xmc_posif.h ****   return ((uint8_t)((peripheral->PDBG & POSIF_PDBG_QCSV_Msk) >> POSIF_PDBG_QCSV_Pos));
 894:D:/DAVE IDE/4.5.0.202105191637/eclipse/workspace/bldcmotor/Libraries/XMCLib/inc\xmc_posif.h **** }
 895:D:/DAVE IDE/4.5.0.202105191637/eclipse/workspace/bldcmotor/Libraries/XMCLib/inc\xmc_posif.h **** 
 896:D:/DAVE IDE/4.5.0.202105191637/eclipse/workspace/bldcmotor/Libraries/XMCLib/inc\xmc_posif.h **** /**
 897:D:/DAVE IDE/4.5.0.202105191637/eclipse/workspace/bldcmotor/Libraries/XMCLib/inc\xmc_posif.h ****  * @param peripheral Pointer to an instance of POSIF module
 898:D:/DAVE IDE/4.5.0.202105191637/eclipse/workspace/bldcmotor/Libraries/XMCLib/inc\xmc_posif.h ****  * @retval uint8_t Returns previous state of quadrature decoder[Phase B,Phase A]
 899:D:/DAVE IDE/4.5.0.202105191637/eclipse/workspace/bldcmotor/Libraries/XMCLib/inc\xmc_posif.h ****  *
 900:D:/DAVE IDE/4.5.0.202105191637/eclipse/workspace/bldcmotor/Libraries/XMCLib/inc\xmc_posif.h ****  * \par<b>Description</b><br>
 901:D:/DAVE IDE/4.5.0.202105191637/eclipse/workspace/bldcmotor/Libraries/XMCLib/inc\xmc_posif.h ****  * Returns the previous state of phase signals in quadrature decoder mode of \a peripheral. \n
 902:D:/DAVE IDE/4.5.0.202105191637/eclipse/workspace/bldcmotor/Libraries/XMCLib/inc\xmc_posif.h ****  * Retrieves previous state of the quadrature decoder from \a PDBG register's \a QPSV bit fields.
 903:D:/DAVE IDE/4.5.0.202105191637/eclipse/workspace/bldcmotor/Libraries/XMCLib/inc\xmc_posif.h ****  * Applications can at any point in time retrieve the previous state of Phase A and Phase B signals
 904:D:/DAVE IDE/4.5.0.202105191637/eclipse/workspace/bldcmotor/Libraries/XMCLib/inc\xmc_posif.h ****  * by invoking this API.
 905:D:/DAVE IDE/4.5.0.202105191637/eclipse/workspace/bldcmotor/Libraries/XMCLib/inc\xmc_posif.h ****  *
 906:D:/DAVE IDE/4.5.0.202105191637/eclipse/workspace/bldcmotor/Libraries/XMCLib/inc\xmc_posif.h ****  * \par<b>Note</b><br>
 907:D:/DAVE IDE/4.5.0.202105191637/eclipse/workspace/bldcmotor/Libraries/XMCLib/inc\xmc_posif.h ****  * This is applicable only to the quadrature decoder mode of operation.
 908:D:/DAVE IDE/4.5.0.202105191637/eclipse/workspace/bldcmotor/Libraries/XMCLib/inc\xmc_posif.h ****  *
 909:D:/DAVE IDE/4.5.0.202105191637/eclipse/workspace/bldcmotor/Libraries/XMCLib/inc\xmc_posif.h ****  * \par<b>Related APIs:</b><BR>
 910:D:/DAVE IDE/4.5.0.202105191637/eclipse/workspace/bldcmotor/Libraries/XMCLib/inc\xmc_posif.h ****  * XMC_POSIF_QD_GetCurrentState() \n\n\n
 911:D:/DAVE IDE/4.5.0.202105191637/eclipse/workspace/bldcmotor/Libraries/XMCLib/inc\xmc_posif.h ****  */
 912:D:/DAVE IDE/4.5.0.202105191637/eclipse/workspace/bldcmotor/Libraries/XMCLib/inc\xmc_posif.h **** __STATIC_INLINE uint8_t XMC_POSIF_QD_GetPreviousState(XMC_POSIF_t *const peripheral)
 913:D:/DAVE IDE/4.5.0.202105191637/eclipse/workspace/bldcmotor/Libraries/XMCLib/inc\xmc_posif.h **** {
 914:D:/DAVE IDE/4.5.0.202105191637/eclipse/workspace/bldcmotor/Libraries/XMCLib/inc\xmc_posif.h ****   return ((uint8_t)((peripheral->PDBG & POSIF_PDBG_QPSV_Msk) >> POSIF_PDBG_QPSV_Pos));
 915:D:/DAVE IDE/4.5.0.202105191637/eclipse/workspace/bldcmotor/Libraries/XMCLib/inc\xmc_posif.h **** }
 916:D:/DAVE IDE/4.5.0.202105191637/eclipse/workspace/bldcmotor/Libraries/XMCLib/inc\xmc_posif.h **** 
 917:D:/DAVE IDE/4.5.0.202105191637/eclipse/workspace/bldcmotor/Libraries/XMCLib/inc\xmc_posif.h **** /**
 918:D:/DAVE IDE/4.5.0.202105191637/eclipse/workspace/bldcmotor/Libraries/XMCLib/inc\xmc_posif.h ****  * @param peripheral Pointer to an instance of POSIF module
 919:D:/DAVE IDE/4.5.0.202105191637/eclipse/workspace/bldcmotor/Libraries/XMCLib/inc\xmc_posif.h ****  * @retval uint8_t Returns the index value.[1 - New rotation started, 0 - In-between]
 920:D:/DAVE IDE/4.5.0.202105191637/eclipse/workspace/bldcmotor/Libraries/XMCLib/inc\xmc_posif.h ****  *
 921:D:/DAVE IDE/4.5.0.202105191637/eclipse/workspace/bldcmotor/Libraries/XMCLib/inc\xmc_posif.h ****  * \par<b>Description</b><br>
 922:D:/DAVE IDE/4.5.0.202105191637/eclipse/workspace/bldcmotor/Libraries/XMCLib/inc\xmc_posif.h ****  * Returns the current index value in quadrature decoder mode of \a peripheral. \n
 923:D:/DAVE IDE/4.5.0.202105191637/eclipse/workspace/bldcmotor/Libraries/XMCLib/inc\xmc_posif.h ****  * Retrieves current index signal value of the quadrature decoder from \a PDBG register's \a IVAL b
 924:D:/DAVE IDE/4.5.0.202105191637/eclipse/workspace/bldcmotor/Libraries/XMCLib/inc\xmc_posif.h ****  * Applications can at any point in time retrieve the current index signal value of the quadrature 
 925:D:/DAVE IDE/4.5.0.202105191637/eclipse/workspace/bldcmotor/Libraries/XMCLib/inc\xmc_posif.h ****  * invoking this API.
 926:D:/DAVE IDE/4.5.0.202105191637/eclipse/workspace/bldcmotor/Libraries/XMCLib/inc\xmc_posif.h ****  *
 927:D:/DAVE IDE/4.5.0.202105191637/eclipse/workspace/bldcmotor/Libraries/XMCLib/inc\xmc_posif.h ****  * \par<b>Note</b><br>
 928:D:/DAVE IDE/4.5.0.202105191637/eclipse/workspace/bldcmotor/Libraries/XMCLib/inc\xmc_posif.h ****  * This is applicable only to the quadrature decoder mode of operation.
 929:D:/DAVE IDE/4.5.0.202105191637/eclipse/workspace/bldcmotor/Libraries/XMCLib/inc\xmc_posif.h ****  *
 930:D:/DAVE IDE/4.5.0.202105191637/eclipse/workspace/bldcmotor/Libraries/XMCLib/inc\xmc_posif.h ****  */
 931:D:/DAVE IDE/4.5.0.202105191637/eclipse/workspace/bldcmotor/Libraries/XMCLib/inc\xmc_posif.h **** __STATIC_INLINE uint8_t XMC_POSIF_QD_GetCurrentIndexValue(XMC_POSIF_t *const peripheral)
 932:D:/DAVE IDE/4.5.0.202105191637/eclipse/workspace/bldcmotor/Libraries/XMCLib/inc\xmc_posif.h **** {
 933:D:/DAVE IDE/4.5.0.202105191637/eclipse/workspace/bldcmotor/Libraries/XMCLib/inc\xmc_posif.h ****   return ((uint8_t)((peripheral->PDBG & POSIF_PDBG_IVAL_Msk) >> POSIF_PDBG_IVAL_Pos));
 934:D:/DAVE IDE/4.5.0.202105191637/eclipse/workspace/bldcmotor/Libraries/XMCLib/inc\xmc_posif.h **** }
 935:D:/DAVE IDE/4.5.0.202105191637/eclipse/workspace/bldcmotor/Libraries/XMCLib/inc\xmc_posif.h **** 
 936:D:/DAVE IDE/4.5.0.202105191637/eclipse/workspace/bldcmotor/Libraries/XMCLib/inc\xmc_posif.h **** /**
 937:D:/DAVE IDE/4.5.0.202105191637/eclipse/workspace/bldcmotor/Libraries/XMCLib/inc\xmc_posif.h ****  * @param peripheral Pointer to an instance of POSIF module
 938:D:/DAVE IDE/4.5.0.202105191637/eclipse/workspace/bldcmotor/Libraries/XMCLib/inc\xmc_posif.h ****  * @param event Event to be enabled
 939:D:/DAVE IDE/4.5.0.202105191637/eclipse/workspace/bldcmotor/Libraries/XMCLib/inc\xmc_posif.h ****  * @retval None
 940:D:/DAVE IDE/4.5.0.202105191637/eclipse/workspace/bldcmotor/Libraries/XMCLib/inc\xmc_posif.h ****  *
 941:D:/DAVE IDE/4.5.0.202105191637/eclipse/workspace/bldcmotor/Libraries/XMCLib/inc\xmc_posif.h ****  * \par<b>Description</b><br>
 942:D:/DAVE IDE/4.5.0.202105191637/eclipse/workspace/bldcmotor/Libraries/XMCLib/inc\xmc_posif.h ****  * Enables \a event generation of \a peripheral. \n
 943:D:/DAVE IDE/4.5.0.202105191637/eclipse/workspace/bldcmotor/Libraries/XMCLib/inc\xmc_posif.h ****  * Enables an IRQ generation capable \a event by configuring 1 to \a PFLGE register's \a event bit 
 944:D:/DAVE IDE/4.5.0.202105191637/eclipse/workspace/bldcmotor/Libraries/XMCLib/inc\xmc_posif.h ****  *
 945:D:/DAVE IDE/4.5.0.202105191637/eclipse/workspace/bldcmotor/Libraries/XMCLib/inc\xmc_posif.h ****  * \par<b>Related APIs:</b><BR>
 946:D:/DAVE IDE/4.5.0.202105191637/eclipse/workspace/bldcmotor/Libraries/XMCLib/inc\xmc_posif.h ****  * XMC_POSIF_DisableEvent() \n\n\n
 947:D:/DAVE IDE/4.5.0.202105191637/eclipse/workspace/bldcmotor/Libraries/XMCLib/inc\xmc_posif.h ****  */
 948:D:/DAVE IDE/4.5.0.202105191637/eclipse/workspace/bldcmotor/Libraries/XMCLib/inc\xmc_posif.h **** __STATIC_INLINE void XMC_POSIF_EnableEvent(XMC_POSIF_t *const peripheral, const XMC_POSIF_IRQ_EVENT
 949:D:/DAVE IDE/4.5.0.202105191637/eclipse/workspace/bldcmotor/Libraries/XMCLib/inc\xmc_posif.h **** {
 206              	 .loc 2 949 0
 207              	 .cfi_startproc
 208 0000 80B5     	 push {r7,lr}
 209              	.LCFI15:
 210              	 .cfi_def_cfa_offset 8
 211              	 .cfi_offset 7,-8
 212              	 .cfi_offset 14,-4
 213 0002 82B0     	 sub sp,sp,#8
 214              	.LCFI16:
 215              	 .cfi_def_cfa_offset 16
 216 0004 00AF     	 add r7,sp,#0
 217              	.LCFI17:
 218              	 .cfi_def_cfa_register 7
 219 0006 7860     	 str r0,[r7,#4]
 220 0008 0A1C     	 mov r2,r1
 221 000a FB1C     	 add r3,r7,#3
 222 000c 1A70     	 strb r2,[r3]
 950:D:/DAVE IDE/4.5.0.202105191637/eclipse/workspace/bldcmotor/Libraries/XMCLib/inc\xmc_posif.h ****   peripheral->PFLGE |= (uint32_t)1 << (uint8_t)event;
 223              	 .loc 2 950 0
 224 000e 7B68     	 ldr r3,[r7,#4]
 225 0010 5A6F     	 ldr r2,[r3,#116]
 226 0012 FB1C     	 add r3,r7,#3
 227 0014 1B78     	 ldrb r3,[r3]
 228 0016 0121     	 mov r1,#1
 229 0018 9940     	 lsl r1,r1,r3
 230 001a 0B1C     	 mov r3,r1
 231 001c 1A43     	 orr r2,r3
 232 001e 7B68     	 ldr r3,[r7,#4]
 233 0020 5A67     	 str r2,[r3,#116]
 951:D:/DAVE IDE/4.5.0.202105191637/eclipse/workspace/bldcmotor/Libraries/XMCLib/inc\xmc_posif.h **** }
 234              	 .loc 2 951 0
 235 0022 BD46     	 mov sp,r7
 236 0024 02B0     	 add sp,sp,#8
 237              	 
 238 0026 80BD     	 pop {r7,pc}
 239              	 .cfi_endproc
 240              	.LFE92:
 242              	 .section .text.XMC_POSIF_DisableEvent,"ax",%progbits
 243              	 .align 2
 244              	 .code 16
 245              	 .thumb_func
 247              	XMC_POSIF_DisableEvent:
 248              	.LFB93:
 952:D:/DAVE IDE/4.5.0.202105191637/eclipse/workspace/bldcmotor/Libraries/XMCLib/inc\xmc_posif.h **** 
 953:D:/DAVE IDE/4.5.0.202105191637/eclipse/workspace/bldcmotor/Libraries/XMCLib/inc\xmc_posif.h **** /**
 954:D:/DAVE IDE/4.5.0.202105191637/eclipse/workspace/bldcmotor/Libraries/XMCLib/inc\xmc_posif.h ****  * @brief Disables an IRQ generation capable event
 955:D:/DAVE IDE/4.5.0.202105191637/eclipse/workspace/bldcmotor/Libraries/XMCLib/inc\xmc_posif.h ****  * @param peripheral Pointer to an instance of POSIF module
 956:D:/DAVE IDE/4.5.0.202105191637/eclipse/workspace/bldcmotor/Libraries/XMCLib/inc\xmc_posif.h ****  * @param event Event to be disabled
 957:D:/DAVE IDE/4.5.0.202105191637/eclipse/workspace/bldcmotor/Libraries/XMCLib/inc\xmc_posif.h ****  * @retval None
 958:D:/DAVE IDE/4.5.0.202105191637/eclipse/workspace/bldcmotor/Libraries/XMCLib/inc\xmc_posif.h ****  *
 959:D:/DAVE IDE/4.5.0.202105191637/eclipse/workspace/bldcmotor/Libraries/XMCLib/inc\xmc_posif.h ****  * \par<b>Description</b><br>
 960:D:/DAVE IDE/4.5.0.202105191637/eclipse/workspace/bldcmotor/Libraries/XMCLib/inc\xmc_posif.h ****  * Disables \a event generation of \a peripheral.\n
 961:D:/DAVE IDE/4.5.0.202105191637/eclipse/workspace/bldcmotor/Libraries/XMCLib/inc\xmc_posif.h ****  * Disables an IRQ generation capable \a event by configuring 0 to \a PFLGE register's \a event bit
 962:D:/DAVE IDE/4.5.0.202105191637/eclipse/workspace/bldcmotor/Libraries/XMCLib/inc\xmc_posif.h ****  *
 963:D:/DAVE IDE/4.5.0.202105191637/eclipse/workspace/bldcmotor/Libraries/XMCLib/inc\xmc_posif.h ****  *  \par<b>Related APIs:</b><BR>
 964:D:/DAVE IDE/4.5.0.202105191637/eclipse/workspace/bldcmotor/Libraries/XMCLib/inc\xmc_posif.h ****  *  XMC_POSIF_EnableEvent() \n\n\n
 965:D:/DAVE IDE/4.5.0.202105191637/eclipse/workspace/bldcmotor/Libraries/XMCLib/inc\xmc_posif.h ****  */
 966:D:/DAVE IDE/4.5.0.202105191637/eclipse/workspace/bldcmotor/Libraries/XMCLib/inc\xmc_posif.h **** __STATIC_INLINE void XMC_POSIF_DisableEvent(XMC_POSIF_t *const peripheral, const XMC_POSIF_IRQ_EVEN
 967:D:/DAVE IDE/4.5.0.202105191637/eclipse/workspace/bldcmotor/Libraries/XMCLib/inc\xmc_posif.h **** {
 249              	 .loc 2 967 0
 250              	 .cfi_startproc
 251 0000 80B5     	 push {r7,lr}
 252              	.LCFI18:
 253              	 .cfi_def_cfa_offset 8
 254              	 .cfi_offset 7,-8
 255              	 .cfi_offset 14,-4
 256 0002 82B0     	 sub sp,sp,#8
 257              	.LCFI19:
 258              	 .cfi_def_cfa_offset 16
 259 0004 00AF     	 add r7,sp,#0
 260              	.LCFI20:
 261              	 .cfi_def_cfa_register 7
 262 0006 7860     	 str r0,[r7,#4]
 263 0008 0A1C     	 mov r2,r1
 264 000a FB1C     	 add r3,r7,#3
 265 000c 1A70     	 strb r2,[r3]
 968:D:/DAVE IDE/4.5.0.202105191637/eclipse/workspace/bldcmotor/Libraries/XMCLib/inc\xmc_posif.h ****   peripheral->PFLGE &= ~((uint32_t)1 << (uint8_t)event);
 266              	 .loc 2 968 0
 267 000e 7B68     	 ldr r3,[r7,#4]
 268 0010 5B6F     	 ldr r3,[r3,#116]
 269 0012 FA1C     	 add r2,r7,#3
 270 0014 1278     	 ldrb r2,[r2]
 271 0016 0121     	 mov r1,#1
 272 0018 9140     	 lsl r1,r1,r2
 273 001a 0A1C     	 mov r2,r1
 274 001c D243     	 mvn r2,r2
 275 001e 1A40     	 and r2,r3
 276 0020 7B68     	 ldr r3,[r7,#4]
 277 0022 5A67     	 str r2,[r3,#116]
 969:D:/DAVE IDE/4.5.0.202105191637/eclipse/workspace/bldcmotor/Libraries/XMCLib/inc\xmc_posif.h **** }
 278              	 .loc 2 969 0
 279 0024 BD46     	 mov sp,r7
 280 0026 02B0     	 add sp,sp,#8
 281              	 
 282 0028 80BD     	 pop {r7,pc}
 283              	 .cfi_endproc
 284              	.LFE93:
 286 002a C046     	 .section .text.XMC_CCU4_EnableClock,"ax",%progbits
 287              	 .align 2
 288              	 .code 16
 289              	 .thumb_func
 291              	XMC_CCU4_EnableClock:
 292              	.LFB103:
 293              	 .file 3 "D:/DAVE IDE/4.5.0.202105191637/eclipse/workspace/bldcmotor/Libraries/XMCLib/inc/xmc_ccu4.h"
   1:D:/DAVE IDE/4.5.0.202105191637/eclipse/workspace/bldcmotor/Libraries/XMCLib/inc\xmc_ccu4.h **** /**
   2:D:/DAVE IDE/4.5.0.202105191637/eclipse/workspace/bldcmotor/Libraries/XMCLib/inc\xmc_ccu4.h ****  * @file xmc_ccu4.h
   3:D:/DAVE IDE/4.5.0.202105191637/eclipse/workspace/bldcmotor/Libraries/XMCLib/inc\xmc_ccu4.h ****  * @date 2019-03-30
   4:D:/DAVE IDE/4.5.0.202105191637/eclipse/workspace/bldcmotor/Libraries/XMCLib/inc\xmc_ccu4.h ****  *
   5:D:/DAVE IDE/4.5.0.202105191637/eclipse/workspace/bldcmotor/Libraries/XMCLib/inc\xmc_ccu4.h ****  * @cond
   6:D:/DAVE IDE/4.5.0.202105191637/eclipse/workspace/bldcmotor/Libraries/XMCLib/inc\xmc_ccu4.h ****  *****************************************************************************
   7:D:/DAVE IDE/4.5.0.202105191637/eclipse/workspace/bldcmotor/Libraries/XMCLib/inc\xmc_ccu4.h ****  * XMClib v2.2.0 - XMC Peripheral Driver Library
   8:D:/DAVE IDE/4.5.0.202105191637/eclipse/workspace/bldcmotor/Libraries/XMCLib/inc\xmc_ccu4.h ****  *
   9:D:/DAVE IDE/4.5.0.202105191637/eclipse/workspace/bldcmotor/Libraries/XMCLib/inc\xmc_ccu4.h ****  * Copyright (c) 2015-2020, Infineon Technologies AG
  10:D:/DAVE IDE/4.5.0.202105191637/eclipse/workspace/bldcmotor/Libraries/XMCLib/inc\xmc_ccu4.h ****  * All rights reserved.
  11:D:/DAVE IDE/4.5.0.202105191637/eclipse/workspace/bldcmotor/Libraries/XMCLib/inc\xmc_ccu4.h ****  *
  12:D:/DAVE IDE/4.5.0.202105191637/eclipse/workspace/bldcmotor/Libraries/XMCLib/inc\xmc_ccu4.h ****  * Boost Software License - Version 1.0 - August 17th, 2003
  13:D:/DAVE IDE/4.5.0.202105191637/eclipse/workspace/bldcmotor/Libraries/XMCLib/inc\xmc_ccu4.h ****  *
  14:D:/DAVE IDE/4.5.0.202105191637/eclipse/workspace/bldcmotor/Libraries/XMCLib/inc\xmc_ccu4.h ****  * Permission is hereby granted, free of charge, to any person or organization
  15:D:/DAVE IDE/4.5.0.202105191637/eclipse/workspace/bldcmotor/Libraries/XMCLib/inc\xmc_ccu4.h ****  * obtaining a copy of the software and accompanying documentation covered by
  16:D:/DAVE IDE/4.5.0.202105191637/eclipse/workspace/bldcmotor/Libraries/XMCLib/inc\xmc_ccu4.h ****  * this license (the "Software") to use, reproduce, display, distribute,
  17:D:/DAVE IDE/4.5.0.202105191637/eclipse/workspace/bldcmotor/Libraries/XMCLib/inc\xmc_ccu4.h ****  * execute, and transmit the Software, and to prepare derivative works of the
  18:D:/DAVE IDE/4.5.0.202105191637/eclipse/workspace/bldcmotor/Libraries/XMCLib/inc\xmc_ccu4.h ****  * Software, and to permit third-parties to whom the Software is furnished to
  19:D:/DAVE IDE/4.5.0.202105191637/eclipse/workspace/bldcmotor/Libraries/XMCLib/inc\xmc_ccu4.h ****  * do so, all subject to the following:
  20:D:/DAVE IDE/4.5.0.202105191637/eclipse/workspace/bldcmotor/Libraries/XMCLib/inc\xmc_ccu4.h ****  *
  21:D:/DAVE IDE/4.5.0.202105191637/eclipse/workspace/bldcmotor/Libraries/XMCLib/inc\xmc_ccu4.h ****  * The copyright notices in the Software and this entire statement, including
  22:D:/DAVE IDE/4.5.0.202105191637/eclipse/workspace/bldcmotor/Libraries/XMCLib/inc\xmc_ccu4.h ****  * the above license grant, this restriction and the following disclaimer,
  23:D:/DAVE IDE/4.5.0.202105191637/eclipse/workspace/bldcmotor/Libraries/XMCLib/inc\xmc_ccu4.h ****  * must be included in all copies of the Software, in whole or in part, and
  24:D:/DAVE IDE/4.5.0.202105191637/eclipse/workspace/bldcmotor/Libraries/XMCLib/inc\xmc_ccu4.h ****  * all derivative works of the Software, unless such copies or derivative
  25:D:/DAVE IDE/4.5.0.202105191637/eclipse/workspace/bldcmotor/Libraries/XMCLib/inc\xmc_ccu4.h ****  * works are solely in the form of machine-executable object code generated by
  26:D:/DAVE IDE/4.5.0.202105191637/eclipse/workspace/bldcmotor/Libraries/XMCLib/inc\xmc_ccu4.h ****  * a source language processor.
  27:D:/DAVE IDE/4.5.0.202105191637/eclipse/workspace/bldcmotor/Libraries/XMCLib/inc\xmc_ccu4.h ****  *
  28:D:/DAVE IDE/4.5.0.202105191637/eclipse/workspace/bldcmotor/Libraries/XMCLib/inc\xmc_ccu4.h ****  * THE SOFTWARE IS PROVIDED "AS IS", WITHOUT WARRANTY OF ANY KIND, EXPRESS OR
  29:D:/DAVE IDE/4.5.0.202105191637/eclipse/workspace/bldcmotor/Libraries/XMCLib/inc\xmc_ccu4.h ****  * IMPLIED, INCLUDING BUT NOT LIMITED TO THE WARRANTIES OF MERCHANTABILITY,
  30:D:/DAVE IDE/4.5.0.202105191637/eclipse/workspace/bldcmotor/Libraries/XMCLib/inc\xmc_ccu4.h ****  * FITNESS FOR A PARTICULAR PURPOSE, TITLE AND NON-INFRINGEMENT. IN NO EVENT
  31:D:/DAVE IDE/4.5.0.202105191637/eclipse/workspace/bldcmotor/Libraries/XMCLib/inc\xmc_ccu4.h ****  * SHALL THE COPYRIGHT HOLDERS OR ANYONE DISTRIBUTING THE SOFTWARE BE LIABLE
  32:D:/DAVE IDE/4.5.0.202105191637/eclipse/workspace/bldcmotor/Libraries/XMCLib/inc\xmc_ccu4.h ****  * FOR ANY DAMAGES OR OTHER LIABILITY, WHETHER IN CONTRACT, TORT OR OTHERWISE,
  33:D:/DAVE IDE/4.5.0.202105191637/eclipse/workspace/bldcmotor/Libraries/XMCLib/inc\xmc_ccu4.h ****  * ARISING FROM, OUT OF OR IN CONNECTION WITH THE SOFTWARE OR THE USE OR OTHER
  34:D:/DAVE IDE/4.5.0.202105191637/eclipse/workspace/bldcmotor/Libraries/XMCLib/inc\xmc_ccu4.h ****  * DEALINGS IN THE SOFTWARE.
  35:D:/DAVE IDE/4.5.0.202105191637/eclipse/workspace/bldcmotor/Libraries/XMCLib/inc\xmc_ccu4.h ****  *
  36:D:/DAVE IDE/4.5.0.202105191637/eclipse/workspace/bldcmotor/Libraries/XMCLib/inc\xmc_ccu4.h ****  * To improve the quality of the software, users are encouraged to share
  37:D:/DAVE IDE/4.5.0.202105191637/eclipse/workspace/bldcmotor/Libraries/XMCLib/inc\xmc_ccu4.h ****  * modifications, enhancements or bug fixes with Infineon Technologies AG
  38:D:/DAVE IDE/4.5.0.202105191637/eclipse/workspace/bldcmotor/Libraries/XMCLib/inc\xmc_ccu4.h ****  * at XMCSupport@infineon.com.
  39:D:/DAVE IDE/4.5.0.202105191637/eclipse/workspace/bldcmotor/Libraries/XMCLib/inc\xmc_ccu4.h ****  *****************************************************************************
  40:D:/DAVE IDE/4.5.0.202105191637/eclipse/workspace/bldcmotor/Libraries/XMCLib/inc\xmc_ccu4.h ****  *
  41:D:/DAVE IDE/4.5.0.202105191637/eclipse/workspace/bldcmotor/Libraries/XMCLib/inc\xmc_ccu4.h ****  * Change History
  42:D:/DAVE IDE/4.5.0.202105191637/eclipse/workspace/bldcmotor/Libraries/XMCLib/inc\xmc_ccu4.h ****  * --------------
  43:D:/DAVE IDE/4.5.0.202105191637/eclipse/workspace/bldcmotor/Libraries/XMCLib/inc\xmc_ccu4.h ****  *
  44:D:/DAVE IDE/4.5.0.202105191637/eclipse/workspace/bldcmotor/Libraries/XMCLib/inc\xmc_ccu4.h ****  * 2015-02-20:
  45:D:/DAVE IDE/4.5.0.202105191637/eclipse/workspace/bldcmotor/Libraries/XMCLib/inc\xmc_ccu4.h ****  *     - Initial <br>
  46:D:/DAVE IDE/4.5.0.202105191637/eclipse/workspace/bldcmotor/Libraries/XMCLib/inc\xmc_ccu4.h ****  *     - Documentation updates <br>
  47:D:/DAVE IDE/4.5.0.202105191637/eclipse/workspace/bldcmotor/Libraries/XMCLib/inc\xmc_ccu4.h ****  *
  48:D:/DAVE IDE/4.5.0.202105191637/eclipse/workspace/bldcmotor/Libraries/XMCLib/inc\xmc_ccu4.h ****  * 2015-06-20:
  49:D:/DAVE IDE/4.5.0.202105191637/eclipse/workspace/bldcmotor/Libraries/XMCLib/inc\xmc_ccu4.h ****  *     - Removed version macros and declaration of GetDriverVersion API <br>
  50:D:/DAVE IDE/4.5.0.202105191637/eclipse/workspace/bldcmotor/Libraries/XMCLib/inc\xmc_ccu4.h ****  *
  51:D:/DAVE IDE/4.5.0.202105191637/eclipse/workspace/bldcmotor/Libraries/XMCLib/inc\xmc_ccu4.h ****  * 2015-07-22:
  52:D:/DAVE IDE/4.5.0.202105191637/eclipse/workspace/bldcmotor/Libraries/XMCLib/inc\xmc_ccu4.h ****  *     - XMC_CCU4_SLICE_ConfigureStatusBitOverrideEvent() is updated to support XMC14 device. <br>
  53:D:/DAVE IDE/4.5.0.202105191637/eclipse/workspace/bldcmotor/Libraries/XMCLib/inc\xmc_ccu4.h ****  *
  54:D:/DAVE IDE/4.5.0.202105191637/eclipse/workspace/bldcmotor/Libraries/XMCLib/inc\xmc_ccu4.h ****  * 2015-08-17:
  55:D:/DAVE IDE/4.5.0.202105191637/eclipse/workspace/bldcmotor/Libraries/XMCLib/inc\xmc_ccu4.h ****  *     - XMC_CCU4_SLICE_PRESCALER_t enum is added to set the prescaler divider. <br>
  56:D:/DAVE IDE/4.5.0.202105191637/eclipse/workspace/bldcmotor/Libraries/XMCLib/inc\xmc_ccu4.h ****  *     - XMC_CCU4_SLICE_SHADOW_TRANSFER_MODE_t enum item names are updated according to the guideli
  57:D:/DAVE IDE/4.5.0.202105191637/eclipse/workspace/bldcmotor/Libraries/XMCLib/inc\xmc_ccu4.h ****  *     - XMC_CCU4_EnableShadowTransfer() API is made as inline, to improve the speed. <br>
  58:D:/DAVE IDE/4.5.0.202105191637/eclipse/workspace/bldcmotor/Libraries/XMCLib/inc\xmc_ccu4.h ****  *
  59:D:/DAVE IDE/4.5.0.202105191637/eclipse/workspace/bldcmotor/Libraries/XMCLib/inc\xmc_ccu4.h ****  * 2015-09-29:
  60:D:/DAVE IDE/4.5.0.202105191637/eclipse/workspace/bldcmotor/Libraries/XMCLib/inc\xmc_ccu4.h ****  *     - In XMC_CCU4_SLICE_EVENT_LEVEL_SENSITIVITY_t, two more enum items are added to support exte
  61:D:/DAVE IDE/4.5.0.202105191637/eclipse/workspace/bldcmotor/Libraries/XMCLib/inc\xmc_ccu4.h ****  *       settings.
  62:D:/DAVE IDE/4.5.0.202105191637/eclipse/workspace/bldcmotor/Libraries/XMCLib/inc\xmc_ccu4.h ****  *
  63:D:/DAVE IDE/4.5.0.202105191637/eclipse/workspace/bldcmotor/Libraries/XMCLib/inc\xmc_ccu4.h ****  * 2015-10-07:
  64:D:/DAVE IDE/4.5.0.202105191637/eclipse/workspace/bldcmotor/Libraries/XMCLib/inc\xmc_ccu4.h ****  *     - XMC_CCU4_SLICE_GetEvent() is made as inline.
  65:D:/DAVE IDE/4.5.0.202105191637/eclipse/workspace/bldcmotor/Libraries/XMCLib/inc\xmc_ccu4.h ****  *     - XMC_CCU4_SLICE_MULTI_IRQ_ID_t is added to support the XMC_CCU4_SLICE_EnableMultipleEvents(
  66:D:/DAVE IDE/4.5.0.202105191637/eclipse/workspace/bldcmotor/Libraries/XMCLib/inc\xmc_ccu4.h ****  *       XMC_CCU4_SLICE_DisableMultipleEvents() APIs.
  67:D:/DAVE IDE/4.5.0.202105191637/eclipse/workspace/bldcmotor/Libraries/XMCLib/inc\xmc_ccu4.h ****  *     - DOC updates for the newly added APIs.
  68:D:/DAVE IDE/4.5.0.202105191637/eclipse/workspace/bldcmotor/Libraries/XMCLib/inc\xmc_ccu4.h ****  *
  69:D:/DAVE IDE/4.5.0.202105191637/eclipse/workspace/bldcmotor/Libraries/XMCLib/inc\xmc_ccu4.h ****  * 2016-03-09:
  70:D:/DAVE IDE/4.5.0.202105191637/eclipse/workspace/bldcmotor/Libraries/XMCLib/inc\xmc_ccu4.h ****  *     - Optimization of write only registers
  71:D:/DAVE IDE/4.5.0.202105191637/eclipse/workspace/bldcmotor/Libraries/XMCLib/inc\xmc_ccu4.h ****  *
  72:D:/DAVE IDE/4.5.0.202105191637/eclipse/workspace/bldcmotor/Libraries/XMCLib/inc\xmc_ccu4.h ****  * 2016-05-20:
  73:D:/DAVE IDE/4.5.0.202105191637/eclipse/workspace/bldcmotor/Libraries/XMCLib/inc\xmc_ccu4.h ****  *     - Added XMC_CCU4_SLICE_StopClearTimer()
  74:D:/DAVE IDE/4.5.0.202105191637/eclipse/workspace/bldcmotor/Libraries/XMCLib/inc\xmc_ccu4.h ****  *     - Changed implementation of XMC_CCU4_SLICE_StopTimer() and XMC_CCU4_SLICE_ClearTimer() to av
  75:D:/DAVE IDE/4.5.0.202105191637/eclipse/workspace/bldcmotor/Libraries/XMCLib/inc\xmc_ccu4.h ****  *
  76:D:/DAVE IDE/4.5.0.202105191637/eclipse/workspace/bldcmotor/Libraries/XMCLib/inc\xmc_ccu4.h ****  * 2017-04-27:
  77:D:/DAVE IDE/4.5.0.202105191637/eclipse/workspace/bldcmotor/Libraries/XMCLib/inc\xmc_ccu4.h ****  *     - XMC_CCU4_SLICE_SetPrescaler() changed div_val parameter to type XMC_CCU4_SLICE_PRESCALER_t
  78:D:/DAVE IDE/4.5.0.202105191637/eclipse/workspace/bldcmotor/Libraries/XMCLib/inc\xmc_ccu4.h ****  *
  79:D:/DAVE IDE/4.5.0.202105191637/eclipse/workspace/bldcmotor/Libraries/XMCLib/inc\xmc_ccu4.h ****  * 2017-09-15:
  80:D:/DAVE IDE/4.5.0.202105191637/eclipse/workspace/bldcmotor/Libraries/XMCLib/inc\xmc_ccu4.h ****  *     - Fix XMC_CCU4_SLICE_SetShadowTransferMode()
  81:D:/DAVE IDE/4.5.0.202105191637/eclipse/workspace/bldcmotor/Libraries/XMCLib/inc\xmc_ccu4.h ****  *
  82:D:/DAVE IDE/4.5.0.202105191637/eclipse/workspace/bldcmotor/Libraries/XMCLib/inc\xmc_ccu4.h ****  * 2019-03-30:
  83:D:/DAVE IDE/4.5.0.202105191637/eclipse/workspace/bldcmotor/Libraries/XMCLib/inc\xmc_ccu4.h ****  *     - Changed XMC_CCU4_StartPrescaler(), XMC_CCU4_StopPrescaler(), XMC_CCU4_EnableMultipleClocks
  84:D:/DAVE IDE/4.5.0.202105191637/eclipse/workspace/bldcmotor/Libraries/XMCLib/inc\xmc_ccu4.h ****  *     - Changed XMC_CCU4_SLICE_SetEvent(), XMC_CCU4_SLICE_ClearEvent() to avoid RMW access
  85:D:/DAVE IDE/4.5.0.202105191637/eclipse/workspace/bldcmotor/Libraries/XMCLib/inc\xmc_ccu4.h ****  *     - Added XMC_CCU4_SetSuspendMode(), XMC_CCU4_SLICE_GetPrescaler()
  86:D:/DAVE IDE/4.5.0.202105191637/eclipse/workspace/bldcmotor/Libraries/XMCLib/inc\xmc_ccu4.h ****  *
  87:D:/DAVE IDE/4.5.0.202105191637/eclipse/workspace/bldcmotor/Libraries/XMCLib/inc\xmc_ccu4.h ****  * 2019-07-29:
  88:D:/DAVE IDE/4.5.0.202105191637/eclipse/workspace/bldcmotor/Libraries/XMCLib/inc\xmc_ccu4.h ****  *     - Added XMC_CCU4_GetSliceStatusBit()
  89:D:/DAVE IDE/4.5.0.202105191637/eclipse/workspace/bldcmotor/Libraries/XMCLib/inc\xmc_ccu4.h ****  *
  90:D:/DAVE IDE/4.5.0.202105191637/eclipse/workspace/bldcmotor/Libraries/XMCLib/inc\xmc_ccu4.h ****  * @endcond
  91:D:/DAVE IDE/4.5.0.202105191637/eclipse/workspace/bldcmotor/Libraries/XMCLib/inc\xmc_ccu4.h ****  */
  92:D:/DAVE IDE/4.5.0.202105191637/eclipse/workspace/bldcmotor/Libraries/XMCLib/inc\xmc_ccu4.h **** 
  93:D:/DAVE IDE/4.5.0.202105191637/eclipse/workspace/bldcmotor/Libraries/XMCLib/inc\xmc_ccu4.h **** #ifndef XMC_CCU4_H
  94:D:/DAVE IDE/4.5.0.202105191637/eclipse/workspace/bldcmotor/Libraries/XMCLib/inc\xmc_ccu4.h **** #define XMC_CCU4_H
  95:D:/DAVE IDE/4.5.0.202105191637/eclipse/workspace/bldcmotor/Libraries/XMCLib/inc\xmc_ccu4.h **** 
  96:D:/DAVE IDE/4.5.0.202105191637/eclipse/workspace/bldcmotor/Libraries/XMCLib/inc\xmc_ccu4.h **** /**************************************************************************************************
  97:D:/DAVE IDE/4.5.0.202105191637/eclipse/workspace/bldcmotor/Libraries/XMCLib/inc\xmc_ccu4.h ****  * HEADER FILES
  98:D:/DAVE IDE/4.5.0.202105191637/eclipse/workspace/bldcmotor/Libraries/XMCLib/inc\xmc_ccu4.h ****  **************************************************************************************************
  99:D:/DAVE IDE/4.5.0.202105191637/eclipse/workspace/bldcmotor/Libraries/XMCLib/inc\xmc_ccu4.h **** #include "xmc_common.h"
 100:D:/DAVE IDE/4.5.0.202105191637/eclipse/workspace/bldcmotor/Libraries/XMCLib/inc\xmc_ccu4.h **** #if defined(CCU40)
 101:D:/DAVE IDE/4.5.0.202105191637/eclipse/workspace/bldcmotor/Libraries/XMCLib/inc\xmc_ccu4.h **** 
 102:D:/DAVE IDE/4.5.0.202105191637/eclipse/workspace/bldcmotor/Libraries/XMCLib/inc\xmc_ccu4.h **** #if UC_FAMILY == XMC1
 103:D:/DAVE IDE/4.5.0.202105191637/eclipse/workspace/bldcmotor/Libraries/XMCLib/inc\xmc_ccu4.h **** #include "xmc1_ccu4_map.h"
 104:D:/DAVE IDE/4.5.0.202105191637/eclipse/workspace/bldcmotor/Libraries/XMCLib/inc\xmc_ccu4.h **** #endif
 105:D:/DAVE IDE/4.5.0.202105191637/eclipse/workspace/bldcmotor/Libraries/XMCLib/inc\xmc_ccu4.h **** 
 106:D:/DAVE IDE/4.5.0.202105191637/eclipse/workspace/bldcmotor/Libraries/XMCLib/inc\xmc_ccu4.h **** #if UC_FAMILY == XMC4
 107:D:/DAVE IDE/4.5.0.202105191637/eclipse/workspace/bldcmotor/Libraries/XMCLib/inc\xmc_ccu4.h **** #include "xmc4_ccu4_map.h"
 108:D:/DAVE IDE/4.5.0.202105191637/eclipse/workspace/bldcmotor/Libraries/XMCLib/inc\xmc_ccu4.h **** #endif
 109:D:/DAVE IDE/4.5.0.202105191637/eclipse/workspace/bldcmotor/Libraries/XMCLib/inc\xmc_ccu4.h **** 
 110:D:/DAVE IDE/4.5.0.202105191637/eclipse/workspace/bldcmotor/Libraries/XMCLib/inc\xmc_ccu4.h **** /**
 111:D:/DAVE IDE/4.5.0.202105191637/eclipse/workspace/bldcmotor/Libraries/XMCLib/inc\xmc_ccu4.h ****  * @addtogroup XMClib XMC Peripheral Library
 112:D:/DAVE IDE/4.5.0.202105191637/eclipse/workspace/bldcmotor/Libraries/XMCLib/inc\xmc_ccu4.h ****  * @{
 113:D:/DAVE IDE/4.5.0.202105191637/eclipse/workspace/bldcmotor/Libraries/XMCLib/inc\xmc_ccu4.h ****  */
 114:D:/DAVE IDE/4.5.0.202105191637/eclipse/workspace/bldcmotor/Libraries/XMCLib/inc\xmc_ccu4.h **** 
 115:D:/DAVE IDE/4.5.0.202105191637/eclipse/workspace/bldcmotor/Libraries/XMCLib/inc\xmc_ccu4.h **** /**
 116:D:/DAVE IDE/4.5.0.202105191637/eclipse/workspace/bldcmotor/Libraries/XMCLib/inc\xmc_ccu4.h ****  * @addtogroup CCU4
 117:D:/DAVE IDE/4.5.0.202105191637/eclipse/workspace/bldcmotor/Libraries/XMCLib/inc\xmc_ccu4.h ****  * @brief Capture Compare Unit 4 (CCU4) low level driver for XMC family of microcontrollers<br>
 118:D:/DAVE IDE/4.5.0.202105191637/eclipse/workspace/bldcmotor/Libraries/XMCLib/inc\xmc_ccu4.h ****  *
 119:D:/DAVE IDE/4.5.0.202105191637/eclipse/workspace/bldcmotor/Libraries/XMCLib/inc\xmc_ccu4.h ****  * The CCU4 peripheral is a major component for systems that need general purpose timers for signal
 120:D:/DAVE IDE/4.5.0.202105191637/eclipse/workspace/bldcmotor/Libraries/XMCLib/inc\xmc_ccu4.h ****  * monitoring/conditioning and Pulse Width Modulation (PWM) signal generation. Power electronic con
 121:D:/DAVE IDE/4.5.0.202105191637/eclipse/workspace/bldcmotor/Libraries/XMCLib/inc\xmc_ccu4.h ****  * switched mode power supplies or interruptible power supplies, can easily be implemented with the
 122:D:/DAVE IDE/4.5.0.202105191637/eclipse/workspace/bldcmotor/Libraries/XMCLib/inc\xmc_ccu4.h ****  * CCU4 peripheral.\n
 123:D:/DAVE IDE/4.5.0.202105191637/eclipse/workspace/bldcmotor/Libraries/XMCLib/inc\xmc_ccu4.h ****  * Each CCU4 module is comprised of four identical 16 bit Capture/Compare Timer slices, CC4y (where
 124:D:/DAVE IDE/4.5.0.202105191637/eclipse/workspace/bldcmotor/Libraries/XMCLib/inc\xmc_ccu4.h ****  * timer slice can work in compare mode or in capture mode.
 125:D:/DAVE IDE/4.5.0.202105191637/eclipse/workspace/bldcmotor/Libraries/XMCLib/inc\xmc_ccu4.h ****  *
 126:D:/DAVE IDE/4.5.0.202105191637/eclipse/workspace/bldcmotor/Libraries/XMCLib/inc\xmc_ccu4.h ****  * APIs provided in this file cover the following functional blocks of CCU4:\n
 127:D:/DAVE IDE/4.5.0.202105191637/eclipse/workspace/bldcmotor/Libraries/XMCLib/inc\xmc_ccu4.h ****  * -- Timer configuration, Capture configuration, Function/Event configuration, Interrupt configura
 128:D:/DAVE IDE/4.5.0.202105191637/eclipse/workspace/bldcmotor/Libraries/XMCLib/inc\xmc_ccu4.h ****  * \par Note:
 129:D:/DAVE IDE/4.5.0.202105191637/eclipse/workspace/bldcmotor/Libraries/XMCLib/inc\xmc_ccu4.h ****  * 1. SLICE (APIs prefixed with e.g. XMC_CCU4_SLICE_)
 130:D:/DAVE IDE/4.5.0.202105191637/eclipse/workspace/bldcmotor/Libraries/XMCLib/inc\xmc_ccu4.h ****  * 2. Module (APIs are not having any prefix e.g. XMC_CCU4_)
 131:D:/DAVE IDE/4.5.0.202105191637/eclipse/workspace/bldcmotor/Libraries/XMCLib/inc\xmc_ccu4.h ****  *
 132:D:/DAVE IDE/4.5.0.202105191637/eclipse/workspace/bldcmotor/Libraries/XMCLib/inc\xmc_ccu4.h ****  * \par Timer(Compare mode) configuration:
 133:D:/DAVE IDE/4.5.0.202105191637/eclipse/workspace/bldcmotor/Libraries/XMCLib/inc\xmc_ccu4.h ****  * This section of the LLD provides the configuration structure XMC_CCU4_SLICE_COMPARE_CONFIG_t and
 134:D:/DAVE IDE/4.5.0.202105191637/eclipse/workspace/bldcmotor/Libraries/XMCLib/inc\xmc_ccu4.h ****  * function XMC_CCU4_SLICE_CompareInit().
 135:D:/DAVE IDE/4.5.0.202105191637/eclipse/workspace/bldcmotor/Libraries/XMCLib/inc\xmc_ccu4.h ****  *
 136:D:/DAVE IDE/4.5.0.202105191637/eclipse/workspace/bldcmotor/Libraries/XMCLib/inc\xmc_ccu4.h ****  * It can be used to:
 137:D:/DAVE IDE/4.5.0.202105191637/eclipse/workspace/bldcmotor/Libraries/XMCLib/inc\xmc_ccu4.h ****  * -# Start and Stop the timer. (XMC_CCU4_SLICE_StartTimer(), XMC_CCU4_SLICE_StopTimer())
 138:D:/DAVE IDE/4.5.0.202105191637/eclipse/workspace/bldcmotor/Libraries/XMCLib/inc\xmc_ccu4.h ****  * -# Update the period, compare, Dither, Prescaler  and Passive values. (XMC_CCU4_SLICE_SetTimerPe
 139:D:/DAVE IDE/4.5.0.202105191637/eclipse/workspace/bldcmotor/Libraries/XMCLib/inc\xmc_ccu4.h ****  *    XMC_CCU4_SLICE_SetTimerCompareMatch(), XMC_CCU4_SLICE_SetPrescaler(), XMC_CCU4_SLICE_SetDithe
 140:D:/DAVE IDE/4.5.0.202105191637/eclipse/workspace/bldcmotor/Libraries/XMCLib/inc\xmc_ccu4.h ****  *    XMC_CCU4_SLICE_SetPassiveLevel())
 141:D:/DAVE IDE/4.5.0.202105191637/eclipse/workspace/bldcmotor/Libraries/XMCLib/inc\xmc_ccu4.h ****  * -# Enable the slices to support multichannel mode. (XMC_CCU4_SLICE_EnableMultiChannelMode())
 142:D:/DAVE IDE/4.5.0.202105191637/eclipse/workspace/bldcmotor/Libraries/XMCLib/inc\xmc_ccu4.h ****  *
 143:D:/DAVE IDE/4.5.0.202105191637/eclipse/workspace/bldcmotor/Libraries/XMCLib/inc\xmc_ccu4.h ****  * \par Capture configuration:
 144:D:/DAVE IDE/4.5.0.202105191637/eclipse/workspace/bldcmotor/Libraries/XMCLib/inc\xmc_ccu4.h ****  * This section of the LLD provides the configuration structure XMC_CCU4_SLICE_CAPTURE_CONFIG_t and
 145:D:/DAVE IDE/4.5.0.202105191637/eclipse/workspace/bldcmotor/Libraries/XMCLib/inc\xmc_ccu4.h ****  * function XMC_CCU4_SLICE_CaptureInit().
 146:D:/DAVE IDE/4.5.0.202105191637/eclipse/workspace/bldcmotor/Libraries/XMCLib/inc\xmc_ccu4.h ****  *
 147:D:/DAVE IDE/4.5.0.202105191637/eclipse/workspace/bldcmotor/Libraries/XMCLib/inc\xmc_ccu4.h ****  * It can be used to:
 148:D:/DAVE IDE/4.5.0.202105191637/eclipse/workspace/bldcmotor/Libraries/XMCLib/inc\xmc_ccu4.h ****  * -# Configure the capture functionality. (XMC_CCU4_SLICE_Capture0Config(), XMC_CCU4_SLICE_Capture
 149:D:/DAVE IDE/4.5.0.202105191637/eclipse/workspace/bldcmotor/Libraries/XMCLib/inc\xmc_ccu4.h ****  * -# Read the captured values along with the status, which indicate the value is latest or not.
 150:D:/DAVE IDE/4.5.0.202105191637/eclipse/workspace/bldcmotor/Libraries/XMCLib/inc\xmc_ccu4.h ****  *    (XMC_CCU4_SLICE_GetCaptureRegisterValue())
 151:D:/DAVE IDE/4.5.0.202105191637/eclipse/workspace/bldcmotor/Libraries/XMCLib/inc\xmc_ccu4.h ****  *
 152:D:/DAVE IDE/4.5.0.202105191637/eclipse/workspace/bldcmotor/Libraries/XMCLib/inc\xmc_ccu4.h ****  * \par Function/Event configuration:
 153:D:/DAVE IDE/4.5.0.202105191637/eclipse/workspace/bldcmotor/Libraries/XMCLib/inc\xmc_ccu4.h ****  * This section of the LLD provides the configuration structure XMC_CCU4_SLICE_EVENT_CONFIG_t.\n
 154:D:/DAVE IDE/4.5.0.202105191637/eclipse/workspace/bldcmotor/Libraries/XMCLib/inc\xmc_ccu4.h ****  *
 155:D:/DAVE IDE/4.5.0.202105191637/eclipse/workspace/bldcmotor/Libraries/XMCLib/inc\xmc_ccu4.h ****  * It can be used to:
 156:D:/DAVE IDE/4.5.0.202105191637/eclipse/workspace/bldcmotor/Libraries/XMCLib/inc\xmc_ccu4.h ****  * -# Enable and Disable the events. (XMC_CCU4_SLICE_EnableEvent(), XMC_CCU4_SLICE_DisableEvent())
 157:D:/DAVE IDE/4.5.0.202105191637/eclipse/workspace/bldcmotor/Libraries/XMCLib/inc\xmc_ccu4.h ****  * -# Configure to start and stop the timer on external events.(XMC_CCU4_SLICE_StartConfig(), XMC_C
 158:D:/DAVE IDE/4.5.0.202105191637/eclipse/workspace/bldcmotor/Libraries/XMCLib/inc\xmc_ccu4.h ****  * -# Modulation, external load and Gating of the timer output.(XMC_CCU4_SLICE_ModulationConfig(),
 159:D:/DAVE IDE/4.5.0.202105191637/eclipse/workspace/bldcmotor/Libraries/XMCLib/inc\xmc_ccu4.h ****  *    XMC_CCU4_SLICE_LoadConfig(), XMC_CCU4_SLICE_GateConfig())
 160:D:/DAVE IDE/4.5.0.202105191637/eclipse/workspace/bldcmotor/Libraries/XMCLib/inc\xmc_ccu4.h ****  * -# Control the count direction of the timer based on the external event. (XMC_CCU4_SLICE_Directi
 161:D:/DAVE IDE/4.5.0.202105191637/eclipse/workspace/bldcmotor/Libraries/XMCLib/inc\xmc_ccu4.h ****  * -# Count the external events.(XMC_CCU4_SLICE_CountConfig())
 162:D:/DAVE IDE/4.5.0.202105191637/eclipse/workspace/bldcmotor/Libraries/XMCLib/inc\xmc_ccu4.h ****  * -# External Trap. Which can be used as protective feature.(XMC_CCU4_SLICE_EnableTrap(), XMC_CCU4
 163:D:/DAVE IDE/4.5.0.202105191637/eclipse/workspace/bldcmotor/Libraries/XMCLib/inc\xmc_ccu4.h ****  *    XMC_CCU4_SLICE_TrapConfig())
 164:D:/DAVE IDE/4.5.0.202105191637/eclipse/workspace/bldcmotor/Libraries/XMCLib/inc\xmc_ccu4.h ****  *
 165:D:/DAVE IDE/4.5.0.202105191637/eclipse/workspace/bldcmotor/Libraries/XMCLib/inc\xmc_ccu4.h ****  * \par Interrupt configuration:
 166:D:/DAVE IDE/4.5.0.202105191637/eclipse/workspace/bldcmotor/Libraries/XMCLib/inc\xmc_ccu4.h ****  * This section of the LLD provides the function to configure the interrupt node to each event (XMC
 167:D:/DAVE IDE/4.5.0.202105191637/eclipse/workspace/bldcmotor/Libraries/XMCLib/inc\xmc_ccu4.h ****  * @{
 168:D:/DAVE IDE/4.5.0.202105191637/eclipse/workspace/bldcmotor/Libraries/XMCLib/inc\xmc_ccu4.h ****  */
 169:D:/DAVE IDE/4.5.0.202105191637/eclipse/workspace/bldcmotor/Libraries/XMCLib/inc\xmc_ccu4.h **** 
 170:D:/DAVE IDE/4.5.0.202105191637/eclipse/workspace/bldcmotor/Libraries/XMCLib/inc\xmc_ccu4.h **** /**************************************************************************************************
 171:D:/DAVE IDE/4.5.0.202105191637/eclipse/workspace/bldcmotor/Libraries/XMCLib/inc\xmc_ccu4.h ****  * MACROS
 172:D:/DAVE IDE/4.5.0.202105191637/eclipse/workspace/bldcmotor/Libraries/XMCLib/inc\xmc_ccu4.h ****  **************************************************************************************************
 173:D:/DAVE IDE/4.5.0.202105191637/eclipse/workspace/bldcmotor/Libraries/XMCLib/inc\xmc_ccu4.h **** /* Macro to check if the interrupt enum passed is valid */
 174:D:/DAVE IDE/4.5.0.202105191637/eclipse/workspace/bldcmotor/Libraries/XMCLib/inc\xmc_ccu4.h **** #define XMC_CCU4_SLICE_CHECK_INTERRUPT(interrupt) \
 175:D:/DAVE IDE/4.5.0.202105191637/eclipse/workspace/bldcmotor/Libraries/XMCLib/inc\xmc_ccu4.h ****     ((interrupt == XMC_CCU4_SLICE_IRQ_ID_PERIOD_MATCH)           || \
 176:D:/DAVE IDE/4.5.0.202105191637/eclipse/workspace/bldcmotor/Libraries/XMCLib/inc\xmc_ccu4.h ****      (interrupt == XMC_CCU4_SLICE_IRQ_ID_ONE_MATCH)              || \
 177:D:/DAVE IDE/4.5.0.202105191637/eclipse/workspace/bldcmotor/Libraries/XMCLib/inc\xmc_ccu4.h ****      (interrupt == XMC_CCU4_SLICE_IRQ_ID_COMPARE_MATCH_UP)  || \
 178:D:/DAVE IDE/4.5.0.202105191637/eclipse/workspace/bldcmotor/Libraries/XMCLib/inc\xmc_ccu4.h ****      (interrupt == XMC_CCU4_SLICE_IRQ_ID_COMPARE_MATCH_DOWN)|| \
 179:D:/DAVE IDE/4.5.0.202105191637/eclipse/workspace/bldcmotor/Libraries/XMCLib/inc\xmc_ccu4.h ****      (interrupt == XMC_CCU4_SLICE_IRQ_ID_EVENT0)                 || \
 180:D:/DAVE IDE/4.5.0.202105191637/eclipse/workspace/bldcmotor/Libraries/XMCLib/inc\xmc_ccu4.h ****      (interrupt == XMC_CCU4_SLICE_IRQ_ID_EVENT1)                 || \
 181:D:/DAVE IDE/4.5.0.202105191637/eclipse/workspace/bldcmotor/Libraries/XMCLib/inc\xmc_ccu4.h ****      (interrupt == XMC_CCU4_SLICE_IRQ_ID_EVENT2)                 || \
 182:D:/DAVE IDE/4.5.0.202105191637/eclipse/workspace/bldcmotor/Libraries/XMCLib/inc\xmc_ccu4.h ****      (interrupt == XMC_CCU4_SLICE_IRQ_ID_TRAP))
 183:D:/DAVE IDE/4.5.0.202105191637/eclipse/workspace/bldcmotor/Libraries/XMCLib/inc\xmc_ccu4.h **** 
 184:D:/DAVE IDE/4.5.0.202105191637/eclipse/workspace/bldcmotor/Libraries/XMCLib/inc\xmc_ccu4.h **** /**************************************************************************************************
 185:D:/DAVE IDE/4.5.0.202105191637/eclipse/workspace/bldcmotor/Libraries/XMCLib/inc\xmc_ccu4.h ****  * ENUMS
 186:D:/DAVE IDE/4.5.0.202105191637/eclipse/workspace/bldcmotor/Libraries/XMCLib/inc\xmc_ccu4.h ****  **************************************************************************************************
 187:D:/DAVE IDE/4.5.0.202105191637/eclipse/workspace/bldcmotor/Libraries/XMCLib/inc\xmc_ccu4.h **** 
 188:D:/DAVE IDE/4.5.0.202105191637/eclipse/workspace/bldcmotor/Libraries/XMCLib/inc\xmc_ccu4.h **** /**
 189:D:/DAVE IDE/4.5.0.202105191637/eclipse/workspace/bldcmotor/Libraries/XMCLib/inc\xmc_ccu4.h ****  * Typedef for CCU4 Global data structure
 190:D:/DAVE IDE/4.5.0.202105191637/eclipse/workspace/bldcmotor/Libraries/XMCLib/inc\xmc_ccu4.h ****  */
 191:D:/DAVE IDE/4.5.0.202105191637/eclipse/workspace/bldcmotor/Libraries/XMCLib/inc\xmc_ccu4.h **** typedef CCU4_GLOBAL_TypeDef XMC_CCU4_MODULE_t;
 192:D:/DAVE IDE/4.5.0.202105191637/eclipse/workspace/bldcmotor/Libraries/XMCLib/inc\xmc_ccu4.h **** 
 193:D:/DAVE IDE/4.5.0.202105191637/eclipse/workspace/bldcmotor/Libraries/XMCLib/inc\xmc_ccu4.h **** /**
 194:D:/DAVE IDE/4.5.0.202105191637/eclipse/workspace/bldcmotor/Libraries/XMCLib/inc\xmc_ccu4.h ****  * Typedef for CCU4 Slice data structure
 195:D:/DAVE IDE/4.5.0.202105191637/eclipse/workspace/bldcmotor/Libraries/XMCLib/inc\xmc_ccu4.h ****  */
 196:D:/DAVE IDE/4.5.0.202105191637/eclipse/workspace/bldcmotor/Libraries/XMCLib/inc\xmc_ccu4.h **** typedef CCU4_CC4_TypeDef XMC_CCU4_SLICE_t;
 197:D:/DAVE IDE/4.5.0.202105191637/eclipse/workspace/bldcmotor/Libraries/XMCLib/inc\xmc_ccu4.h **** 
 198:D:/DAVE IDE/4.5.0.202105191637/eclipse/workspace/bldcmotor/Libraries/XMCLib/inc\xmc_ccu4.h **** /**
 199:D:/DAVE IDE/4.5.0.202105191637/eclipse/workspace/bldcmotor/Libraries/XMCLib/inc\xmc_ccu4.h ****  *  Return Value of an API
 200:D:/DAVE IDE/4.5.0.202105191637/eclipse/workspace/bldcmotor/Libraries/XMCLib/inc\xmc_ccu4.h ****  */
 201:D:/DAVE IDE/4.5.0.202105191637/eclipse/workspace/bldcmotor/Libraries/XMCLib/inc\xmc_ccu4.h **** typedef enum XMC_CCU4_STATUS
 202:D:/DAVE IDE/4.5.0.202105191637/eclipse/workspace/bldcmotor/Libraries/XMCLib/inc\xmc_ccu4.h **** {
 203:D:/DAVE IDE/4.5.0.202105191637/eclipse/workspace/bldcmotor/Libraries/XMCLib/inc\xmc_ccu4.h ****   XMC_CCU4_STATUS_OK      = 0U, /**< API fulfils request */
 204:D:/DAVE IDE/4.5.0.202105191637/eclipse/workspace/bldcmotor/Libraries/XMCLib/inc\xmc_ccu4.h ****   XMC_CCU4_STATUS_ERROR,        /**< API cannot fulfil the request */
 205:D:/DAVE IDE/4.5.0.202105191637/eclipse/workspace/bldcmotor/Libraries/XMCLib/inc\xmc_ccu4.h ****   XMC_CCU4_STATUS_RUNNING,      /**< The timer slice is currently running */
 206:D:/DAVE IDE/4.5.0.202105191637/eclipse/workspace/bldcmotor/Libraries/XMCLib/inc\xmc_ccu4.h ****   XMC_CCU4_STATUS_IDLE          /**< The timer slice is currently idle */
 207:D:/DAVE IDE/4.5.0.202105191637/eclipse/workspace/bldcmotor/Libraries/XMCLib/inc\xmc_ccu4.h **** } XMC_CCU4_STATUS_t;
 208:D:/DAVE IDE/4.5.0.202105191637/eclipse/workspace/bldcmotor/Libraries/XMCLib/inc\xmc_ccu4.h **** 
 209:D:/DAVE IDE/4.5.0.202105191637/eclipse/workspace/bldcmotor/Libraries/XMCLib/inc\xmc_ccu4.h **** /**
 210:D:/DAVE IDE/4.5.0.202105191637/eclipse/workspace/bldcmotor/Libraries/XMCLib/inc\xmc_ccu4.h ****  *  CCU4 module clock
 211:D:/DAVE IDE/4.5.0.202105191637/eclipse/workspace/bldcmotor/Libraries/XMCLib/inc\xmc_ccu4.h ****  */
 212:D:/DAVE IDE/4.5.0.202105191637/eclipse/workspace/bldcmotor/Libraries/XMCLib/inc\xmc_ccu4.h **** typedef enum XMC_CCU4_CLOCK
 213:D:/DAVE IDE/4.5.0.202105191637/eclipse/workspace/bldcmotor/Libraries/XMCLib/inc\xmc_ccu4.h **** {
 214:D:/DAVE IDE/4.5.0.202105191637/eclipse/workspace/bldcmotor/Libraries/XMCLib/inc\xmc_ccu4.h ****   XMC_CCU4_CLOCK_SCU        = 0U, /**< Select the fCCU as the clock */
 215:D:/DAVE IDE/4.5.0.202105191637/eclipse/workspace/bldcmotor/Libraries/XMCLib/inc\xmc_ccu4.h ****   XMC_CCU4_CLOCK_EXTERNAL_A,      /**< External clock-A */
 216:D:/DAVE IDE/4.5.0.202105191637/eclipse/workspace/bldcmotor/Libraries/XMCLib/inc\xmc_ccu4.h ****   XMC_CCU4_CLOCK_EXTERNAL_B,      /**< External clock-B */
 217:D:/DAVE IDE/4.5.0.202105191637/eclipse/workspace/bldcmotor/Libraries/XMCLib/inc\xmc_ccu4.h ****   XMC_CCU4_CLOCK_EXTERNAL_C       /**< External clock-C */
 218:D:/DAVE IDE/4.5.0.202105191637/eclipse/workspace/bldcmotor/Libraries/XMCLib/inc\xmc_ccu4.h **** } XMC_CCU4_CLOCK_t;
 219:D:/DAVE IDE/4.5.0.202105191637/eclipse/workspace/bldcmotor/Libraries/XMCLib/inc\xmc_ccu4.h **** 
 220:D:/DAVE IDE/4.5.0.202105191637/eclipse/workspace/bldcmotor/Libraries/XMCLib/inc\xmc_ccu4.h **** /**
 221:D:/DAVE IDE/4.5.0.202105191637/eclipse/workspace/bldcmotor/Libraries/XMCLib/inc\xmc_ccu4.h ****  * CCU4 set the shadow transfer type for multichannel mode
 222:D:/DAVE IDE/4.5.0.202105191637/eclipse/workspace/bldcmotor/Libraries/XMCLib/inc\xmc_ccu4.h ****  */
 223:D:/DAVE IDE/4.5.0.202105191637/eclipse/workspace/bldcmotor/Libraries/XMCLib/inc\xmc_ccu4.h **** typedef enum XMC_CCU4_MULTI_CHANNEL_SHADOW_TRANSFER
 224:D:/DAVE IDE/4.5.0.202105191637/eclipse/workspace/bldcmotor/Libraries/XMCLib/inc\xmc_ccu4.h **** {
 225:D:/DAVE IDE/4.5.0.202105191637/eclipse/workspace/bldcmotor/Libraries/XMCLib/inc\xmc_ccu4.h ****   XMC_CCU4_MULTI_CHANNEL_SHADOW_TRANSFER_SW_SLICE0       = (uint32_t)0x4000000, /**< Shadow transfe
 226:D:/DAVE IDE/4.5.0.202105191637/eclipse/workspace/bldcmotor/Libraries/XMCLib/inc\xmc_ccu4.h ****                                                                                      only for slice
 227:D:/DAVE IDE/4.5.0.202105191637/eclipse/workspace/bldcmotor/Libraries/XMCLib/inc\xmc_ccu4.h ****   XMC_CCU4_MULTI_CHANNEL_SHADOW_TRANSFER_SW_MCSS_SLICE0  = (uint32_t)0x4000400, /**< Shadow transfe
 228:D:/DAVE IDE/4.5.0.202105191637/eclipse/workspace/bldcmotor/Libraries/XMCLib/inc\xmc_ccu4.h ****                                                                                      and hardware f
 229:D:/DAVE IDE/4.5.0.202105191637/eclipse/workspace/bldcmotor/Libraries/XMCLib/inc\xmc_ccu4.h ****   XMC_CCU4_MULTI_CHANNEL_SHADOW_TRANSFER_SW_SLICE1       = (uint32_t)0x8000000, /**< Shadow transfe
 230:D:/DAVE IDE/4.5.0.202105191637/eclipse/workspace/bldcmotor/Libraries/XMCLib/inc\xmc_ccu4.h ****                                                                                      only for slice
 231:D:/DAVE IDE/4.5.0.202105191637/eclipse/workspace/bldcmotor/Libraries/XMCLib/inc\xmc_ccu4.h ****   XMC_CCU4_MULTI_CHANNEL_SHADOW_TRANSFER_SW_MCSS_SLICE1  = (uint32_t)0x8000800, /**< Shadow transfe
 232:D:/DAVE IDE/4.5.0.202105191637/eclipse/workspace/bldcmotor/Libraries/XMCLib/inc\xmc_ccu4.h ****                                                                                      and hardware f
 233:D:/DAVE IDE/4.5.0.202105191637/eclipse/workspace/bldcmotor/Libraries/XMCLib/inc\xmc_ccu4.h ****   XMC_CCU4_MULTI_CHANNEL_SHADOW_TRANSFER_SW_SLICE2       = (uint32_t)0x10000000, /**< Shadow transf
 234:D:/DAVE IDE/4.5.0.202105191637/eclipse/workspace/bldcmotor/Libraries/XMCLib/inc\xmc_ccu4.h ****                                                                                       only for slic
 235:D:/DAVE IDE/4.5.0.202105191637/eclipse/workspace/bldcmotor/Libraries/XMCLib/inc\xmc_ccu4.h ****   XMC_CCU4_MULTI_CHANNEL_SHADOW_TRANSFER_SW_MCSS_SLICE2  = (uint32_t)0x10001000, /**< Shadow transf
 236:D:/DAVE IDE/4.5.0.202105191637/eclipse/workspace/bldcmotor/Libraries/XMCLib/inc\xmc_ccu4.h ****                                                                                       and hardware 
 237:D:/DAVE IDE/4.5.0.202105191637/eclipse/workspace/bldcmotor/Libraries/XMCLib/inc\xmc_ccu4.h ****   XMC_CCU4_MULTI_CHANNEL_SHADOW_TRANSFER_SW_SLICE3       = (uint32_t)0x20000000, /**< Shadow transf
 238:D:/DAVE IDE/4.5.0.202105191637/eclipse/workspace/bldcmotor/Libraries/XMCLib/inc\xmc_ccu4.h ****                                                                                       only for slic
 239:D:/DAVE IDE/4.5.0.202105191637/eclipse/workspace/bldcmotor/Libraries/XMCLib/inc\xmc_ccu4.h ****   XMC_CCU4_MULTI_CHANNEL_SHADOW_TRANSFER_SW_MCSS_SLICE3  = (uint32_t)0x20002000  /**< Shadow transf
 240:D:/DAVE IDE/4.5.0.202105191637/eclipse/workspace/bldcmotor/Libraries/XMCLib/inc\xmc_ccu4.h ****                                                                                       and hardware 
 241:D:/DAVE IDE/4.5.0.202105191637/eclipse/workspace/bldcmotor/Libraries/XMCLib/inc\xmc_ccu4.h **** } XMC_CCU4_MULTI_CHANNEL_SHADOW_TRANSFER_t;
 242:D:/DAVE IDE/4.5.0.202105191637/eclipse/workspace/bldcmotor/Libraries/XMCLib/inc\xmc_ccu4.h **** 
 243:D:/DAVE IDE/4.5.0.202105191637/eclipse/workspace/bldcmotor/Libraries/XMCLib/inc\xmc_ccu4.h **** /**
 244:D:/DAVE IDE/4.5.0.202105191637/eclipse/workspace/bldcmotor/Libraries/XMCLib/inc\xmc_ccu4.h ****  *  Operational modes of CCU4 slice
 245:D:/DAVE IDE/4.5.0.202105191637/eclipse/workspace/bldcmotor/Libraries/XMCLib/inc\xmc_ccu4.h ****  */
 246:D:/DAVE IDE/4.5.0.202105191637/eclipse/workspace/bldcmotor/Libraries/XMCLib/inc\xmc_ccu4.h **** typedef enum XMC_CCU4_SLICE_MODE
 247:D:/DAVE IDE/4.5.0.202105191637/eclipse/workspace/bldcmotor/Libraries/XMCLib/inc\xmc_ccu4.h **** {
 248:D:/DAVE IDE/4.5.0.202105191637/eclipse/workspace/bldcmotor/Libraries/XMCLib/inc\xmc_ccu4.h ****   XMC_CCU4_SLICE_MODE_COMPARE  = 0U, /**< slice(CC4y) operates in Compare Mode */
 249:D:/DAVE IDE/4.5.0.202105191637/eclipse/workspace/bldcmotor/Libraries/XMCLib/inc\xmc_ccu4.h ****   XMC_CCU4_SLICE_MODE_CAPTURE        /**< slice(CC4y) operates in Capture Mode */
 250:D:/DAVE IDE/4.5.0.202105191637/eclipse/workspace/bldcmotor/Libraries/XMCLib/inc\xmc_ccu4.h **** } XMC_CCU4_SLICE_MODE_t;
 251:D:/DAVE IDE/4.5.0.202105191637/eclipse/workspace/bldcmotor/Libraries/XMCLib/inc\xmc_ccu4.h **** 
 252:D:/DAVE IDE/4.5.0.202105191637/eclipse/workspace/bldcmotor/Libraries/XMCLib/inc\xmc_ccu4.h **** /**
 253:D:/DAVE IDE/4.5.0.202105191637/eclipse/workspace/bldcmotor/Libraries/XMCLib/inc\xmc_ccu4.h ****  *  Timer counting modes for the slice
 254:D:/DAVE IDE/4.5.0.202105191637/eclipse/workspace/bldcmotor/Libraries/XMCLib/inc\xmc_ccu4.h ****  */
 255:D:/DAVE IDE/4.5.0.202105191637/eclipse/workspace/bldcmotor/Libraries/XMCLib/inc\xmc_ccu4.h **** typedef enum XMC_CCU4_SLICE_TIMER_COUNT_MODE
 256:D:/DAVE IDE/4.5.0.202105191637/eclipse/workspace/bldcmotor/Libraries/XMCLib/inc\xmc_ccu4.h **** {
 257:D:/DAVE IDE/4.5.0.202105191637/eclipse/workspace/bldcmotor/Libraries/XMCLib/inc\xmc_ccu4.h ****   XMC_CCU4_SLICE_TIMER_COUNT_MODE_EA  = 0U, /**< Edge Aligned Mode */
 258:D:/DAVE IDE/4.5.0.202105191637/eclipse/workspace/bldcmotor/Libraries/XMCLib/inc\xmc_ccu4.h ****   XMC_CCU4_SLICE_TIMER_COUNT_MODE_CA        /**< Center Aligned Mode */
 259:D:/DAVE IDE/4.5.0.202105191637/eclipse/workspace/bldcmotor/Libraries/XMCLib/inc\xmc_ccu4.h **** } XMC_CCU4_SLICE_TIMER_COUNT_MODE_t;
 260:D:/DAVE IDE/4.5.0.202105191637/eclipse/workspace/bldcmotor/Libraries/XMCLib/inc\xmc_ccu4.h **** 
 261:D:/DAVE IDE/4.5.0.202105191637/eclipse/workspace/bldcmotor/Libraries/XMCLib/inc\xmc_ccu4.h **** /**
 262:D:/DAVE IDE/4.5.0.202105191637/eclipse/workspace/bldcmotor/Libraries/XMCLib/inc\xmc_ccu4.h ****  *  Timer repetition mode for the slice
 263:D:/DAVE IDE/4.5.0.202105191637/eclipse/workspace/bldcmotor/Libraries/XMCLib/inc\xmc_ccu4.h ****  */
 264:D:/DAVE IDE/4.5.0.202105191637/eclipse/workspace/bldcmotor/Libraries/XMCLib/inc\xmc_ccu4.h **** typedef enum XMC_CCU4_SLICE_TIMER_REPEAT_MODE
 265:D:/DAVE IDE/4.5.0.202105191637/eclipse/workspace/bldcmotor/Libraries/XMCLib/inc\xmc_ccu4.h **** {
 266:D:/DAVE IDE/4.5.0.202105191637/eclipse/workspace/bldcmotor/Libraries/XMCLib/inc\xmc_ccu4.h ****   XMC_CCU4_SLICE_TIMER_REPEAT_MODE_REPEAT = 0U,  /**< Repetitive mode: continuous mode of operation
 267:D:/DAVE IDE/4.5.0.202105191637/eclipse/workspace/bldcmotor/Libraries/XMCLib/inc\xmc_ccu4.h ****   XMC_CCU4_SLICE_TIMER_REPEAT_MODE_SINGLE        /**< Single shot mode: Once a Period match/One mat
 268:D:/DAVE IDE/4.5.0.202105191637/eclipse/workspace/bldcmotor/Libraries/XMCLib/inc\xmc_ccu4.h ****                                                       occurs timer goes to idle state */
 269:D:/DAVE IDE/4.5.0.202105191637/eclipse/workspace/bldcmotor/Libraries/XMCLib/inc\xmc_ccu4.h **** } XMC_CCU4_SLICE_TIMER_REPEAT_MODE_t;
 270:D:/DAVE IDE/4.5.0.202105191637/eclipse/workspace/bldcmotor/Libraries/XMCLib/inc\xmc_ccu4.h **** 
 271:D:/DAVE IDE/4.5.0.202105191637/eclipse/workspace/bldcmotor/Libraries/XMCLib/inc\xmc_ccu4.h **** /**
 272:D:/DAVE IDE/4.5.0.202105191637/eclipse/workspace/bldcmotor/Libraries/XMCLib/inc\xmc_ccu4.h ****  * Timer counting direction for the CCU4 slice
 273:D:/DAVE IDE/4.5.0.202105191637/eclipse/workspace/bldcmotor/Libraries/XMCLib/inc\xmc_ccu4.h ****  */
 274:D:/DAVE IDE/4.5.0.202105191637/eclipse/workspace/bldcmotor/Libraries/XMCLib/inc\xmc_ccu4.h **** typedef enum XMC_CCU4_SLICE_TIMER_COUNT_DIR
 275:D:/DAVE IDE/4.5.0.202105191637/eclipse/workspace/bldcmotor/Libraries/XMCLib/inc\xmc_ccu4.h **** {
 276:D:/DAVE IDE/4.5.0.202105191637/eclipse/workspace/bldcmotor/Libraries/XMCLib/inc\xmc_ccu4.h ****   XMC_CCU4_SLICE_TIMER_COUNT_DIR_UP   = 0U, /**< Counting up */
 277:D:/DAVE IDE/4.5.0.202105191637/eclipse/workspace/bldcmotor/Libraries/XMCLib/inc\xmc_ccu4.h ****   XMC_CCU4_SLICE_TIMER_COUNT_DIR_DOWN       /**< Counting down */
 278:D:/DAVE IDE/4.5.0.202105191637/eclipse/workspace/bldcmotor/Libraries/XMCLib/inc\xmc_ccu4.h **** } XMC_CCU4_SLICE_TIMER_COUNT_DIR_t;
 279:D:/DAVE IDE/4.5.0.202105191637/eclipse/workspace/bldcmotor/Libraries/XMCLib/inc\xmc_ccu4.h **** 
 280:D:/DAVE IDE/4.5.0.202105191637/eclipse/workspace/bldcmotor/Libraries/XMCLib/inc\xmc_ccu4.h **** /**
 281:D:/DAVE IDE/4.5.0.202105191637/eclipse/workspace/bldcmotor/Libraries/XMCLib/inc\xmc_ccu4.h ****  *  Capture mode register sets
 282:D:/DAVE IDE/4.5.0.202105191637/eclipse/workspace/bldcmotor/Libraries/XMCLib/inc\xmc_ccu4.h ****  */
 283:D:/DAVE IDE/4.5.0.202105191637/eclipse/workspace/bldcmotor/Libraries/XMCLib/inc\xmc_ccu4.h **** typedef enum XMC_CCU4_SLICE_CAP_REG_SET
 284:D:/DAVE IDE/4.5.0.202105191637/eclipse/workspace/bldcmotor/Libraries/XMCLib/inc\xmc_ccu4.h **** {
 285:D:/DAVE IDE/4.5.0.202105191637/eclipse/workspace/bldcmotor/Libraries/XMCLib/inc\xmc_ccu4.h ****   XMC_CCU4_SLICE_CAP_REG_SET_LOW  = 0U, /**< Capture register-0, Capture register-1 used */
 286:D:/DAVE IDE/4.5.0.202105191637/eclipse/workspace/bldcmotor/Libraries/XMCLib/inc\xmc_ccu4.h ****   XMC_CCU4_SLICE_CAP_REG_SET_HIGH       /**< Capture register-2, Capture register-3 used */
 287:D:/DAVE IDE/4.5.0.202105191637/eclipse/workspace/bldcmotor/Libraries/XMCLib/inc\xmc_ccu4.h **** } XMC_CCU4_SLICE_CAP_REG_SET_t;
 288:D:/DAVE IDE/4.5.0.202105191637/eclipse/workspace/bldcmotor/Libraries/XMCLib/inc\xmc_ccu4.h **** 
 289:D:/DAVE IDE/4.5.0.202105191637/eclipse/workspace/bldcmotor/Libraries/XMCLib/inc\xmc_ccu4.h **** /**
 290:D:/DAVE IDE/4.5.0.202105191637/eclipse/workspace/bldcmotor/Libraries/XMCLib/inc\xmc_ccu4.h ****  *  Prescaler mode
 291:D:/DAVE IDE/4.5.0.202105191637/eclipse/workspace/bldcmotor/Libraries/XMCLib/inc\xmc_ccu4.h ****  */
 292:D:/DAVE IDE/4.5.0.202105191637/eclipse/workspace/bldcmotor/Libraries/XMCLib/inc\xmc_ccu4.h **** typedef enum XMC_CCU4_SLICE_PRESCALER_MODE
 293:D:/DAVE IDE/4.5.0.202105191637/eclipse/workspace/bldcmotor/Libraries/XMCLib/inc\xmc_ccu4.h **** {
 294:D:/DAVE IDE/4.5.0.202105191637/eclipse/workspace/bldcmotor/Libraries/XMCLib/inc\xmc_ccu4.h ****   XMC_CCU4_SLICE_PRESCALER_MODE_NORMAL = 0U, /**< Fixed division of module clock */
 295:D:/DAVE IDE/4.5.0.202105191637/eclipse/workspace/bldcmotor/Libraries/XMCLib/inc\xmc_ccu4.h ****   XMC_CCU4_SLICE_PRESCALER_MODE_FLOAT        /**< Floating divider. */
 296:D:/DAVE IDE/4.5.0.202105191637/eclipse/workspace/bldcmotor/Libraries/XMCLib/inc\xmc_ccu4.h **** } XMC_CCU4_SLICE_PRESCALER_MODE_t;
 297:D:/DAVE IDE/4.5.0.202105191637/eclipse/workspace/bldcmotor/Libraries/XMCLib/inc\xmc_ccu4.h **** 
 298:D:/DAVE IDE/4.5.0.202105191637/eclipse/workspace/bldcmotor/Libraries/XMCLib/inc\xmc_ccu4.h **** /**
 299:D:/DAVE IDE/4.5.0.202105191637/eclipse/workspace/bldcmotor/Libraries/XMCLib/inc\xmc_ccu4.h ****  *  Timer output passive level
 300:D:/DAVE IDE/4.5.0.202105191637/eclipse/workspace/bldcmotor/Libraries/XMCLib/inc\xmc_ccu4.h ****  */
 301:D:/DAVE IDE/4.5.0.202105191637/eclipse/workspace/bldcmotor/Libraries/XMCLib/inc\xmc_ccu4.h **** typedef enum XMC_CCU4_SLICE_OUTPUT_PASSIVE_LEVEL
 302:D:/DAVE IDE/4.5.0.202105191637/eclipse/workspace/bldcmotor/Libraries/XMCLib/inc\xmc_ccu4.h **** {
 303:D:/DAVE IDE/4.5.0.202105191637/eclipse/workspace/bldcmotor/Libraries/XMCLib/inc\xmc_ccu4.h ****   XMC_CCU4_SLICE_OUTPUT_PASSIVE_LEVEL_LOW  = 0U, /**< Passive level = Low */
 304:D:/DAVE IDE/4.5.0.202105191637/eclipse/workspace/bldcmotor/Libraries/XMCLib/inc\xmc_ccu4.h ****   XMC_CCU4_SLICE_OUTPUT_PASSIVE_LEVEL_HIGH       /**< Passive level = High */
 305:D:/DAVE IDE/4.5.0.202105191637/eclipse/workspace/bldcmotor/Libraries/XMCLib/inc\xmc_ccu4.h **** } XMC_CCU4_SLICE_OUTPUT_PASSIVE_LEVEL_t;
 306:D:/DAVE IDE/4.5.0.202105191637/eclipse/workspace/bldcmotor/Libraries/XMCLib/inc\xmc_ccu4.h **** 
 307:D:/DAVE IDE/4.5.0.202105191637/eclipse/workspace/bldcmotor/Libraries/XMCLib/inc\xmc_ccu4.h **** /**
 308:D:/DAVE IDE/4.5.0.202105191637/eclipse/workspace/bldcmotor/Libraries/XMCLib/inc\xmc_ccu4.h ****  * Timer clock Divider
 309:D:/DAVE IDE/4.5.0.202105191637/eclipse/workspace/bldcmotor/Libraries/XMCLib/inc\xmc_ccu4.h ****  */
 310:D:/DAVE IDE/4.5.0.202105191637/eclipse/workspace/bldcmotor/Libraries/XMCLib/inc\xmc_ccu4.h **** typedef enum XMC_CCU4_SLICE_PRESCALER
 311:D:/DAVE IDE/4.5.0.202105191637/eclipse/workspace/bldcmotor/Libraries/XMCLib/inc\xmc_ccu4.h **** {
 312:D:/DAVE IDE/4.5.0.202105191637/eclipse/workspace/bldcmotor/Libraries/XMCLib/inc\xmc_ccu4.h ****   XMC_CCU4_SLICE_PRESCALER_1  = 0U, /**< Slice Clock = fccu4 */
 313:D:/DAVE IDE/4.5.0.202105191637/eclipse/workspace/bldcmotor/Libraries/XMCLib/inc\xmc_ccu4.h ****   XMC_CCU4_SLICE_PRESCALER_2,       /**< Slice Clock = fccu4/2 */
 314:D:/DAVE IDE/4.5.0.202105191637/eclipse/workspace/bldcmotor/Libraries/XMCLib/inc\xmc_ccu4.h ****   XMC_CCU4_SLICE_PRESCALER_4,       /**< Slice Clock = fccu4/4 */
 315:D:/DAVE IDE/4.5.0.202105191637/eclipse/workspace/bldcmotor/Libraries/XMCLib/inc\xmc_ccu4.h ****   XMC_CCU4_SLICE_PRESCALER_8,       /**< Slice Clock = fccu4/8 */
 316:D:/DAVE IDE/4.5.0.202105191637/eclipse/workspace/bldcmotor/Libraries/XMCLib/inc\xmc_ccu4.h ****   XMC_CCU4_SLICE_PRESCALER_16,      /**< Slice Clock = fccu4/16 */
 317:D:/DAVE IDE/4.5.0.202105191637/eclipse/workspace/bldcmotor/Libraries/XMCLib/inc\xmc_ccu4.h ****   XMC_CCU4_SLICE_PRESCALER_32,      /**< Slice Clock = fccu4/32 */
 318:D:/DAVE IDE/4.5.0.202105191637/eclipse/workspace/bldcmotor/Libraries/XMCLib/inc\xmc_ccu4.h ****   XMC_CCU4_SLICE_PRESCALER_64,      /**< Slice Clock = fccu4/64 */
 319:D:/DAVE IDE/4.5.0.202105191637/eclipse/workspace/bldcmotor/Libraries/XMCLib/inc\xmc_ccu4.h ****   XMC_CCU4_SLICE_PRESCALER_128,     /**< Slice Clock = fccu4/128 */
 320:D:/DAVE IDE/4.5.0.202105191637/eclipse/workspace/bldcmotor/Libraries/XMCLib/inc\xmc_ccu4.h ****   XMC_CCU4_SLICE_PRESCALER_256,     /**< Slice Clock = fccu4/256 */
 321:D:/DAVE IDE/4.5.0.202105191637/eclipse/workspace/bldcmotor/Libraries/XMCLib/inc\xmc_ccu4.h ****   XMC_CCU4_SLICE_PRESCALER_512,     /**< Slice Clock = fccu4/512 */
 322:D:/DAVE IDE/4.5.0.202105191637/eclipse/workspace/bldcmotor/Libraries/XMCLib/inc\xmc_ccu4.h ****   XMC_CCU4_SLICE_PRESCALER_1024,    /**< Slice Clock = fccu4/1024 */
 323:D:/DAVE IDE/4.5.0.202105191637/eclipse/workspace/bldcmotor/Libraries/XMCLib/inc\xmc_ccu4.h ****   XMC_CCU4_SLICE_PRESCALER_2048,    /**< Slice Clock = fccu4/2048 */
 324:D:/DAVE IDE/4.5.0.202105191637/eclipse/workspace/bldcmotor/Libraries/XMCLib/inc\xmc_ccu4.h ****   XMC_CCU4_SLICE_PRESCALER_4096,    /**< Slice Clock = fccu4/4096 */
 325:D:/DAVE IDE/4.5.0.202105191637/eclipse/workspace/bldcmotor/Libraries/XMCLib/inc\xmc_ccu4.h ****   XMC_CCU4_SLICE_PRESCALER_8192,    /**< Slice Clock = fccu4/8192 */
 326:D:/DAVE IDE/4.5.0.202105191637/eclipse/workspace/bldcmotor/Libraries/XMCLib/inc\xmc_ccu4.h ****   XMC_CCU4_SLICE_PRESCALER_16384,   /**< Slice Clock = fccu4/16384 */
 327:D:/DAVE IDE/4.5.0.202105191637/eclipse/workspace/bldcmotor/Libraries/XMCLib/inc\xmc_ccu4.h ****   XMC_CCU4_SLICE_PRESCALER_32768    /**< Slice Clock = fccu4/32768 */
 328:D:/DAVE IDE/4.5.0.202105191637/eclipse/workspace/bldcmotor/Libraries/XMCLib/inc\xmc_ccu4.h **** } XMC_CCU4_SLICE_PRESCALER_t;
 329:D:/DAVE IDE/4.5.0.202105191637/eclipse/workspace/bldcmotor/Libraries/XMCLib/inc\xmc_ccu4.h **** 
 330:D:/DAVE IDE/4.5.0.202105191637/eclipse/workspace/bldcmotor/Libraries/XMCLib/inc\xmc_ccu4.h **** /**
 331:D:/DAVE IDE/4.5.0.202105191637/eclipse/workspace/bldcmotor/Libraries/XMCLib/inc\xmc_ccu4.h ****  *  External Function list
 332:D:/DAVE IDE/4.5.0.202105191637/eclipse/workspace/bldcmotor/Libraries/XMCLib/inc\xmc_ccu4.h ****  */
 333:D:/DAVE IDE/4.5.0.202105191637/eclipse/workspace/bldcmotor/Libraries/XMCLib/inc\xmc_ccu4.h **** typedef enum XMC_CCU4_SLICE_FUNCTION
 334:D:/DAVE IDE/4.5.0.202105191637/eclipse/workspace/bldcmotor/Libraries/XMCLib/inc\xmc_ccu4.h **** {
 335:D:/DAVE IDE/4.5.0.202105191637/eclipse/workspace/bldcmotor/Libraries/XMCLib/inc\xmc_ccu4.h ****   XMC_CCU4_SLICE_FUNCTION_START           = 0U, /**< Start function */
 336:D:/DAVE IDE/4.5.0.202105191637/eclipse/workspace/bldcmotor/Libraries/XMCLib/inc\xmc_ccu4.h ****   XMC_CCU4_SLICE_FUNCTION_STOP,                 /**< Stop function */
 337:D:/DAVE IDE/4.5.0.202105191637/eclipse/workspace/bldcmotor/Libraries/XMCLib/inc\xmc_ccu4.h ****   XMC_CCU4_SLICE_FUNCTION_CAPTURE_EVENT0, /**< Capture Event-0 function, CCycapt0 signal is used fo
 338:D:/DAVE IDE/4.5.0.202105191637/eclipse/workspace/bldcmotor/Libraries/XMCLib/inc\xmc_ccu4.h ****                                                      generation */
 339:D:/DAVE IDE/4.5.0.202105191637/eclipse/workspace/bldcmotor/Libraries/XMCLib/inc\xmc_ccu4.h ****   XMC_CCU4_SLICE_FUNCTION_CAPTURE_EVENT1, /**< Capture Event-1 function, CCycapt1 signal is used fo
 340:D:/DAVE IDE/4.5.0.202105191637/eclipse/workspace/bldcmotor/Libraries/XMCLib/inc\xmc_ccu4.h ****                                                      generation */
 341:D:/DAVE IDE/4.5.0.202105191637/eclipse/workspace/bldcmotor/Libraries/XMCLib/inc\xmc_ccu4.h ****   XMC_CCU4_SLICE_FUNCTION_GATING,               /**< Gating function */
 342:D:/DAVE IDE/4.5.0.202105191637/eclipse/workspace/bldcmotor/Libraries/XMCLib/inc\xmc_ccu4.h ****   XMC_CCU4_SLICE_FUNCTION_DIRECTION,            /**< Direction function */
 343:D:/DAVE IDE/4.5.0.202105191637/eclipse/workspace/bldcmotor/Libraries/XMCLib/inc\xmc_ccu4.h ****   XMC_CCU4_SLICE_FUNCTION_LOAD,                 /**< Load function */
 344:D:/DAVE IDE/4.5.0.202105191637/eclipse/workspace/bldcmotor/Libraries/XMCLib/inc\xmc_ccu4.h ****   XMC_CCU4_SLICE_FUNCTION_COUNT,                /**< Counting function */
 345:D:/DAVE IDE/4.5.0.202105191637/eclipse/workspace/bldcmotor/Libraries/XMCLib/inc\xmc_ccu4.h ****   XMC_CCU4_SLICE_FUNCTION_OVERRIDE,             /**< Override function */
 346:D:/DAVE IDE/4.5.0.202105191637/eclipse/workspace/bldcmotor/Libraries/XMCLib/inc\xmc_ccu4.h ****   XMC_CCU4_SLICE_FUNCTION_MODULATION,           /**< Modulation function */
 347:D:/DAVE IDE/4.5.0.202105191637/eclipse/workspace/bldcmotor/Libraries/XMCLib/inc\xmc_ccu4.h ****   XMC_CCU4_SLICE_FUNCTION_TRAP                  /**< Trap function */
 348:D:/DAVE IDE/4.5.0.202105191637/eclipse/workspace/bldcmotor/Libraries/XMCLib/inc\xmc_ccu4.h **** } XMC_CCU4_SLICE_FUNCTION_t;
 349:D:/DAVE IDE/4.5.0.202105191637/eclipse/workspace/bldcmotor/Libraries/XMCLib/inc\xmc_ccu4.h **** 
 350:D:/DAVE IDE/4.5.0.202105191637/eclipse/workspace/bldcmotor/Libraries/XMCLib/inc\xmc_ccu4.h **** /**
 351:D:/DAVE IDE/4.5.0.202105191637/eclipse/workspace/bldcmotor/Libraries/XMCLib/inc\xmc_ccu4.h ****  *  External Event list
 352:D:/DAVE IDE/4.5.0.202105191637/eclipse/workspace/bldcmotor/Libraries/XMCLib/inc\xmc_ccu4.h ****  */
 353:D:/DAVE IDE/4.5.0.202105191637/eclipse/workspace/bldcmotor/Libraries/XMCLib/inc\xmc_ccu4.h **** typedef enum XMC_CCU4_SLICE_EVENT
 354:D:/DAVE IDE/4.5.0.202105191637/eclipse/workspace/bldcmotor/Libraries/XMCLib/inc\xmc_ccu4.h **** {
 355:D:/DAVE IDE/4.5.0.202105191637/eclipse/workspace/bldcmotor/Libraries/XMCLib/inc\xmc_ccu4.h ****   XMC_CCU4_SLICE_EVENT_NONE  = 0U, /**< None */
 356:D:/DAVE IDE/4.5.0.202105191637/eclipse/workspace/bldcmotor/Libraries/XMCLib/inc\xmc_ccu4.h ****   XMC_CCU4_SLICE_EVENT_0,          /**< Event-0 */
 357:D:/DAVE IDE/4.5.0.202105191637/eclipse/workspace/bldcmotor/Libraries/XMCLib/inc\xmc_ccu4.h ****   XMC_CCU4_SLICE_EVENT_1,          /**< Event-1 */
 358:D:/DAVE IDE/4.5.0.202105191637/eclipse/workspace/bldcmotor/Libraries/XMCLib/inc\xmc_ccu4.h ****   XMC_CCU4_SLICE_EVENT_2           /**< Event-2 */
 359:D:/DAVE IDE/4.5.0.202105191637/eclipse/workspace/bldcmotor/Libraries/XMCLib/inc\xmc_ccu4.h **** } XMC_CCU4_SLICE_EVENT_t;
 360:D:/DAVE IDE/4.5.0.202105191637/eclipse/workspace/bldcmotor/Libraries/XMCLib/inc\xmc_ccu4.h **** 
 361:D:/DAVE IDE/4.5.0.202105191637/eclipse/workspace/bldcmotor/Libraries/XMCLib/inc\xmc_ccu4.h **** /**
 362:D:/DAVE IDE/4.5.0.202105191637/eclipse/workspace/bldcmotor/Libraries/XMCLib/inc\xmc_ccu4.h ****  *  External Event trigger criteria  - Edge sensitivity
 363:D:/DAVE IDE/4.5.0.202105191637/eclipse/workspace/bldcmotor/Libraries/XMCLib/inc\xmc_ccu4.h ****  */
 364:D:/DAVE IDE/4.5.0.202105191637/eclipse/workspace/bldcmotor/Libraries/XMCLib/inc\xmc_ccu4.h **** typedef enum XMC_CCU4_SLICE_EVENT_EDGE_SENSITIVITY
 365:D:/DAVE IDE/4.5.0.202105191637/eclipse/workspace/bldcmotor/Libraries/XMCLib/inc\xmc_ccu4.h **** {
 366:D:/DAVE IDE/4.5.0.202105191637/eclipse/workspace/bldcmotor/Libraries/XMCLib/inc\xmc_ccu4.h ****   XMC_CCU4_SLICE_EVENT_EDGE_SENSITIVITY_NONE         = 0U, /**< None */
 367:D:/DAVE IDE/4.5.0.202105191637/eclipse/workspace/bldcmotor/Libraries/XMCLib/inc\xmc_ccu4.h ****   XMC_CCU4_SLICE_EVENT_EDGE_SENSITIVITY_RISING_EDGE,       /**< Rising Edge of the input signal gen
 368:D:/DAVE IDE/4.5.0.202105191637/eclipse/workspace/bldcmotor/Libraries/XMCLib/inc\xmc_ccu4.h ****   XMC_CCU4_SLICE_EVENT_EDGE_SENSITIVITY_FALLING_EDGE, /**< Falling Edge of the input signal generat
 369:D:/DAVE IDE/4.5.0.202105191637/eclipse/workspace/bldcmotor/Libraries/XMCLib/inc\xmc_ccu4.h ****                                                                 trigger */
 370:D:/DAVE IDE/4.5.0.202105191637/eclipse/workspace/bldcmotor/Libraries/XMCLib/inc\xmc_ccu4.h ****   XMC_CCU4_SLICE_EVENT_EDGE_SENSITIVITY_DUAL_EDGE          /**< Both Rising and Falling edges cause
 371:D:/DAVE IDE/4.5.0.202105191637/eclipse/workspace/bldcmotor/Libraries/XMCLib/inc\xmc_ccu4.h **** } XMC_CCU4_SLICE_EVENT_EDGE_SENSITIVITY_t;
 372:D:/DAVE IDE/4.5.0.202105191637/eclipse/workspace/bldcmotor/Libraries/XMCLib/inc\xmc_ccu4.h **** 
 373:D:/DAVE IDE/4.5.0.202105191637/eclipse/workspace/bldcmotor/Libraries/XMCLib/inc\xmc_ccu4.h **** /**
 374:D:/DAVE IDE/4.5.0.202105191637/eclipse/workspace/bldcmotor/Libraries/XMCLib/inc\xmc_ccu4.h ****  *  External Event trigger criteria  - Level sensitivity
 375:D:/DAVE IDE/4.5.0.202105191637/eclipse/workspace/bldcmotor/Libraries/XMCLib/inc\xmc_ccu4.h ****  */
 376:D:/DAVE IDE/4.5.0.202105191637/eclipse/workspace/bldcmotor/Libraries/XMCLib/inc\xmc_ccu4.h **** typedef enum XMC_CCU4_SLICE_EVENT_LEVEL_SENSITIVITY
 377:D:/DAVE IDE/4.5.0.202105191637/eclipse/workspace/bldcmotor/Libraries/XMCLib/inc\xmc_ccu4.h **** {
 378:D:/DAVE IDE/4.5.0.202105191637/eclipse/workspace/bldcmotor/Libraries/XMCLib/inc\xmc_ccu4.h ****   XMC_CCU4_SLICE_EVENT_LEVEL_SENSITIVITY_ACTIVE_HIGH = 0U, /**< Level sensitive functions react to 
 379:D:/DAVE IDE/4.5.0.202105191637/eclipse/workspace/bldcmotor/Libraries/XMCLib/inc\xmc_ccu4.h ****   XMC_CCU4_SLICE_EVENT_LEVEL_SENSITIVITY_ACTIVE_LOW  = 1U, /**< Level sensitive functions react to 
 380:D:/DAVE IDE/4.5.0.202105191637/eclipse/workspace/bldcmotor/Libraries/XMCLib/inc\xmc_ccu4.h ****   /* Below enum items can be utilised specific to the functionality */
 381:D:/DAVE IDE/4.5.0.202105191637/eclipse/workspace/bldcmotor/Libraries/XMCLib/inc\xmc_ccu4.h ****   XMC_CCU4_SLICE_EVENT_LEVEL_SENSITIVITY_COUNT_UP_ON_LOW = 0U, /**< Timer counts up, during Low sta
